ARM GAS  C:\Users\Robert\AppData\Local\Temp\ccljsDmb.s 			page 1


   1              		.syntax unified
   2              		.cpu cortex-m3
   3              		.fpu softvfp
   4              		.eabi_attribute 20, 1
   5              		.eabi_attribute 21, 1
   6              		.eabi_attribute 23, 3
   7              		.eabi_attribute 24, 1
   8              		.eabi_attribute 25, 1
   9              		.eabi_attribute 26, 1
  10              		.eabi_attribute 30, 6
  11              		.eabi_attribute 34, 1
  12              		.eabi_attribute 18, 4
  13              		.thumb
  14              		.file	"ADC_SAR_Seq_1.c"
  15              		.text
  16              	.Ltext0:
  17              		.cfi_sections	.debug_frame
  18              		.bss
  19              		.align	2
  20              	ADC_SAR_Seq_1_tempArray:
  21 0000 00000000 		.space	16
  21      00000000 
  21      00000000 
  21      00000000 
  22              		.comm	ADC_SAR_Seq_1_finalArray,16,4
  23              		.global	ADC_SAR_Seq_1_initVar
  24              		.align	2
  25              		.type	ADC_SAR_Seq_1_initVar, %object
  26              		.size	ADC_SAR_Seq_1_initVar, 4
  27              	ADC_SAR_Seq_1_initVar:
  28 0010 00000000 		.space	4
  29              	ADC_SAR_Seq_1_tempChan:
  30 0014 00       		.space	1
  31              	ADC_SAR_Seq_1_finalChan:
  32 0015 00       		.space	1
  33              	ADC_SAR_Seq_1_tempTD:
  34 0016 00       		.space	1
  35              	ADC_SAR_Seq_1_finalTD:
  36 0017 00       		.space	1
  37              		.section	.text.ADC_SAR_Seq_1_TempBufDmaInit,"ax",%progbits
  38              		.align	2
  39              		.thumb
  40              		.thumb_func
  41              		.type	ADC_SAR_Seq_1_TempBufDmaInit, %function
  42              	ADC_SAR_Seq_1_TempBufDmaInit:
  43              	.LFB0:
  44              		.file 1 ".\\Generated_Source\\PSoC5\\ADC_SAR_Seq_1.c"
   1:.\Generated_Source\PSoC5/ADC_SAR_Seq_1.c **** /*******************************************************************************
   2:.\Generated_Source\PSoC5/ADC_SAR_Seq_1.c **** * File Name: ADC_SAR_Seq_1.c
   3:.\Generated_Source\PSoC5/ADC_SAR_Seq_1.c **** * Version 1.10
   4:.\Generated_Source\PSoC5/ADC_SAR_Seq_1.c **** *
   5:.\Generated_Source\PSoC5/ADC_SAR_Seq_1.c **** * Description:
   6:.\Generated_Source\PSoC5/ADC_SAR_Seq_1.c **** *  This file provides the API functionality of the ADC SAR Sequencer Component
   7:.\Generated_Source\PSoC5/ADC_SAR_Seq_1.c **** *
   8:.\Generated_Source\PSoC5/ADC_SAR_Seq_1.c **** * Note:
   9:.\Generated_Source\PSoC5/ADC_SAR_Seq_1.c **** *  None
  10:.\Generated_Source\PSoC5/ADC_SAR_Seq_1.c **** *
ARM GAS  C:\Users\Robert\AppData\Local\Temp\ccljsDmb.s 			page 2


  11:.\Generated_Source\PSoC5/ADC_SAR_Seq_1.c **** ********************************************************************************
  12:.\Generated_Source\PSoC5/ADC_SAR_Seq_1.c **** * Copyright 2012-2013, Cypress Semiconductor Corporation.  All rights reserved.
  13:.\Generated_Source\PSoC5/ADC_SAR_Seq_1.c **** * You may use this file only in accordance with the license, terms, conditions,
  14:.\Generated_Source\PSoC5/ADC_SAR_Seq_1.c **** * disclaimers, and limitations in the end user license agreement accompanying
  15:.\Generated_Source\PSoC5/ADC_SAR_Seq_1.c **** * the software package with which this file was provided.
  16:.\Generated_Source\PSoC5/ADC_SAR_Seq_1.c **** *******************************************************************************/
  17:.\Generated_Source\PSoC5/ADC_SAR_Seq_1.c **** 
  18:.\Generated_Source\PSoC5/ADC_SAR_Seq_1.c **** #include "ADC_SAR_Seq_1.h"
  19:.\Generated_Source\PSoC5/ADC_SAR_Seq_1.c **** #include "ADC_SAR_Seq_1_SAR.h"
  20:.\Generated_Source\PSoC5/ADC_SAR_Seq_1.c **** #if(ADC_SAR_Seq_1_IRQ_REMOVE == 0u)
  21:.\Generated_Source\PSoC5/ADC_SAR_Seq_1.c ****     #include <ADC_SAR_Seq_1_IRQ.h>
  22:.\Generated_Source\PSoC5/ADC_SAR_Seq_1.c **** #endif   /* End ADC_SAR_Seq_1_IRQ_REMOVE */
  23:.\Generated_Source\PSoC5/ADC_SAR_Seq_1.c **** 
  24:.\Generated_Source\PSoC5/ADC_SAR_Seq_1.c **** static void ADC_SAR_Seq_1_TempBufDmaInit(void);
  25:.\Generated_Source\PSoC5/ADC_SAR_Seq_1.c **** static void ADC_SAR_Seq_1_TempBufDmaRelease(void);
  26:.\Generated_Source\PSoC5/ADC_SAR_Seq_1.c **** 
  27:.\Generated_Source\PSoC5/ADC_SAR_Seq_1.c **** static void ADC_SAR_Seq_1_FinalBufDmaInit(void);
  28:.\Generated_Source\PSoC5/ADC_SAR_Seq_1.c **** static void ADC_SAR_Seq_1_FinalBufDmaRelease(void);
  29:.\Generated_Source\PSoC5/ADC_SAR_Seq_1.c **** 
  30:.\Generated_Source\PSoC5/ADC_SAR_Seq_1.c **** static int16 ADC_SAR_Seq_1_tempArray[ADC_SAR_Seq_1_NUMBER_OF_CHANNELS];
  31:.\Generated_Source\PSoC5/ADC_SAR_Seq_1.c **** int16  ADC_SAR_Seq_1_finalArray[ADC_SAR_Seq_1_NUMBER_OF_CHANNELS];
  32:.\Generated_Source\PSoC5/ADC_SAR_Seq_1.c **** uint32 ADC_SAR_Seq_1_initVar = 0u;
  33:.\Generated_Source\PSoC5/ADC_SAR_Seq_1.c **** static uint8 ADC_SAR_Seq_1_tempChan;
  34:.\Generated_Source\PSoC5/ADC_SAR_Seq_1.c **** static uint8 ADC_SAR_Seq_1_finalChan;
  35:.\Generated_Source\PSoC5/ADC_SAR_Seq_1.c **** static uint8 ADC_SAR_Seq_1_tempTD;
  36:.\Generated_Source\PSoC5/ADC_SAR_Seq_1.c **** static uint8 ADC_SAR_Seq_1_finalTD;
  37:.\Generated_Source\PSoC5/ADC_SAR_Seq_1.c **** 
  38:.\Generated_Source\PSoC5/ADC_SAR_Seq_1.c **** 
  39:.\Generated_Source\PSoC5/ADC_SAR_Seq_1.c **** /*******************************************************************************
  40:.\Generated_Source\PSoC5/ADC_SAR_Seq_1.c **** * Function Name: ADC_SAR_Seq_1_TempBufDmaInit()
  41:.\Generated_Source\PSoC5/ADC_SAR_Seq_1.c **** ********************************************************************************
  42:.\Generated_Source\PSoC5/ADC_SAR_Seq_1.c **** *
  43:.\Generated_Source\PSoC5/ADC_SAR_Seq_1.c **** * Summary:
  44:.\Generated_Source\PSoC5/ADC_SAR_Seq_1.c **** *  Provides initialization procedure for the TempBuf DMA
  45:.\Generated_Source\PSoC5/ADC_SAR_Seq_1.c **** *
  46:.\Generated_Source\PSoC5/ADC_SAR_Seq_1.c **** * Parameters:
  47:.\Generated_Source\PSoC5/ADC_SAR_Seq_1.c **** *  None.
  48:.\Generated_Source\PSoC5/ADC_SAR_Seq_1.c **** *
  49:.\Generated_Source\PSoC5/ADC_SAR_Seq_1.c **** * Return:
  50:.\Generated_Source\PSoC5/ADC_SAR_Seq_1.c **** *  None.
  51:.\Generated_Source\PSoC5/ADC_SAR_Seq_1.c **** *
  52:.\Generated_Source\PSoC5/ADC_SAR_Seq_1.c **** * Side Effects:
  53:.\Generated_Source\PSoC5/ADC_SAR_Seq_1.c **** *  None.
  54:.\Generated_Source\PSoC5/ADC_SAR_Seq_1.c **** *
  55:.\Generated_Source\PSoC5/ADC_SAR_Seq_1.c **** * Reentrant:
  56:.\Generated_Source\PSoC5/ADC_SAR_Seq_1.c **** *  No.
  57:.\Generated_Source\PSoC5/ADC_SAR_Seq_1.c **** *
  58:.\Generated_Source\PSoC5/ADC_SAR_Seq_1.c **** *******************************************************************************/
  59:.\Generated_Source\PSoC5/ADC_SAR_Seq_1.c **** static void ADC_SAR_Seq_1_TempBufDmaInit(void)
  60:.\Generated_Source\PSoC5/ADC_SAR_Seq_1.c **** {
  45              		.loc 1 60 0
  46              		.cfi_startproc
  47              		@ args = 0, pretend = 0, frame = 0
  48              		@ frame_needed = 1, uses_anonymous_args = 0
  49 0000 80B5     		push	{r7, lr}
  50              		.cfi_def_cfa_offset 8
  51              		.cfi_offset 7, -8
ARM GAS  C:\Users\Robert\AppData\Local\Temp\ccljsDmb.s 			page 3


  52              		.cfi_offset 14, -4
  53 0002 00AF     		add	r7, sp, #0
  54              		.cfi_def_cfa_register 7
  61:.\Generated_Source\PSoC5/ADC_SAR_Seq_1.c ****     ADC_SAR_Seq_1_tempTD = CyDmaTdAllocate();
  55              		.loc 1 61 0
  56 0004 FFF7FEFF 		bl	CyDmaTdAllocate
  57 0008 0346     		mov	r3, r0
  58 000a 1A46     		mov	r2, r3
  59 000c 0F4B     		ldr	r3, .L2
  60 000e 1A70     		strb	r2, [r3]
  62:.\Generated_Source\PSoC5/ADC_SAR_Seq_1.c **** 
  63:.\Generated_Source\PSoC5/ADC_SAR_Seq_1.c ****     /* Configure this Td as follows:
  64:.\Generated_Source\PSoC5/ADC_SAR_Seq_1.c ****     *  - The TD is looping on itself
  65:.\Generated_Source\PSoC5/ADC_SAR_Seq_1.c ****     *  - Increment the destination address, but not the source address
  66:.\Generated_Source\PSoC5/ADC_SAR_Seq_1.c ****     */
  67:.\Generated_Source\PSoC5/ADC_SAR_Seq_1.c ****     (void) CyDmaTdSetConfiguration(ADC_SAR_Seq_1_tempTD, ADC_SAR_Seq_1_TEMP_TRANSFER_COUNT,
  61              		.loc 1 67 0
  62 0010 0E4B     		ldr	r3, .L2
  63 0012 1A78     		ldrb	r2, [r3]	@ zero_extendqisi2
  64 0014 0D4B     		ldr	r3, .L2
  65 0016 1B78     		ldrb	r3, [r3]	@ zero_extendqisi2
  66 0018 1046     		mov	r0, r2
  67 001a 1021     		movs	r1, #16
  68 001c 1A46     		mov	r2, r3
  69 001e 0623     		movs	r3, #6
  70 0020 FFF7FEFF 		bl	CyDmaTdSetConfiguration
  68:.\Generated_Source\PSoC5/ADC_SAR_Seq_1.c ****         ADC_SAR_Seq_1_tempTD, ((uint8)ADC_SAR_Seq_1_TempBuf__TD_TERMOUT_EN | (uint8)TD_INC_DST_ADR)
  69:.\Generated_Source\PSoC5/ADC_SAR_Seq_1.c **** 
  70:.\Generated_Source\PSoC5/ADC_SAR_Seq_1.c ****     /* From the SAR to the TempArray */
  71:.\Generated_Source\PSoC5/ADC_SAR_Seq_1.c ****     (void) CyDmaTdSetAddress(ADC_SAR_Seq_1_tempTD, (uint16)(LO16((uint32)ADC_SAR_Seq_1_SAR_DATA_ADD
  71              		.loc 1 71 0
  72 0024 094B     		ldr	r3, .L2
  73 0026 1A78     		ldrb	r2, [r3]	@ zero_extendqisi2
  74 0028 094B     		ldr	r3, .L2+4
  75 002a 9BB2     		uxth	r3, r3
  76 002c 1046     		mov	r0, r2
  77 002e 45F6A231 		movw	r1, #23458
  78 0032 1A46     		mov	r2, r3
  79 0034 FFF7FEFF 		bl	CyDmaTdSetAddress
  72:.\Generated_Source\PSoC5/ADC_SAR_Seq_1.c ****         (uint16)(LO16((uint32)ADC_SAR_Seq_1_tempArray)));
  73:.\Generated_Source\PSoC5/ADC_SAR_Seq_1.c **** 
  74:.\Generated_Source\PSoC5/ADC_SAR_Seq_1.c ****     /* Associate the TD with the channel */
  75:.\Generated_Source\PSoC5/ADC_SAR_Seq_1.c ****     (void) CyDmaChSetInitialTd(ADC_SAR_Seq_1_tempChan, ADC_SAR_Seq_1_tempTD);
  80              		.loc 1 75 0
  81 0038 064B     		ldr	r3, .L2+8
  82 003a 1A78     		ldrb	r2, [r3]	@ zero_extendqisi2
  83 003c 034B     		ldr	r3, .L2
  84 003e 1B78     		ldrb	r3, [r3]	@ zero_extendqisi2
  85 0040 1046     		mov	r0, r2
  86 0042 1946     		mov	r1, r3
  87 0044 FFF7FEFF 		bl	CyDmaChSetInitialTd
  76:.\Generated_Source\PSoC5/ADC_SAR_Seq_1.c **** }
  88              		.loc 1 76 0
  89 0048 80BD     		pop	{r7, pc}
  90              	.L3:
  91 004a 00BF     		.align	2
  92              	.L2:
ARM GAS  C:\Users\Robert\AppData\Local\Temp\ccljsDmb.s 			page 4


  93 004c 16000000 		.word	ADC_SAR_Seq_1_tempTD
  94 0050 00000000 		.word	ADC_SAR_Seq_1_tempArray
  95 0054 14000000 		.word	ADC_SAR_Seq_1_tempChan
  96              		.cfi_endproc
  97              	.LFE0:
  98              		.size	ADC_SAR_Seq_1_TempBufDmaInit, .-ADC_SAR_Seq_1_TempBufDmaInit
  99              		.section	.text.ADC_SAR_Seq_1_TempBufDmaRelease,"ax",%progbits
 100              		.align	2
 101              		.thumb
 102              		.thumb_func
 103              		.type	ADC_SAR_Seq_1_TempBufDmaRelease, %function
 104              	ADC_SAR_Seq_1_TempBufDmaRelease:
 105              	.LFB1:
  77:.\Generated_Source\PSoC5/ADC_SAR_Seq_1.c **** 
  78:.\Generated_Source\PSoC5/ADC_SAR_Seq_1.c **** 
  79:.\Generated_Source\PSoC5/ADC_SAR_Seq_1.c **** /*******************************************************************************
  80:.\Generated_Source\PSoC5/ADC_SAR_Seq_1.c **** * Function Name: ADC_SAR_Seq_1_TempBufDmaRelease()
  81:.\Generated_Source\PSoC5/ADC_SAR_Seq_1.c **** ********************************************************************************
  82:.\Generated_Source\PSoC5/ADC_SAR_Seq_1.c **** *
  83:.\Generated_Source\PSoC5/ADC_SAR_Seq_1.c **** * Summary:
  84:.\Generated_Source\PSoC5/ADC_SAR_Seq_1.c **** *  Provides release procedure for the TempBuf DMA
  85:.\Generated_Source\PSoC5/ADC_SAR_Seq_1.c **** *
  86:.\Generated_Source\PSoC5/ADC_SAR_Seq_1.c **** * Parameters:
  87:.\Generated_Source\PSoC5/ADC_SAR_Seq_1.c **** *  None.
  88:.\Generated_Source\PSoC5/ADC_SAR_Seq_1.c **** *
  89:.\Generated_Source\PSoC5/ADC_SAR_Seq_1.c **** * Return:
  90:.\Generated_Source\PSoC5/ADC_SAR_Seq_1.c **** *  None.
  91:.\Generated_Source\PSoC5/ADC_SAR_Seq_1.c **** *
  92:.\Generated_Source\PSoC5/ADC_SAR_Seq_1.c **** * Side Effects:
  93:.\Generated_Source\PSoC5/ADC_SAR_Seq_1.c **** *  None.
  94:.\Generated_Source\PSoC5/ADC_SAR_Seq_1.c **** *
  95:.\Generated_Source\PSoC5/ADC_SAR_Seq_1.c **** * Reentrant:
  96:.\Generated_Source\PSoC5/ADC_SAR_Seq_1.c **** *  No.
  97:.\Generated_Source\PSoC5/ADC_SAR_Seq_1.c **** *
  98:.\Generated_Source\PSoC5/ADC_SAR_Seq_1.c **** *******************************************************************************/
  99:.\Generated_Source\PSoC5/ADC_SAR_Seq_1.c **** static void ADC_SAR_Seq_1_TempBufDmaRelease(void)
 100:.\Generated_Source\PSoC5/ADC_SAR_Seq_1.c **** {
 106              		.loc 1 100 0
 107              		.cfi_startproc
 108              		@ args = 0, pretend = 0, frame = 0
 109              		@ frame_needed = 1, uses_anonymous_args = 0
 110 0000 80B5     		push	{r7, lr}
 111              		.cfi_def_cfa_offset 8
 112              		.cfi_offset 7, -8
 113              		.cfi_offset 14, -4
 114 0002 00AF     		add	r7, sp, #0
 115              		.cfi_def_cfa_register 7
 101:.\Generated_Source\PSoC5/ADC_SAR_Seq_1.c ****     (void) CyDmaChDisable(ADC_SAR_Seq_1_tempChan);
 116              		.loc 1 101 0
 117 0004 184B     		ldr	r3, .L7
 118 0006 1B78     		ldrb	r3, [r3]	@ zero_extendqisi2
 119 0008 1846     		mov	r0, r3
 120 000a FFF7FEFF 		bl	CyDmaChDisable
 102:.\Generated_Source\PSoC5/ADC_SAR_Seq_1.c **** 
 103:.\Generated_Source\PSoC5/ADC_SAR_Seq_1.c ****     /* Clear any potential DMA requests and re-reset TD pointers */
 104:.\Generated_Source\PSoC5/ADC_SAR_Seq_1.c ****     while(0u != (CY_DMA_CH_STRUCT_PTR[ADC_SAR_Seq_1_tempChan].basic_status[0u] & CY_DMA_STATUS_TD_A
 121              		.loc 1 104 0
ARM GAS  C:\Users\Robert\AppData\Local\Temp\ccljsDmb.s 			page 5


 122 000e 00BF     		nop
 123              	.L5:
 124              		.loc 1 104 0 is_stmt 0 discriminator 1
 125 0010 154B     		ldr	r3, .L7
 126 0012 1B78     		ldrb	r3, [r3]	@ zero_extendqisi2
 127 0014 1A01     		lsls	r2, r3, #4
 128 0016 154B     		ldr	r3, .L7+4
 129 0018 1344     		add	r3, r3, r2
 130 001a 1B7A     		ldrb	r3, [r3, #8]
 131 001c DBB2     		uxtb	r3, r3
 132 001e 03F00203 		and	r3, r3, #2
 133 0022 002B     		cmp	r3, #0
 134 0024 F4D1     		bne	.L5
 105:.\Generated_Source\PSoC5/ADC_SAR_Seq_1.c ****     {
 106:.\Generated_Source\PSoC5/ADC_SAR_Seq_1.c ****         ; /* Wait for to be cleared */
 107:.\Generated_Source\PSoC5/ADC_SAR_Seq_1.c ****     }
 108:.\Generated_Source\PSoC5/ADC_SAR_Seq_1.c **** 
 109:.\Generated_Source\PSoC5/ADC_SAR_Seq_1.c ****     (void) CyDmaChSetRequest(ADC_SAR_Seq_1_tempChan, CY_DMA_CPU_TERM_CHAIN);
 135              		.loc 1 109 0 is_stmt 1
 136 0026 104B     		ldr	r3, .L7
 137 0028 1B78     		ldrb	r3, [r3]	@ zero_extendqisi2
 138 002a 1846     		mov	r0, r3
 139 002c 0421     		movs	r1, #4
 140 002e FFF7FEFF 		bl	CyDmaChSetRequest
 110:.\Generated_Source\PSoC5/ADC_SAR_Seq_1.c ****     (void) CyDmaChEnable    (ADC_SAR_Seq_1_tempChan, 1u);
 141              		.loc 1 110 0
 142 0032 0D4B     		ldr	r3, .L7
 143 0034 1B78     		ldrb	r3, [r3]	@ zero_extendqisi2
 144 0036 1846     		mov	r0, r3
 145 0038 0121     		movs	r1, #1
 146 003a FFF7FEFF 		bl	CyDmaChEnable
 111:.\Generated_Source\PSoC5/ADC_SAR_Seq_1.c **** 
 112:.\Generated_Source\PSoC5/ADC_SAR_Seq_1.c ****     while(0u != (CY_DMA_CH_STRUCT_PTR[ADC_SAR_Seq_1_tempChan].basic_cfg[0u] & CY_DMA_STATUS_CHAIN_A
 147              		.loc 1 112 0
 148 003e 00BF     		nop
 149              	.L6:
 150              		.loc 1 112 0 is_stmt 0 discriminator 1
 151 0040 094B     		ldr	r3, .L7
 152 0042 1B78     		ldrb	r3, [r3]	@ zero_extendqisi2
 153 0044 1A01     		lsls	r2, r3, #4
 154 0046 094B     		ldr	r3, .L7+4
 155 0048 1344     		add	r3, r3, r2
 156 004a 1B78     		ldrb	r3, [r3]
 157 004c DBB2     		uxtb	r3, r3
 158 004e 03F00103 		and	r3, r3, #1
 159 0052 002B     		cmp	r3, #0
 160 0054 F4D1     		bne	.L6
 113:.\Generated_Source\PSoC5/ADC_SAR_Seq_1.c ****         {
 114:.\Generated_Source\PSoC5/ADC_SAR_Seq_1.c ****             ; /* Wait for to be cleared */
 115:.\Generated_Source\PSoC5/ADC_SAR_Seq_1.c ****         }
 116:.\Generated_Source\PSoC5/ADC_SAR_Seq_1.c **** 
 117:.\Generated_Source\PSoC5/ADC_SAR_Seq_1.c ****     /* Release allocated TD and mark it as invalid */
 118:.\Generated_Source\PSoC5/ADC_SAR_Seq_1.c ****     CyDmaTdFree(ADC_SAR_Seq_1_tempTD);
 161              		.loc 1 118 0 is_stmt 1
 162 0056 064B     		ldr	r3, .L7+8
 163 0058 1B78     		ldrb	r3, [r3]	@ zero_extendqisi2
 164 005a 1846     		mov	r0, r3
ARM GAS  C:\Users\Robert\AppData\Local\Temp\ccljsDmb.s 			page 6


 165 005c FFF7FEFF 		bl	CyDmaTdFree
 119:.\Generated_Source\PSoC5/ADC_SAR_Seq_1.c ****     ADC_SAR_Seq_1_tempTD = CY_DMA_INVALID_TD;
 166              		.loc 1 119 0
 167 0060 034B     		ldr	r3, .L7+8
 168 0062 FF22     		movs	r2, #255
 169 0064 1A70     		strb	r2, [r3]
 120:.\Generated_Source\PSoC5/ADC_SAR_Seq_1.c **** 
 121:.\Generated_Source\PSoC5/ADC_SAR_Seq_1.c **** }
 170              		.loc 1 121 0
 171 0066 80BD     		pop	{r7, pc}
 172              	.L8:
 173              		.align	2
 174              	.L7:
 175 0068 14000000 		.word	ADC_SAR_Seq_1_tempChan
 176 006c 10700040 		.word	1073770512
 177 0070 16000000 		.word	ADC_SAR_Seq_1_tempTD
 178              		.cfi_endproc
 179              	.LFE1:
 180              		.size	ADC_SAR_Seq_1_TempBufDmaRelease, .-ADC_SAR_Seq_1_TempBufDmaRelease
 181              		.section	.text.ADC_SAR_Seq_1_FinalBufDmaInit,"ax",%progbits
 182              		.align	2
 183              		.thumb
 184              		.thumb_func
 185              		.type	ADC_SAR_Seq_1_FinalBufDmaInit, %function
 186              	ADC_SAR_Seq_1_FinalBufDmaInit:
 187              	.LFB2:
 122:.\Generated_Source\PSoC5/ADC_SAR_Seq_1.c **** 
 123:.\Generated_Source\PSoC5/ADC_SAR_Seq_1.c **** 
 124:.\Generated_Source\PSoC5/ADC_SAR_Seq_1.c **** /****************************************************************************
 125:.\Generated_Source\PSoC5/ADC_SAR_Seq_1.c **** * Function Name: ADC_SAR_Seq_1_FinalBufDmaInit()
 126:.\Generated_Source\PSoC5/ADC_SAR_Seq_1.c **** *****************************************************************************
 127:.\Generated_Source\PSoC5/ADC_SAR_Seq_1.c **** *
 128:.\Generated_Source\PSoC5/ADC_SAR_Seq_1.c **** * Summary:
 129:.\Generated_Source\PSoC5/ADC_SAR_Seq_1.c **** *  Provides initialization procedure for the FinalBuf DMA
 130:.\Generated_Source\PSoC5/ADC_SAR_Seq_1.c **** *
 131:.\Generated_Source\PSoC5/ADC_SAR_Seq_1.c **** * Parameters:
 132:.\Generated_Source\PSoC5/ADC_SAR_Seq_1.c **** *  None.
 133:.\Generated_Source\PSoC5/ADC_SAR_Seq_1.c **** *
 134:.\Generated_Source\PSoC5/ADC_SAR_Seq_1.c **** * Return:
 135:.\Generated_Source\PSoC5/ADC_SAR_Seq_1.c **** *  None.
 136:.\Generated_Source\PSoC5/ADC_SAR_Seq_1.c **** *
 137:.\Generated_Source\PSoC5/ADC_SAR_Seq_1.c **** * Side Effects:
 138:.\Generated_Source\PSoC5/ADC_SAR_Seq_1.c **** *  None.
 139:.\Generated_Source\PSoC5/ADC_SAR_Seq_1.c **** *
 140:.\Generated_Source\PSoC5/ADC_SAR_Seq_1.c **** * Reentrant:
 141:.\Generated_Source\PSoC5/ADC_SAR_Seq_1.c **** *  No.
 142:.\Generated_Source\PSoC5/ADC_SAR_Seq_1.c **** *
 143:.\Generated_Source\PSoC5/ADC_SAR_Seq_1.c **** ****************************************************************************/
 144:.\Generated_Source\PSoC5/ADC_SAR_Seq_1.c **** static void ADC_SAR_Seq_1_FinalBufDmaInit(void)
 145:.\Generated_Source\PSoC5/ADC_SAR_Seq_1.c **** {
 188              		.loc 1 145 0
 189              		.cfi_startproc
 190              		@ args = 0, pretend = 0, frame = 0
 191              		@ frame_needed = 1, uses_anonymous_args = 0
 192 0000 80B5     		push	{r7, lr}
 193              		.cfi_def_cfa_offset 8
 194              		.cfi_offset 7, -8
ARM GAS  C:\Users\Robert\AppData\Local\Temp\ccljsDmb.s 			page 7


 195              		.cfi_offset 14, -4
 196 0002 00AF     		add	r7, sp, #0
 197              		.cfi_def_cfa_register 7
 146:.\Generated_Source\PSoC5/ADC_SAR_Seq_1.c ****     ADC_SAR_Seq_1_finalTD = CyDmaTdAllocate();
 198              		.loc 1 146 0
 199 0004 FFF7FEFF 		bl	CyDmaTdAllocate
 200 0008 0346     		mov	r3, r0
 201 000a 1A46     		mov	r2, r3
 202 000c 0F4B     		ldr	r3, .L10
 203 000e 1A70     		strb	r2, [r3]
 147:.\Generated_Source\PSoC5/ADC_SAR_Seq_1.c **** 
 148:.\Generated_Source\PSoC5/ADC_SAR_Seq_1.c ****     /* Configure this Td as follows:
 149:.\Generated_Source\PSoC5/ADC_SAR_Seq_1.c ****     *  - The TD is looping on itself
 150:.\Generated_Source\PSoC5/ADC_SAR_Seq_1.c ****     *  - Increment the source and destination address
 151:.\Generated_Source\PSoC5/ADC_SAR_Seq_1.c ****     */
 152:.\Generated_Source\PSoC5/ADC_SAR_Seq_1.c ****     (void) CyDmaTdSetConfiguration(ADC_SAR_Seq_1_finalTD, (ADC_SAR_Seq_1_FINAL_BYTES_PER_BURST),
 204              		.loc 1 152 0
 205 0010 0E4B     		ldr	r3, .L10
 206 0012 1A78     		ldrb	r2, [r3]	@ zero_extendqisi2
 207 0014 0D4B     		ldr	r3, .L10
 208 0016 1B78     		ldrb	r3, [r3]	@ zero_extendqisi2
 209 0018 1046     		mov	r0, r2
 210 001a 1021     		movs	r1, #16
 211 001c 1A46     		mov	r2, r3
 212 001e 0723     		movs	r3, #7
 213 0020 FFF7FEFF 		bl	CyDmaTdSetConfiguration
 153:.\Generated_Source\PSoC5/ADC_SAR_Seq_1.c ****         ADC_SAR_Seq_1_finalTD, ((uint8)(ADC_SAR_Seq_1_FinalBuf__TD_TERMOUT_EN) | (uint8)TD_INC_SRC_
 154:.\Generated_Source\PSoC5/ADC_SAR_Seq_1.c ****             (uint8)TD_INC_DST_ADR));
 155:.\Generated_Source\PSoC5/ADC_SAR_Seq_1.c **** 
 156:.\Generated_Source\PSoC5/ADC_SAR_Seq_1.c ****     /* From the the TempArray to Final Array */
 157:.\Generated_Source\PSoC5/ADC_SAR_Seq_1.c ****     (void) CyDmaTdSetAddress(ADC_SAR_Seq_1_finalTD, (uint16)(LO16((uint32)ADC_SAR_Seq_1_tempArray))
 214              		.loc 1 157 0
 215 0024 094B     		ldr	r3, .L10
 216 0026 1978     		ldrb	r1, [r3]	@ zero_extendqisi2
 217 0028 094B     		ldr	r3, .L10+4
 218 002a 9AB2     		uxth	r2, r3
 219 002c 094B     		ldr	r3, .L10+8
 220 002e 9BB2     		uxth	r3, r3
 221 0030 0846     		mov	r0, r1
 222 0032 1146     		mov	r1, r2
 223 0034 1A46     		mov	r2, r3
 224 0036 FFF7FEFF 		bl	CyDmaTdSetAddress
 158:.\Generated_Source\PSoC5/ADC_SAR_Seq_1.c ****         (uint16)(LO16((uint32)ADC_SAR_Seq_1_finalArray)));
 159:.\Generated_Source\PSoC5/ADC_SAR_Seq_1.c **** 
 160:.\Generated_Source\PSoC5/ADC_SAR_Seq_1.c ****     /* Associate the TD with the channel */
 161:.\Generated_Source\PSoC5/ADC_SAR_Seq_1.c ****     (void) CyDmaChSetInitialTd(ADC_SAR_Seq_1_finalChan, ADC_SAR_Seq_1_finalTD);
 225              		.loc 1 161 0
 226 003a 074B     		ldr	r3, .L10+12
 227 003c 1A78     		ldrb	r2, [r3]	@ zero_extendqisi2
 228 003e 034B     		ldr	r3, .L10
 229 0040 1B78     		ldrb	r3, [r3]	@ zero_extendqisi2
 230 0042 1046     		mov	r0, r2
 231 0044 1946     		mov	r1, r3
 232 0046 FFF7FEFF 		bl	CyDmaChSetInitialTd
 162:.\Generated_Source\PSoC5/ADC_SAR_Seq_1.c **** }
 233              		.loc 1 162 0
 234 004a 80BD     		pop	{r7, pc}
ARM GAS  C:\Users\Robert\AppData\Local\Temp\ccljsDmb.s 			page 8


 235              	.L11:
 236              		.align	2
 237              	.L10:
 238 004c 17000000 		.word	ADC_SAR_Seq_1_finalTD
 239 0050 00000000 		.word	ADC_SAR_Seq_1_tempArray
 240 0054 00000000 		.word	ADC_SAR_Seq_1_finalArray
 241 0058 15000000 		.word	ADC_SAR_Seq_1_finalChan
 242              		.cfi_endproc
 243              	.LFE2:
 244              		.size	ADC_SAR_Seq_1_FinalBufDmaInit, .-ADC_SAR_Seq_1_FinalBufDmaInit
 245              		.section	.text.ADC_SAR_Seq_1_FinalBufDmaRelease,"ax",%progbits
 246              		.align	2
 247              		.thumb
 248              		.thumb_func
 249              		.type	ADC_SAR_Seq_1_FinalBufDmaRelease, %function
 250              	ADC_SAR_Seq_1_FinalBufDmaRelease:
 251              	.LFB3:
 163:.\Generated_Source\PSoC5/ADC_SAR_Seq_1.c **** 
 164:.\Generated_Source\PSoC5/ADC_SAR_Seq_1.c **** 
 165:.\Generated_Source\PSoC5/ADC_SAR_Seq_1.c **** /****************************************************************************
 166:.\Generated_Source\PSoC5/ADC_SAR_Seq_1.c **** * Function Name: ADC_SAR_Seq_1_FinalBufDmaRelease()
 167:.\Generated_Source\PSoC5/ADC_SAR_Seq_1.c **** *****************************************************************************
 168:.\Generated_Source\PSoC5/ADC_SAR_Seq_1.c **** *
 169:.\Generated_Source\PSoC5/ADC_SAR_Seq_1.c **** * Summary:
 170:.\Generated_Source\PSoC5/ADC_SAR_Seq_1.c **** *  Provides release procedure for the FinalBuf DMA.
 171:.\Generated_Source\PSoC5/ADC_SAR_Seq_1.c **** *
 172:.\Generated_Source\PSoC5/ADC_SAR_Seq_1.c **** * Parameters:
 173:.\Generated_Source\PSoC5/ADC_SAR_Seq_1.c **** *  None.
 174:.\Generated_Source\PSoC5/ADC_SAR_Seq_1.c **** *
 175:.\Generated_Source\PSoC5/ADC_SAR_Seq_1.c **** * Return:
 176:.\Generated_Source\PSoC5/ADC_SAR_Seq_1.c **** *  None.
 177:.\Generated_Source\PSoC5/ADC_SAR_Seq_1.c **** *
 178:.\Generated_Source\PSoC5/ADC_SAR_Seq_1.c **** * Side Effects:
 179:.\Generated_Source\PSoC5/ADC_SAR_Seq_1.c **** *  None.
 180:.\Generated_Source\PSoC5/ADC_SAR_Seq_1.c **** *
 181:.\Generated_Source\PSoC5/ADC_SAR_Seq_1.c **** * Reentrant:
 182:.\Generated_Source\PSoC5/ADC_SAR_Seq_1.c **** *  No.
 183:.\Generated_Source\PSoC5/ADC_SAR_Seq_1.c **** *
 184:.\Generated_Source\PSoC5/ADC_SAR_Seq_1.c **** ****************************************************************************/
 185:.\Generated_Source\PSoC5/ADC_SAR_Seq_1.c **** static void ADC_SAR_Seq_1_FinalBufDmaRelease(void)
 186:.\Generated_Source\PSoC5/ADC_SAR_Seq_1.c **** {
 252              		.loc 1 186 0
 253              		.cfi_startproc
 254              		@ args = 0, pretend = 0, frame = 0
 255              		@ frame_needed = 1, uses_anonymous_args = 0
 256 0000 80B5     		push	{r7, lr}
 257              		.cfi_def_cfa_offset 8
 258              		.cfi_offset 7, -8
 259              		.cfi_offset 14, -4
 260 0002 00AF     		add	r7, sp, #0
 261              		.cfi_def_cfa_register 7
 187:.\Generated_Source\PSoC5/ADC_SAR_Seq_1.c ****     (void) CyDmaChDisable(ADC_SAR_Seq_1_finalChan);
 262              		.loc 1 187 0
 263 0004 184B     		ldr	r3, .L15
 264 0006 1B78     		ldrb	r3, [r3]	@ zero_extendqisi2
 265 0008 1846     		mov	r0, r3
 266 000a FFF7FEFF 		bl	CyDmaChDisable
ARM GAS  C:\Users\Robert\AppData\Local\Temp\ccljsDmb.s 			page 9


 188:.\Generated_Source\PSoC5/ADC_SAR_Seq_1.c **** 
 189:.\Generated_Source\PSoC5/ADC_SAR_Seq_1.c ****     /* Clear any potential DMA requests and re-reset TD pointers */
 190:.\Generated_Source\PSoC5/ADC_SAR_Seq_1.c ****     while(0u != (CY_DMA_CH_STRUCT_PTR[ADC_SAR_Seq_1_finalChan].basic_status[0u] & CY_DMA_STATUS_TD_
 267              		.loc 1 190 0
 268 000e 00BF     		nop
 269              	.L13:
 270              		.loc 1 190 0 is_stmt 0 discriminator 1
 271 0010 154B     		ldr	r3, .L15
 272 0012 1B78     		ldrb	r3, [r3]	@ zero_extendqisi2
 273 0014 1A01     		lsls	r2, r3, #4
 274 0016 154B     		ldr	r3, .L15+4
 275 0018 1344     		add	r3, r3, r2
 276 001a 1B7A     		ldrb	r3, [r3, #8]
 277 001c DBB2     		uxtb	r3, r3
 278 001e 03F00203 		and	r3, r3, #2
 279 0022 002B     		cmp	r3, #0
 280 0024 F4D1     		bne	.L13
 191:.\Generated_Source\PSoC5/ADC_SAR_Seq_1.c ****     {
 192:.\Generated_Source\PSoC5/ADC_SAR_Seq_1.c ****         ; /* Wait for to be cleared */
 193:.\Generated_Source\PSoC5/ADC_SAR_Seq_1.c ****     }
 194:.\Generated_Source\PSoC5/ADC_SAR_Seq_1.c **** 
 195:.\Generated_Source\PSoC5/ADC_SAR_Seq_1.c ****     (void) CyDmaChSetRequest(ADC_SAR_Seq_1_finalChan, CY_DMA_CPU_TERM_CHAIN);
 281              		.loc 1 195 0 is_stmt 1
 282 0026 104B     		ldr	r3, .L15
 283 0028 1B78     		ldrb	r3, [r3]	@ zero_extendqisi2
 284 002a 1846     		mov	r0, r3
 285 002c 0421     		movs	r1, #4
 286 002e FFF7FEFF 		bl	CyDmaChSetRequest
 196:.\Generated_Source\PSoC5/ADC_SAR_Seq_1.c ****     (void) CyDmaChEnable    (ADC_SAR_Seq_1_finalChan, 1u);
 287              		.loc 1 196 0
 288 0032 0D4B     		ldr	r3, .L15
 289 0034 1B78     		ldrb	r3, [r3]	@ zero_extendqisi2
 290 0036 1846     		mov	r0, r3
 291 0038 0121     		movs	r1, #1
 292 003a FFF7FEFF 		bl	CyDmaChEnable
 197:.\Generated_Source\PSoC5/ADC_SAR_Seq_1.c **** 
 198:.\Generated_Source\PSoC5/ADC_SAR_Seq_1.c ****     while(0u != (CY_DMA_CH_STRUCT_PTR[ADC_SAR_Seq_1_finalChan].basic_cfg[0u] & CY_DMA_STATUS_CHAIN_
 293              		.loc 1 198 0
 294 003e 00BF     		nop
 295              	.L14:
 296              		.loc 1 198 0 is_stmt 0 discriminator 1
 297 0040 094B     		ldr	r3, .L15
 298 0042 1B78     		ldrb	r3, [r3]	@ zero_extendqisi2
 299 0044 1A01     		lsls	r2, r3, #4
 300 0046 094B     		ldr	r3, .L15+4
 301 0048 1344     		add	r3, r3, r2
 302 004a 1B78     		ldrb	r3, [r3]
 303 004c DBB2     		uxtb	r3, r3
 304 004e 03F00103 		and	r3, r3, #1
 305 0052 002B     		cmp	r3, #0
 306 0054 F4D1     		bne	.L14
 199:.\Generated_Source\PSoC5/ADC_SAR_Seq_1.c ****         {
 200:.\Generated_Source\PSoC5/ADC_SAR_Seq_1.c ****             ; /* Wait for to be cleared */
 201:.\Generated_Source\PSoC5/ADC_SAR_Seq_1.c ****         }
 202:.\Generated_Source\PSoC5/ADC_SAR_Seq_1.c **** 
 203:.\Generated_Source\PSoC5/ADC_SAR_Seq_1.c ****     /* Release allocated TD and mark it as invalid */
 204:.\Generated_Source\PSoC5/ADC_SAR_Seq_1.c ****     CyDmaTdFree(ADC_SAR_Seq_1_finalTD);
ARM GAS  C:\Users\Robert\AppData\Local\Temp\ccljsDmb.s 			page 10


 307              		.loc 1 204 0 is_stmt 1
 308 0056 064B     		ldr	r3, .L15+8
 309 0058 1B78     		ldrb	r3, [r3]	@ zero_extendqisi2
 310 005a 1846     		mov	r0, r3
 311 005c FFF7FEFF 		bl	CyDmaTdFree
 205:.\Generated_Source\PSoC5/ADC_SAR_Seq_1.c ****     ADC_SAR_Seq_1_finalTD = CY_DMA_INVALID_TD;
 312              		.loc 1 205 0
 313 0060 034B     		ldr	r3, .L15+8
 314 0062 FF22     		movs	r2, #255
 315 0064 1A70     		strb	r2, [r3]
 206:.\Generated_Source\PSoC5/ADC_SAR_Seq_1.c **** }
 316              		.loc 1 206 0
 317 0066 80BD     		pop	{r7, pc}
 318              	.L16:
 319              		.align	2
 320              	.L15:
 321 0068 15000000 		.word	ADC_SAR_Seq_1_finalChan
 322 006c 10700040 		.word	1073770512
 323 0070 17000000 		.word	ADC_SAR_Seq_1_finalTD
 324              		.cfi_endproc
 325              	.LFE3:
 326              		.size	ADC_SAR_Seq_1_FinalBufDmaRelease, .-ADC_SAR_Seq_1_FinalBufDmaRelease
 327              		.section	.text.ADC_SAR_Seq_1_Disable,"ax",%progbits
 328              		.align	2
 329              		.global	ADC_SAR_Seq_1_Disable
 330              		.thumb
 331              		.thumb_func
 332              		.type	ADC_SAR_Seq_1_Disable, %function
 333              	ADC_SAR_Seq_1_Disable:
 334              	.LFB4:
 207:.\Generated_Source\PSoC5/ADC_SAR_Seq_1.c **** 
 208:.\Generated_Source\PSoC5/ADC_SAR_Seq_1.c **** 
 209:.\Generated_Source\PSoC5/ADC_SAR_Seq_1.c **** /****************************************************************************
 210:.\Generated_Source\PSoC5/ADC_SAR_Seq_1.c **** * Function Name: ADC_SAR_Seq_1_Disable()
 211:.\Generated_Source\PSoC5/ADC_SAR_Seq_1.c **** *****************************************************************************
 212:.\Generated_Source\PSoC5/ADC_SAR_Seq_1.c **** *
 213:.\Generated_Source\PSoC5/ADC_SAR_Seq_1.c **** * Summary:
 214:.\Generated_Source\PSoC5/ADC_SAR_Seq_1.c **** *  Disables the component without disabling the ADC SAR.
 215:.\Generated_Source\PSoC5/ADC_SAR_Seq_1.c **** *
 216:.\Generated_Source\PSoC5/ADC_SAR_Seq_1.c **** * Parameters:
 217:.\Generated_Source\PSoC5/ADC_SAR_Seq_1.c **** *  None.
 218:.\Generated_Source\PSoC5/ADC_SAR_Seq_1.c **** *
 219:.\Generated_Source\PSoC5/ADC_SAR_Seq_1.c **** * Return:
 220:.\Generated_Source\PSoC5/ADC_SAR_Seq_1.c **** *  None.
 221:.\Generated_Source\PSoC5/ADC_SAR_Seq_1.c **** *
 222:.\Generated_Source\PSoC5/ADC_SAR_Seq_1.c **** * Side Effects:
 223:.\Generated_Source\PSoC5/ADC_SAR_Seq_1.c **** *  None.
 224:.\Generated_Source\PSoC5/ADC_SAR_Seq_1.c **** *
 225:.\Generated_Source\PSoC5/ADC_SAR_Seq_1.c **** * Reentrant:
 226:.\Generated_Source\PSoC5/ADC_SAR_Seq_1.c **** *  No.
 227:.\Generated_Source\PSoC5/ADC_SAR_Seq_1.c **** *
 228:.\Generated_Source\PSoC5/ADC_SAR_Seq_1.c **** ****************************************************************************/
 229:.\Generated_Source\PSoC5/ADC_SAR_Seq_1.c **** void ADC_SAR_Seq_1_Disable(void)
 230:.\Generated_Source\PSoC5/ADC_SAR_Seq_1.c **** {
 335              		.loc 1 230 0
 336              		.cfi_startproc
 337              		@ args = 0, pretend = 0, frame = 8
ARM GAS  C:\Users\Robert\AppData\Local\Temp\ccljsDmb.s 			page 11


 338              		@ frame_needed = 1, uses_anonymous_args = 0
 339 0000 80B5     		push	{r7, lr}
 340              		.cfi_def_cfa_offset 8
 341              		.cfi_offset 7, -8
 342              		.cfi_offset 14, -4
 343 0002 82B0     		sub	sp, sp, #8
 344              		.cfi_def_cfa_offset 16
 345 0004 00AF     		add	r7, sp, #0
 346              		.cfi_def_cfa_register 7
 231:.\Generated_Source\PSoC5/ADC_SAR_Seq_1.c ****     uint8 enableInterrupts;
 232:.\Generated_Source\PSoC5/ADC_SAR_Seq_1.c **** 
 233:.\Generated_Source\PSoC5/ADC_SAR_Seq_1.c ****     ADC_SAR_Seq_1_CONTROL_REG &= ((uint8)(~ADC_SAR_Seq_1_BASE_COMPONENT_ENABLE));
 347              		.loc 1 233 0
 348 0006 114A     		ldr	r2, .L18
 349 0008 104B     		ldr	r3, .L18
 350 000a 1B78     		ldrb	r3, [r3]
 351 000c DBB2     		uxtb	r3, r3
 352 000e 23F00103 		bic	r3, r3, #1
 353 0012 DBB2     		uxtb	r3, r3
 354 0014 1370     		strb	r3, [r2]
 234:.\Generated_Source\PSoC5/ADC_SAR_Seq_1.c **** 
 235:.\Generated_Source\PSoC5/ADC_SAR_Seq_1.c ****     /* Disable Counter */
 236:.\Generated_Source\PSoC5/ADC_SAR_Seq_1.c ****     enableInterrupts = CyEnterCriticalSection();
 355              		.loc 1 236 0
 356 0016 FFF7FEFF 		bl	CyEnterCriticalSection
 357 001a 0346     		mov	r3, r0
 358 001c FB71     		strb	r3, [r7, #7]
 237:.\Generated_Source\PSoC5/ADC_SAR_Seq_1.c ****     ADC_SAR_Seq_1_CYCLE_COUNTER_AUX_CONTROL_REG &= ((uint8)(~ADC_SAR_Seq_1_CYCLE_COUNTER_ENABLE));
 359              		.loc 1 237 0
 360 001e 0C4A     		ldr	r2, .L18+4
 361 0020 0B4B     		ldr	r3, .L18+4
 362 0022 1B78     		ldrb	r3, [r3]
 363 0024 DBB2     		uxtb	r3, r3
 364 0026 23F02003 		bic	r3, r3, #32
 365 002a DBB2     		uxtb	r3, r3
 366 002c 1370     		strb	r3, [r2]
 238:.\Generated_Source\PSoC5/ADC_SAR_Seq_1.c ****     CyExitCriticalSection(enableInterrupts);
 367              		.loc 1 238 0
 368 002e FB79     		ldrb	r3, [r7, #7]	@ zero_extendqisi2
 369 0030 1846     		mov	r0, r3
 370 0032 FFF7FEFF 		bl	CyExitCriticalSection
 239:.\Generated_Source\PSoC5/ADC_SAR_Seq_1.c ****     ADC_SAR_Seq_1_COUNT_REG = 0u;
 371              		.loc 1 239 0
 372 0036 074B     		ldr	r3, .L18+8
 373 0038 0022     		movs	r2, #0
 374 003a 1A70     		strb	r2, [r3]
 240:.\Generated_Source\PSoC5/ADC_SAR_Seq_1.c **** 
 241:.\Generated_Source\PSoC5/ADC_SAR_Seq_1.c ****     ADC_SAR_Seq_1_TempBufDmaRelease();
 375              		.loc 1 241 0
 376 003c FFF7FEFF 		bl	ADC_SAR_Seq_1_TempBufDmaRelease
 242:.\Generated_Source\PSoC5/ADC_SAR_Seq_1.c ****     ADC_SAR_Seq_1_FinalBufDmaRelease();
 377              		.loc 1 242 0
 378 0040 FFF7FEFF 		bl	ADC_SAR_Seq_1_FinalBufDmaRelease
 243:.\Generated_Source\PSoC5/ADC_SAR_Seq_1.c **** }
 379              		.loc 1 243 0
 380 0044 0837     		adds	r7, r7, #8
 381              		.cfi_def_cfa_offset 8
ARM GAS  C:\Users\Robert\AppData\Local\Temp\ccljsDmb.s 			page 12


 382 0046 BD46     		mov	sp, r7
 383              		.cfi_def_cfa_register 13
 384              		@ sp needed
 385 0048 80BD     		pop	{r7, pc}
 386              	.L19:
 387 004a 00BF     		.align	2
 388              	.L18:
 389 004c 70640040 		.word	1073767536
 390 0050 9B650040 		.word	1073767835
 391 0054 7B650040 		.word	1073767803
 392              		.cfi_endproc
 393              	.LFE4:
 394              		.size	ADC_SAR_Seq_1_Disable, .-ADC_SAR_Seq_1_Disable
 395              		.section	.text.ADC_SAR_Seq_1_Init,"ax",%progbits
 396              		.align	2
 397              		.global	ADC_SAR_Seq_1_Init
 398              		.thumb
 399              		.thumb_func
 400              		.type	ADC_SAR_Seq_1_Init, %function
 401              	ADC_SAR_Seq_1_Init:
 402              	.LFB5:
 244:.\Generated_Source\PSoC5/ADC_SAR_Seq_1.c **** 
 245:.\Generated_Source\PSoC5/ADC_SAR_Seq_1.c **** 
 246:.\Generated_Source\PSoC5/ADC_SAR_Seq_1.c **** /*******************************************************************************
 247:.\Generated_Source\PSoC5/ADC_SAR_Seq_1.c **** * Function Name: ADC_SAR_Seq_1_Init
 248:.\Generated_Source\PSoC5/ADC_SAR_Seq_1.c **** ********************************************************************************
 249:.\Generated_Source\PSoC5/ADC_SAR_Seq_1.c **** *
 250:.\Generated_Source\PSoC5/ADC_SAR_Seq_1.c **** * Summary:
 251:.\Generated_Source\PSoC5/ADC_SAR_Seq_1.c **** *  Inits channels for DMA transfer. Provides loading period to the AMUX address
 252:.\Generated_Source\PSoC5/ADC_SAR_Seq_1.c **** *  selection counter
 253:.\Generated_Source\PSoC5/ADC_SAR_Seq_1.c **** *
 254:.\Generated_Source\PSoC5/ADC_SAR_Seq_1.c **** * Parameters:
 255:.\Generated_Source\PSoC5/ADC_SAR_Seq_1.c **** *  None.
 256:.\Generated_Source\PSoC5/ADC_SAR_Seq_1.c **** *
 257:.\Generated_Source\PSoC5/ADC_SAR_Seq_1.c **** * Return:
 258:.\Generated_Source\PSoC5/ADC_SAR_Seq_1.c **** *  None.
 259:.\Generated_Source\PSoC5/ADC_SAR_Seq_1.c **** *
 260:.\Generated_Source\PSoC5/ADC_SAR_Seq_1.c **** * Reentrant:
 261:.\Generated_Source\PSoC5/ADC_SAR_Seq_1.c **** *  No.
 262:.\Generated_Source\PSoC5/ADC_SAR_Seq_1.c **** *
 263:.\Generated_Source\PSoC5/ADC_SAR_Seq_1.c **** *******************************************************************************/
 264:.\Generated_Source\PSoC5/ADC_SAR_Seq_1.c **** void ADC_SAR_Seq_1_Init(void)
 265:.\Generated_Source\PSoC5/ADC_SAR_Seq_1.c **** {
 403              		.loc 1 265 0
 404              		.cfi_startproc
 405              		@ args = 0, pretend = 0, frame = 0
 406              		@ frame_needed = 1, uses_anonymous_args = 0
 407 0000 80B5     		push	{r7, lr}
 408              		.cfi_def_cfa_offset 8
 409              		.cfi_offset 7, -8
 410              		.cfi_offset 14, -4
 411 0002 00AF     		add	r7, sp, #0
 412              		.cfi_def_cfa_register 7
 266:.\Generated_Source\PSoC5/ADC_SAR_Seq_1.c ****     /* Init DMA, 2 bytes bursts, each burst requires a request */
 267:.\Generated_Source\PSoC5/ADC_SAR_Seq_1.c ****     ADC_SAR_Seq_1_tempChan = ADC_SAR_Seq_1_TempBuf_DmaInitialize(ADC_SAR_Seq_1_TEMP_BYTES_PER_BURST
 413              		.loc 1 267 0
 414 0004 0220     		movs	r0, #2
ARM GAS  C:\Users\Robert\AppData\Local\Temp\ccljsDmb.s 			page 13


 415 0006 0121     		movs	r1, #1
 416 0008 4FF48042 		mov	r2, #16384
 417 000c 41F6FF73 		movw	r3, #8191
 418 0010 FFF7FEFF 		bl	ADC_SAR_Seq_1_TempBuf_DmaInitialize
 419 0014 0346     		mov	r3, r0
 420 0016 1A46     		mov	r2, r3
 421 0018 0A4B     		ldr	r3, .L21
 422 001a 1A70     		strb	r2, [r3]
 268:.\Generated_Source\PSoC5/ADC_SAR_Seq_1.c ****         ADC_SAR_Seq_1_REQUEST_PER_BURST, (uint16)(HI16(CYDEV_PERIPH_BASE)), (uint16)(HI16(CYDEV_SRA
 269:.\Generated_Source\PSoC5/ADC_SAR_Seq_1.c **** 
 270:.\Generated_Source\PSoC5/ADC_SAR_Seq_1.c ****     /* Init DMA, (ADC_SAR_Seq_1_NUMBER_OF_CHANNELS << 1u) bytes bursts, each burst requires a reque
 271:.\Generated_Source\PSoC5/ADC_SAR_Seq_1.c ****     ADC_SAR_Seq_1_finalChan = ADC_SAR_Seq_1_FinalBuf_DmaInitialize(ADC_SAR_Seq_1_FINAL_BYTES_PER_BU
 423              		.loc 1 271 0
 424 001c 1020     		movs	r0, #16
 425 001e 0121     		movs	r1, #1
 426 0020 41F6FF72 		movw	r2, #8191
 427 0024 41F6FF73 		movw	r3, #8191
 428 0028 FFF7FEFF 		bl	ADC_SAR_Seq_1_FinalBuf_DmaInitialize
 429 002c 0346     		mov	r3, r0
 430 002e 1A46     		mov	r2, r3
 431 0030 054B     		ldr	r3, .L21+4
 432 0032 1A70     		strb	r2, [r3]
 272:.\Generated_Source\PSoC5/ADC_SAR_Seq_1.c ****         ADC_SAR_Seq_1_REQUEST_PER_BURST, (uint16)(HI16(CYDEV_SRAM_BASE)), (uint16)(HI16(CYDEV_SRAM_
 273:.\Generated_Source\PSoC5/ADC_SAR_Seq_1.c **** 
 274:.\Generated_Source\PSoC5/ADC_SAR_Seq_1.c ****     #if(ADC_SAR_Seq_1_IRQ_REMOVE == 0u)
 275:.\Generated_Source\PSoC5/ADC_SAR_Seq_1.c ****         /* Set the ISR to point to the ADC_SAR_SEQ_1_IRQ Interrupt. */
 276:.\Generated_Source\PSoC5/ADC_SAR_Seq_1.c ****         ADC_SAR_Seq_1_IRQ_SetVector(&ADC_SAR_Seq_1_ISR);
 433              		.loc 1 276 0
 434 0034 0548     		ldr	r0, .L21+8
 435 0036 FFF7FEFF 		bl	ADC_SAR_Seq_1_IRQ_SetVector
 277:.\Generated_Source\PSoC5/ADC_SAR_Seq_1.c ****         /* Set the priority. */
 278:.\Generated_Source\PSoC5/ADC_SAR_Seq_1.c ****         ADC_SAR_Seq_1_IRQ_SetPriority((uint8)ADC_SAR_Seq_1_INTC_NUMBER);
 436              		.loc 1 278 0
 437 003a 0020     		movs	r0, #0
 438 003c FFF7FEFF 		bl	ADC_SAR_Seq_1_IRQ_SetPriority
 279:.\Generated_Source\PSoC5/ADC_SAR_Seq_1.c ****     #endif   /* End ADC_SAR_Seq_1_IRQ_REMOVE */
 280:.\Generated_Source\PSoC5/ADC_SAR_Seq_1.c **** 
 281:.\Generated_Source\PSoC5/ADC_SAR_Seq_1.c **** }
 439              		.loc 1 281 0
 440 0040 80BD     		pop	{r7, pc}
 441              	.L22:
 442 0042 00BF     		.align	2
 443              	.L21:
 444 0044 14000000 		.word	ADC_SAR_Seq_1_tempChan
 445 0048 15000000 		.word	ADC_SAR_Seq_1_finalChan
 446 004c 00000000 		.word	ADC_SAR_Seq_1_ISR
 447              		.cfi_endproc
 448              	.LFE5:
 449              		.size	ADC_SAR_Seq_1_Init, .-ADC_SAR_Seq_1_Init
 450              		.section	.text.ADC_SAR_Seq_1_Enable,"ax",%progbits
 451              		.align	2
 452              		.global	ADC_SAR_Seq_1_Enable
 453              		.thumb
 454              		.thumb_func
 455              		.type	ADC_SAR_Seq_1_Enable, %function
 456              	ADC_SAR_Seq_1_Enable:
 457              	.LFB6:
ARM GAS  C:\Users\Robert\AppData\Local\Temp\ccljsDmb.s 			page 14


 282:.\Generated_Source\PSoC5/ADC_SAR_Seq_1.c **** 
 283:.\Generated_Source\PSoC5/ADC_SAR_Seq_1.c **** 
 284:.\Generated_Source\PSoC5/ADC_SAR_Seq_1.c **** /*******************************************************************************
 285:.\Generated_Source\PSoC5/ADC_SAR_Seq_1.c **** * Function Name: ADC_SAR_Seq_1_Enable
 286:.\Generated_Source\PSoC5/ADC_SAR_Seq_1.c **** ********************************************************************************
 287:.\Generated_Source\PSoC5/ADC_SAR_Seq_1.c **** *
 288:.\Generated_Source\PSoC5/ADC_SAR_Seq_1.c **** * Summary:
 289:.\Generated_Source\PSoC5/ADC_SAR_Seq_1.c **** *  Enables DMA channels, address selection counter and FSM of Base component
 290:.\Generated_Source\PSoC5/ADC_SAR_Seq_1.c **** *
 291:.\Generated_Source\PSoC5/ADC_SAR_Seq_1.c **** * Parameters:
 292:.\Generated_Source\PSoC5/ADC_SAR_Seq_1.c **** *  None.
 293:.\Generated_Source\PSoC5/ADC_SAR_Seq_1.c **** *
 294:.\Generated_Source\PSoC5/ADC_SAR_Seq_1.c **** * Return:
 295:.\Generated_Source\PSoC5/ADC_SAR_Seq_1.c **** *  None.
 296:.\Generated_Source\PSoC5/ADC_SAR_Seq_1.c **** *
 297:.\Generated_Source\PSoC5/ADC_SAR_Seq_1.c **** * Side Effects:
 298:.\Generated_Source\PSoC5/ADC_SAR_Seq_1.c **** *  None.
 299:.\Generated_Source\PSoC5/ADC_SAR_Seq_1.c **** *
 300:.\Generated_Source\PSoC5/ADC_SAR_Seq_1.c **** * Reentrant:
 301:.\Generated_Source\PSoC5/ADC_SAR_Seq_1.c **** *  No.
 302:.\Generated_Source\PSoC5/ADC_SAR_Seq_1.c **** *
 303:.\Generated_Source\PSoC5/ADC_SAR_Seq_1.c **** *******************************************************************************/
 304:.\Generated_Source\PSoC5/ADC_SAR_Seq_1.c **** void ADC_SAR_Seq_1_Enable(void)
 305:.\Generated_Source\PSoC5/ADC_SAR_Seq_1.c **** {
 458              		.loc 1 305 0
 459              		.cfi_startproc
 460              		@ args = 0, pretend = 0, frame = 8
 461              		@ frame_needed = 1, uses_anonymous_args = 0
 462 0000 80B5     		push	{r7, lr}
 463              		.cfi_def_cfa_offset 8
 464              		.cfi_offset 7, -8
 465              		.cfi_offset 14, -4
 466 0002 82B0     		sub	sp, sp, #8
 467              		.cfi_def_cfa_offset 16
 468 0004 00AF     		add	r7, sp, #0
 469              		.cfi_def_cfa_register 7
 306:.\Generated_Source\PSoC5/ADC_SAR_Seq_1.c ****     uint8 enableInterrupts;
 307:.\Generated_Source\PSoC5/ADC_SAR_Seq_1.c **** 
 308:.\Generated_Source\PSoC5/ADC_SAR_Seq_1.c ****     ADC_SAR_Seq_1_FinalBufDmaInit();
 470              		.loc 1 308 0
 471 0006 FFF7FEFF 		bl	ADC_SAR_Seq_1_FinalBufDmaInit
 309:.\Generated_Source\PSoC5/ADC_SAR_Seq_1.c ****     ADC_SAR_Seq_1_TempBufDmaInit();
 472              		.loc 1 309 0
 473 000a FFF7FEFF 		bl	ADC_SAR_Seq_1_TempBufDmaInit
 310:.\Generated_Source\PSoC5/ADC_SAR_Seq_1.c **** 
 311:.\Generated_Source\PSoC5/ADC_SAR_Seq_1.c ****     (void) CyDmaChEnable(ADC_SAR_Seq_1_tempChan, 1u);
 474              		.loc 1 311 0
 475 000e 194B     		ldr	r3, .L24
 476 0010 1B78     		ldrb	r3, [r3]	@ zero_extendqisi2
 477 0012 1846     		mov	r0, r3
 478 0014 0121     		movs	r1, #1
 479 0016 FFF7FEFF 		bl	CyDmaChEnable
 312:.\Generated_Source\PSoC5/ADC_SAR_Seq_1.c ****     (void) CyDmaChEnable(ADC_SAR_Seq_1_finalChan, 1u);
 480              		.loc 1 312 0
 481 001a 174B     		ldr	r3, .L24+4
 482 001c 1B78     		ldrb	r3, [r3]	@ zero_extendqisi2
 483 001e 1846     		mov	r0, r3
ARM GAS  C:\Users\Robert\AppData\Local\Temp\ccljsDmb.s 			page 15


 484 0020 0121     		movs	r1, #1
 485 0022 FFF7FEFF 		bl	CyDmaChEnable
 313:.\Generated_Source\PSoC5/ADC_SAR_Seq_1.c **** 
 314:.\Generated_Source\PSoC5/ADC_SAR_Seq_1.c ****     /* Enable Counter and give Enable pulse to set an address of the last channel */
 315:.\Generated_Source\PSoC5/ADC_SAR_Seq_1.c ****     enableInterrupts = CyEnterCriticalSection();
 486              		.loc 1 315 0
 487 0026 FFF7FEFF 		bl	CyEnterCriticalSection
 488 002a 0346     		mov	r3, r0
 489 002c FB71     		strb	r3, [r7, #7]
 316:.\Generated_Source\PSoC5/ADC_SAR_Seq_1.c ****     ADC_SAR_Seq_1_CYCLE_COUNTER_AUX_CONTROL_REG |= ((uint8)(ADC_SAR_Seq_1_CYCLE_COUNTER_ENABLE));
 490              		.loc 1 316 0
 491 002e 134A     		ldr	r2, .L24+8
 492 0030 124B     		ldr	r3, .L24+8
 493 0032 1B78     		ldrb	r3, [r3]
 494 0034 DBB2     		uxtb	r3, r3
 495 0036 43F02003 		orr	r3, r3, #32
 496 003a DBB2     		uxtb	r3, r3
 497 003c 1370     		strb	r3, [r2]
 317:.\Generated_Source\PSoC5/ADC_SAR_Seq_1.c ****     CyExitCriticalSection(enableInterrupts);
 498              		.loc 1 317 0
 499 003e FB79     		ldrb	r3, [r7, #7]	@ zero_extendqisi2
 500 0040 1846     		mov	r0, r3
 501 0042 FFF7FEFF 		bl	CyExitCriticalSection
 318:.\Generated_Source\PSoC5/ADC_SAR_Seq_1.c **** 
 319:.\Generated_Source\PSoC5/ADC_SAR_Seq_1.c ****     /* Enable FSM of the Base Component */
 320:.\Generated_Source\PSoC5/ADC_SAR_Seq_1.c ****     ADC_SAR_Seq_1_CONTROL_REG |= ((uint8)(ADC_SAR_Seq_1_BASE_COMPONENT_ENABLE));
 502              		.loc 1 320 0
 503 0046 0E4A     		ldr	r2, .L24+12
 504 0048 0D4B     		ldr	r3, .L24+12
 505 004a 1B78     		ldrb	r3, [r3]
 506 004c DBB2     		uxtb	r3, r3
 507 004e 43F00103 		orr	r3, r3, #1
 508 0052 DBB2     		uxtb	r3, r3
 509 0054 1370     		strb	r3, [r2]
 321:.\Generated_Source\PSoC5/ADC_SAR_Seq_1.c ****     ADC_SAR_Seq_1_CONTROL_REG |= ((uint8)(ADC_SAR_Seq_1_LOAD_COUNTER_PERIOD));
 510              		.loc 1 321 0
 511 0056 0A4A     		ldr	r2, .L24+12
 512 0058 094B     		ldr	r3, .L24+12
 513 005a 1B78     		ldrb	r3, [r3]
 514 005c DBB2     		uxtb	r3, r3
 515 005e 43F00203 		orr	r3, r3, #2
 516 0062 DBB2     		uxtb	r3, r3
 517 0064 1370     		strb	r3, [r2]
 322:.\Generated_Source\PSoC5/ADC_SAR_Seq_1.c **** 
 323:.\Generated_Source\PSoC5/ADC_SAR_Seq_1.c ****     #if(ADC_SAR_Seq_1_IRQ_REMOVE == 0u)
 324:.\Generated_Source\PSoC5/ADC_SAR_Seq_1.c ****         /* Clear a pending interrupt */
 325:.\Generated_Source\PSoC5/ADC_SAR_Seq_1.c ****         CyIntClearPending(ADC_SAR_Seq_1_INTC_NUMBER);
 518              		.loc 1 325 0
 519 0066 074B     		ldr	r3, .L24+16
 520 0068 0122     		movs	r2, #1
 521 006a 1A60     		str	r2, [r3]
 326:.\Generated_Source\PSoC5/ADC_SAR_Seq_1.c ****     #endif   /* End ADC_SAR_Seq_1_IRQ_REMOVE */
 327:.\Generated_Source\PSoC5/ADC_SAR_Seq_1.c **** }
 522              		.loc 1 327 0
 523 006c 0837     		adds	r7, r7, #8
 524              		.cfi_def_cfa_offset 8
 525 006e BD46     		mov	sp, r7
ARM GAS  C:\Users\Robert\AppData\Local\Temp\ccljsDmb.s 			page 16


 526              		.cfi_def_cfa_register 13
 527              		@ sp needed
 528 0070 80BD     		pop	{r7, pc}
 529              	.L25:
 530 0072 00BF     		.align	2
 531              	.L24:
 532 0074 14000000 		.word	ADC_SAR_Seq_1_tempChan
 533 0078 15000000 		.word	ADC_SAR_Seq_1_finalChan
 534 007c 9B650040 		.word	1073767835
 535 0080 70640040 		.word	1073767536
 536 0084 80E200E0 		.word	-536812928
 537              		.cfi_endproc
 538              	.LFE6:
 539              		.size	ADC_SAR_Seq_1_Enable, .-ADC_SAR_Seq_1_Enable
 540              		.section	.text.ADC_SAR_Seq_1_Start,"ax",%progbits
 541              		.align	2
 542              		.global	ADC_SAR_Seq_1_Start
 543              		.thumb
 544              		.thumb_func
 545              		.type	ADC_SAR_Seq_1_Start, %function
 546              	ADC_SAR_Seq_1_Start:
 547              	.LFB7:
 328:.\Generated_Source\PSoC5/ADC_SAR_Seq_1.c **** 
 329:.\Generated_Source\PSoC5/ADC_SAR_Seq_1.c **** 
 330:.\Generated_Source\PSoC5/ADC_SAR_Seq_1.c **** /*******************************************************************************
 331:.\Generated_Source\PSoC5/ADC_SAR_Seq_1.c **** * Function Name: ADC_SAR_Seq_1_Start
 332:.\Generated_Source\PSoC5/ADC_SAR_Seq_1.c **** ********************************************************************************
 333:.\Generated_Source\PSoC5/ADC_SAR_Seq_1.c **** *
 334:.\Generated_Source\PSoC5/ADC_SAR_Seq_1.c **** * Summary:
 335:.\Generated_Source\PSoC5/ADC_SAR_Seq_1.c **** *  Starts component
 336:.\Generated_Source\PSoC5/ADC_SAR_Seq_1.c **** *
 337:.\Generated_Source\PSoC5/ADC_SAR_Seq_1.c **** * Parameters:
 338:.\Generated_Source\PSoC5/ADC_SAR_Seq_1.c **** *  None.
 339:.\Generated_Source\PSoC5/ADC_SAR_Seq_1.c **** *
 340:.\Generated_Source\PSoC5/ADC_SAR_Seq_1.c **** * Return:
 341:.\Generated_Source\PSoC5/ADC_SAR_Seq_1.c **** *  None.
 342:.\Generated_Source\PSoC5/ADC_SAR_Seq_1.c **** *
 343:.\Generated_Source\PSoC5/ADC_SAR_Seq_1.c **** * Side Effects:
 344:.\Generated_Source\PSoC5/ADC_SAR_Seq_1.c **** *  None.
 345:.\Generated_Source\PSoC5/ADC_SAR_Seq_1.c **** *
 346:.\Generated_Source\PSoC5/ADC_SAR_Seq_1.c **** * Reentrant:
 347:.\Generated_Source\PSoC5/ADC_SAR_Seq_1.c **** *  No.
 348:.\Generated_Source\PSoC5/ADC_SAR_Seq_1.c **** *
 349:.\Generated_Source\PSoC5/ADC_SAR_Seq_1.c **** *******************************************************************************/
 350:.\Generated_Source\PSoC5/ADC_SAR_Seq_1.c **** void ADC_SAR_Seq_1_Start(void)
 351:.\Generated_Source\PSoC5/ADC_SAR_Seq_1.c **** {
 548              		.loc 1 351 0
 549              		.cfi_startproc
 550              		@ args = 0, pretend = 0, frame = 0
 551              		@ frame_needed = 1, uses_anonymous_args = 0
 552 0000 80B5     		push	{r7, lr}
 553              		.cfi_def_cfa_offset 8
 554              		.cfi_offset 7, -8
 555              		.cfi_offset 14, -4
 556 0002 00AF     		add	r7, sp, #0
 557              		.cfi_def_cfa_register 7
 352:.\Generated_Source\PSoC5/ADC_SAR_Seq_1.c ****     if(ADC_SAR_Seq_1_initVar == 0u)
ARM GAS  C:\Users\Robert\AppData\Local\Temp\ccljsDmb.s 			page 17


 558              		.loc 1 352 0
 559 0004 074B     		ldr	r3, .L28
 560 0006 1B68     		ldr	r3, [r3]
 561 0008 002B     		cmp	r3, #0
 562 000a 04D1     		bne	.L27
 353:.\Generated_Source\PSoC5/ADC_SAR_Seq_1.c ****     {
 354:.\Generated_Source\PSoC5/ADC_SAR_Seq_1.c ****         ADC_SAR_Seq_1_Init();
 563              		.loc 1 354 0
 564 000c FFF7FEFF 		bl	ADC_SAR_Seq_1_Init
 355:.\Generated_Source\PSoC5/ADC_SAR_Seq_1.c ****         ADC_SAR_Seq_1_initVar = 1u;
 565              		.loc 1 355 0
 566 0010 044B     		ldr	r3, .L28
 567 0012 0122     		movs	r2, #1
 568 0014 1A60     		str	r2, [r3]
 569              	.L27:
 356:.\Generated_Source\PSoC5/ADC_SAR_Seq_1.c ****     }
 357:.\Generated_Source\PSoC5/ADC_SAR_Seq_1.c **** 
 358:.\Generated_Source\PSoC5/ADC_SAR_Seq_1.c ****     ADC_SAR_Seq_1_Enable();
 570              		.loc 1 358 0
 571 0016 FFF7FEFF 		bl	ADC_SAR_Seq_1_Enable
 359:.\Generated_Source\PSoC5/ADC_SAR_Seq_1.c ****     ADC_SAR_Seq_1_SAR_Start();
 572              		.loc 1 359 0
 573 001a FFF7FEFF 		bl	ADC_SAR_Seq_1_SAR_Start
 360:.\Generated_Source\PSoC5/ADC_SAR_Seq_1.c ****     (void) CY_GET_REG8(ADC_SAR_Seq_1_STATUS_PTR);
 574              		.loc 1 360 0
 575 001e 024B     		ldr	r3, .L28+4
 576 0020 1B78     		ldrb	r3, [r3]
 361:.\Generated_Source\PSoC5/ADC_SAR_Seq_1.c **** 
 362:.\Generated_Source\PSoC5/ADC_SAR_Seq_1.c **** }
 577              		.loc 1 362 0
 578 0022 80BD     		pop	{r7, pc}
 579              	.L29:
 580              		.align	2
 581              	.L28:
 582 0024 00000000 		.word	ADC_SAR_Seq_1_initVar
 583 0028 61640040 		.word	1073767521
 584              		.cfi_endproc
 585              	.LFE7:
 586              		.size	ADC_SAR_Seq_1_Start, .-ADC_SAR_Seq_1_Start
 587              		.section	.text.ADC_SAR_Seq_1_Stop,"ax",%progbits
 588              		.align	2
 589              		.global	ADC_SAR_Seq_1_Stop
 590              		.thumb
 591              		.thumb_func
 592              		.type	ADC_SAR_Seq_1_Stop, %function
 593              	ADC_SAR_Seq_1_Stop:
 594              	.LFB8:
 363:.\Generated_Source\PSoC5/ADC_SAR_Seq_1.c **** 
 364:.\Generated_Source\PSoC5/ADC_SAR_Seq_1.c **** 
 365:.\Generated_Source\PSoC5/ADC_SAR_Seq_1.c **** /*******************************************************************************
 366:.\Generated_Source\PSoC5/ADC_SAR_Seq_1.c **** * Function Name: ADC_SAR_Seq_1_Stop
 367:.\Generated_Source\PSoC5/ADC_SAR_Seq_1.c **** ********************************************************************************
 368:.\Generated_Source\PSoC5/ADC_SAR_Seq_1.c **** *
 369:.\Generated_Source\PSoC5/ADC_SAR_Seq_1.c **** * Summary:
 370:.\Generated_Source\PSoC5/ADC_SAR_Seq_1.c **** *  Stops component.
 371:.\Generated_Source\PSoC5/ADC_SAR_Seq_1.c **** *
 372:.\Generated_Source\PSoC5/ADC_SAR_Seq_1.c **** * Parameters:
ARM GAS  C:\Users\Robert\AppData\Local\Temp\ccljsDmb.s 			page 18


 373:.\Generated_Source\PSoC5/ADC_SAR_Seq_1.c **** *  None.
 374:.\Generated_Source\PSoC5/ADC_SAR_Seq_1.c **** *
 375:.\Generated_Source\PSoC5/ADC_SAR_Seq_1.c **** * Return:
 376:.\Generated_Source\PSoC5/ADC_SAR_Seq_1.c **** *  None.
 377:.\Generated_Source\PSoC5/ADC_SAR_Seq_1.c **** *
 378:.\Generated_Source\PSoC5/ADC_SAR_Seq_1.c **** * Side Effects:
 379:.\Generated_Source\PSoC5/ADC_SAR_Seq_1.c **** *  None.
 380:.\Generated_Source\PSoC5/ADC_SAR_Seq_1.c **** *
 381:.\Generated_Source\PSoC5/ADC_SAR_Seq_1.c **** * Reentrant:
 382:.\Generated_Source\PSoC5/ADC_SAR_Seq_1.c **** *  No.
 383:.\Generated_Source\PSoC5/ADC_SAR_Seq_1.c **** *
 384:.\Generated_Source\PSoC5/ADC_SAR_Seq_1.c **** *******************************************************************************/
 385:.\Generated_Source\PSoC5/ADC_SAR_Seq_1.c **** void ADC_SAR_Seq_1_Stop(void)
 386:.\Generated_Source\PSoC5/ADC_SAR_Seq_1.c **** {
 595              		.loc 1 386 0
 596              		.cfi_startproc
 597              		@ args = 0, pretend = 0, frame = 0
 598              		@ frame_needed = 1, uses_anonymous_args = 0
 599 0000 80B5     		push	{r7, lr}
 600              		.cfi_def_cfa_offset 8
 601              		.cfi_offset 7, -8
 602              		.cfi_offset 14, -4
 603 0002 00AF     		add	r7, sp, #0
 604              		.cfi_def_cfa_register 7
 387:.\Generated_Source\PSoC5/ADC_SAR_Seq_1.c ****     ADC_SAR_Seq_1_SAR_Stop();
 605              		.loc 1 387 0
 606 0004 FFF7FEFF 		bl	ADC_SAR_Seq_1_SAR_Stop
 388:.\Generated_Source\PSoC5/ADC_SAR_Seq_1.c ****     ADC_SAR_Seq_1_Disable();
 607              		.loc 1 388 0
 608 0008 FFF7FEFF 		bl	ADC_SAR_Seq_1_Disable
 389:.\Generated_Source\PSoC5/ADC_SAR_Seq_1.c **** }
 609              		.loc 1 389 0
 610 000c 80BD     		pop	{r7, pc}
 611              		.cfi_endproc
 612              	.LFE8:
 613              		.size	ADC_SAR_Seq_1_Stop, .-ADC_SAR_Seq_1_Stop
 614 000e 00BF     		.section	.text.ADC_SAR_Seq_1_StartConvert,"ax",%progbits
 615              		.align	2
 616              		.global	ADC_SAR_Seq_1_StartConvert
 617              		.thumb
 618              		.thumb_func
 619              		.type	ADC_SAR_Seq_1_StartConvert, %function
 620              	ADC_SAR_Seq_1_StartConvert:
 621              	.LFB9:
 390:.\Generated_Source\PSoC5/ADC_SAR_Seq_1.c **** 
 391:.\Generated_Source\PSoC5/ADC_SAR_Seq_1.c **** #if(ADC_SAR_Seq_1_SAMPLE_MODE != ADC_SAR_Seq_1_SAMPLE_MODE_HW_TRIGGERED)
 392:.\Generated_Source\PSoC5/ADC_SAR_Seq_1.c **** 
 393:.\Generated_Source\PSoC5/ADC_SAR_Seq_1.c ****     /*******************************************************************************
 394:.\Generated_Source\PSoC5/ADC_SAR_Seq_1.c ****     * Function Name: ADC_SAR_Seq_1_StartConvert
 395:.\Generated_Source\PSoC5/ADC_SAR_Seq_1.c ****     ********************************************************************************
 396:.\Generated_Source\PSoC5/ADC_SAR_Seq_1.c ****     *
 397:.\Generated_Source\PSoC5/ADC_SAR_Seq_1.c ****     * Summary:
 398:.\Generated_Source\PSoC5/ADC_SAR_Seq_1.c ****     *  When the Sample Mode parameter is set to 'Free Running', the component will
 399:.\Generated_Source\PSoC5/ADC_SAR_Seq_1.c ****     * operate in a continuous mode. The channels will be scanned continuously until
 400:.\Generated_Source\PSoC5/ADC_SAR_Seq_1.c ****     * _StopConvert()or  _Stop() is called
 401:.\Generated_Source\PSoC5/ADC_SAR_Seq_1.c ****     *
 402:.\Generated_Source\PSoC5/ADC_SAR_Seq_1.c ****     * Parameters:
ARM GAS  C:\Users\Robert\AppData\Local\Temp\ccljsDmb.s 			page 19


 403:.\Generated_Source\PSoC5/ADC_SAR_Seq_1.c ****     *  None.
 404:.\Generated_Source\PSoC5/ADC_SAR_Seq_1.c ****     *
 405:.\Generated_Source\PSoC5/ADC_SAR_Seq_1.c ****     * Return:
 406:.\Generated_Source\PSoC5/ADC_SAR_Seq_1.c ****     *  None.
 407:.\Generated_Source\PSoC5/ADC_SAR_Seq_1.c ****     *
 408:.\Generated_Source\PSoC5/ADC_SAR_Seq_1.c ****     * Side Effects:
 409:.\Generated_Source\PSoC5/ADC_SAR_Seq_1.c ****     *  None.
 410:.\Generated_Source\PSoC5/ADC_SAR_Seq_1.c ****     *
 411:.\Generated_Source\PSoC5/ADC_SAR_Seq_1.c ****     * Reentrant:
 412:.\Generated_Source\PSoC5/ADC_SAR_Seq_1.c ****     *  No.
 413:.\Generated_Source\PSoC5/ADC_SAR_Seq_1.c ****     *
 414:.\Generated_Source\PSoC5/ADC_SAR_Seq_1.c ****     *******************************************************************************/
 415:.\Generated_Source\PSoC5/ADC_SAR_Seq_1.c ****     void ADC_SAR_Seq_1_StartConvert(void)
 416:.\Generated_Source\PSoC5/ADC_SAR_Seq_1.c ****     {
 622              		.loc 1 416 0
 623              		.cfi_startproc
 624              		@ args = 0, pretend = 0, frame = 0
 625              		@ frame_needed = 1, uses_anonymous_args = 0
 626 0000 80B5     		push	{r7, lr}
 627              		.cfi_def_cfa_offset 8
 628              		.cfi_offset 7, -8
 629              		.cfi_offset 14, -4
 630 0002 00AF     		add	r7, sp, #0
 631              		.cfi_def_cfa_register 7
 417:.\Generated_Source\PSoC5/ADC_SAR_Seq_1.c ****         #if(ADC_SAR_Seq_1_SAMPLE_MODE != ADC_SAR_Seq_1_SAMPLE_MODE_FREE_RUNNING)
 418:.\Generated_Source\PSoC5/ADC_SAR_Seq_1.c **** 
 419:.\Generated_Source\PSoC5/ADC_SAR_Seq_1.c ****             ADC_SAR_Seq_1_CONTROL_REG |= ((uint8)(ADC_SAR_Seq_1_SOFTWARE_SOC_PULSE));
 420:.\Generated_Source\PSoC5/ADC_SAR_Seq_1.c **** 
 421:.\Generated_Source\PSoC5/ADC_SAR_Seq_1.c ****         #else
 422:.\Generated_Source\PSoC5/ADC_SAR_Seq_1.c **** 
 423:.\Generated_Source\PSoC5/ADC_SAR_Seq_1.c ****             ADC_SAR_Seq_1_SAR_StartConvert();
 632              		.loc 1 423 0
 633 0004 FFF7FEFF 		bl	ADC_SAR_Seq_1_SAR_StartConvert
 424:.\Generated_Source\PSoC5/ADC_SAR_Seq_1.c **** 
 425:.\Generated_Source\PSoC5/ADC_SAR_Seq_1.c ****         #endif /*
 426:.\Generated_Source\PSoC5/ADC_SAR_Seq_1.c ****                  #if(ADC_SAR_Seq_1_SAMPLE_MODE !=
 427:.\Generated_Source\PSoC5/ADC_SAR_Seq_1.c ****                  ADC_SAR_Seq_1_SAMPLE_MODE_FREE_RUNNING)
 428:.\Generated_Source\PSoC5/ADC_SAR_Seq_1.c ****                */
 429:.\Generated_Source\PSoC5/ADC_SAR_Seq_1.c ****     }
 634              		.loc 1 429 0
 635 0008 80BD     		pop	{r7, pc}
 636              		.cfi_endproc
 637              	.LFE9:
 638              		.size	ADC_SAR_Seq_1_StartConvert, .-ADC_SAR_Seq_1_StartConvert
 639 000a 00BF     		.section	.text.ADC_SAR_Seq_1_StopConvert,"ax",%progbits
 640              		.align	2
 641              		.global	ADC_SAR_Seq_1_StopConvert
 642              		.thumb
 643              		.thumb_func
 644              		.type	ADC_SAR_Seq_1_StopConvert, %function
 645              	ADC_SAR_Seq_1_StopConvert:
 646              	.LFB10:
 430:.\Generated_Source\PSoC5/ADC_SAR_Seq_1.c **** 
 431:.\Generated_Source\PSoC5/ADC_SAR_Seq_1.c **** 
 432:.\Generated_Source\PSoC5/ADC_SAR_Seq_1.c ****     /*******************************************************************************
 433:.\Generated_Source\PSoC5/ADC_SAR_Seq_1.c ****     * Function Name: ADC_SAR_Seq_1_StopConvert
 434:.\Generated_Source\PSoC5/ADC_SAR_Seq_1.c ****     ********************************************************************************
ARM GAS  C:\Users\Robert\AppData\Local\Temp\ccljsDmb.s 			page 20


 435:.\Generated_Source\PSoC5/ADC_SAR_Seq_1.c ****     *
 436:.\Generated_Source\PSoC5/ADC_SAR_Seq_1.c ****     * Summary:
 437:.\Generated_Source\PSoC5/ADC_SAR_Seq_1.c ****     *  Forces the component to stop all conversions
 438:.\Generated_Source\PSoC5/ADC_SAR_Seq_1.c ****     *
 439:.\Generated_Source\PSoC5/ADC_SAR_Seq_1.c ****     * Parameters:
 440:.\Generated_Source\PSoC5/ADC_SAR_Seq_1.c ****     *  None.
 441:.\Generated_Source\PSoC5/ADC_SAR_Seq_1.c ****     *
 442:.\Generated_Source\PSoC5/ADC_SAR_Seq_1.c ****     * Return:
 443:.\Generated_Source\PSoC5/ADC_SAR_Seq_1.c ****     *  None.
 444:.\Generated_Source\PSoC5/ADC_SAR_Seq_1.c ****     *
 445:.\Generated_Source\PSoC5/ADC_SAR_Seq_1.c ****     * Side Effects:
 446:.\Generated_Source\PSoC5/ADC_SAR_Seq_1.c ****     *  None.
 447:.\Generated_Source\PSoC5/ADC_SAR_Seq_1.c ****     *
 448:.\Generated_Source\PSoC5/ADC_SAR_Seq_1.c ****     * Reentrant:
 449:.\Generated_Source\PSoC5/ADC_SAR_Seq_1.c ****     *  No.
 450:.\Generated_Source\PSoC5/ADC_SAR_Seq_1.c ****     *
 451:.\Generated_Source\PSoC5/ADC_SAR_Seq_1.c ****     *******************************************************************************/
 452:.\Generated_Source\PSoC5/ADC_SAR_Seq_1.c ****     void ADC_SAR_Seq_1_StopConvert(void)
 453:.\Generated_Source\PSoC5/ADC_SAR_Seq_1.c ****     {
 647              		.loc 1 453 0
 648              		.cfi_startproc
 649              		@ args = 0, pretend = 0, frame = 0
 650              		@ frame_needed = 1, uses_anonymous_args = 0
 651 0000 80B5     		push	{r7, lr}
 652              		.cfi_def_cfa_offset 8
 653              		.cfi_offset 7, -8
 654              		.cfi_offset 14, -4
 655 0002 00AF     		add	r7, sp, #0
 656              		.cfi_def_cfa_register 7
 454:.\Generated_Source\PSoC5/ADC_SAR_Seq_1.c ****         ADC_SAR_Seq_1_SAR_StopConvert();
 657              		.loc 1 454 0
 658 0004 FFF7FEFF 		bl	ADC_SAR_Seq_1_SAR_StopConvert
 455:.\Generated_Source\PSoC5/ADC_SAR_Seq_1.c ****     }
 659              		.loc 1 455 0
 660 0008 80BD     		pop	{r7, pc}
 661              		.cfi_endproc
 662              	.LFE10:
 663              		.size	ADC_SAR_Seq_1_StopConvert, .-ADC_SAR_Seq_1_StopConvert
 664 000a 00BF     		.section	.text.ADC_SAR_Seq_1_IsEndConversion,"ax",%progbits
 665              		.align	2
 666              		.global	ADC_SAR_Seq_1_IsEndConversion
 667              		.thumb
 668              		.thumb_func
 669              		.type	ADC_SAR_Seq_1_IsEndConversion, %function
 670              	ADC_SAR_Seq_1_IsEndConversion:
 671              	.LFB11:
 456:.\Generated_Source\PSoC5/ADC_SAR_Seq_1.c **** 
 457:.\Generated_Source\PSoC5/ADC_SAR_Seq_1.c **** #endif /* ADC_SAR_Seq_1_SAMPLE_MODE != ADC_SAR_Seq_1_SAMPLE_MODE_HW_TRIGGERED */
 458:.\Generated_Source\PSoC5/ADC_SAR_Seq_1.c **** 
 459:.\Generated_Source\PSoC5/ADC_SAR_Seq_1.c **** 
 460:.\Generated_Source\PSoC5/ADC_SAR_Seq_1.c **** /*******************************************************************************
 461:.\Generated_Source\PSoC5/ADC_SAR_Seq_1.c **** * Function Name: ADC_SAR_Seq_1_IsEndConversion
 462:.\Generated_Source\PSoC5/ADC_SAR_Seq_1.c **** ********************************************************************************
 463:.\Generated_Source\PSoC5/ADC_SAR_Seq_1.c **** *
 464:.\Generated_Source\PSoC5/ADC_SAR_Seq_1.c **** * Summary:
 465:.\Generated_Source\PSoC5/ADC_SAR_Seq_1.c **** *  Checks for ADC end of conversion for the case one channel and end of scan
 466:.\Generated_Source\PSoC5/ADC_SAR_Seq_1.c **** *  for the case of multiple channels
ARM GAS  C:\Users\Robert\AppData\Local\Temp\ccljsDmb.s 			page 21


 467:.\Generated_Source\PSoC5/ADC_SAR_Seq_1.c **** *
 468:.\Generated_Source\PSoC5/ADC_SAR_Seq_1.c **** * Parameters:
 469:.\Generated_Source\PSoC5/ADC_SAR_Seq_1.c **** *  None.
 470:.\Generated_Source\PSoC5/ADC_SAR_Seq_1.c **** *
 471:.\Generated_Source\PSoC5/ADC_SAR_Seq_1.c **** * Return:
 472:.\Generated_Source\PSoC5/ADC_SAR_Seq_1.c **** *  None.
 473:.\Generated_Source\PSoC5/ADC_SAR_Seq_1.c **** *
 474:.\Generated_Source\PSoC5/ADC_SAR_Seq_1.c **** * Side Effects:
 475:.\Generated_Source\PSoC5/ADC_SAR_Seq_1.c **** *  None.
 476:.\Generated_Source\PSoC5/ADC_SAR_Seq_1.c **** *
 477:.\Generated_Source\PSoC5/ADC_SAR_Seq_1.c **** * Reentrant:
 478:.\Generated_Source\PSoC5/ADC_SAR_Seq_1.c **** *  No.
 479:.\Generated_Source\PSoC5/ADC_SAR_Seq_1.c **** *
 480:.\Generated_Source\PSoC5/ADC_SAR_Seq_1.c **** *******************************************************************************/
 481:.\Generated_Source\PSoC5/ADC_SAR_Seq_1.c **** uint32 ADC_SAR_Seq_1_IsEndConversion(uint8 retMode)
 482:.\Generated_Source\PSoC5/ADC_SAR_Seq_1.c **** {
 672              		.loc 1 482 0
 673              		.cfi_startproc
 674              		@ args = 0, pretend = 0, frame = 16
 675              		@ frame_needed = 1, uses_anonymous_args = 0
 676              		@ link register save eliminated.
 677 0000 80B4     		push	{r7}
 678              		.cfi_def_cfa_offset 4
 679              		.cfi_offset 7, -4
 680 0002 85B0     		sub	sp, sp, #20
 681              		.cfi_def_cfa_offset 24
 682 0004 00AF     		add	r7, sp, #0
 683              		.cfi_def_cfa_register 7
 684 0006 0346     		mov	r3, r0
 685 0008 FB71     		strb	r3, [r7, #7]
 686              	.L35:
 483:.\Generated_Source\PSoC5/ADC_SAR_Seq_1.c ****     uint8 status;
 484:.\Generated_Source\PSoC5/ADC_SAR_Seq_1.c **** 
 485:.\Generated_Source\PSoC5/ADC_SAR_Seq_1.c ****     do
 486:.\Generated_Source\PSoC5/ADC_SAR_Seq_1.c ****     {
 487:.\Generated_Source\PSoC5/ADC_SAR_Seq_1.c ****       status = ADC_SAR_Seq_1_STATUS_REG;
 687              		.loc 1 487 0 discriminator 2
 688 000a 084B     		ldr	r3, .L37
 689 000c 1B78     		ldrb	r3, [r3]
 690 000e FB73     		strb	r3, [r7, #15]
 488:.\Generated_Source\PSoC5/ADC_SAR_Seq_1.c ****     } while ((status == 0u) && (retMode == ADC_SAR_Seq_1_WAIT_FOR_RESULT));
 691              		.loc 1 488 0 discriminator 2
 692 0010 FB7B     		ldrb	r3, [r7, #15]	@ zero_extendqisi2
 693 0012 002B     		cmp	r3, #0
 694 0014 02D1     		bne	.L34
 695              		.loc 1 488 0 is_stmt 0 discriminator 1
 696 0016 FB79     		ldrb	r3, [r7, #7]	@ zero_extendqisi2
 697 0018 002B     		cmp	r3, #0
 698 001a F6D0     		beq	.L35
 699              	.L34:
 489:.\Generated_Source\PSoC5/ADC_SAR_Seq_1.c **** 
 490:.\Generated_Source\PSoC5/ADC_SAR_Seq_1.c ****     return((uint32)status);
 700              		.loc 1 490 0 is_stmt 1
 701 001c FB7B     		ldrb	r3, [r7, #15]	@ zero_extendqisi2
 491:.\Generated_Source\PSoC5/ADC_SAR_Seq_1.c **** }
 702              		.loc 1 491 0
 703 001e 1846     		mov	r0, r3
ARM GAS  C:\Users\Robert\AppData\Local\Temp\ccljsDmb.s 			page 22


 704 0020 1437     		adds	r7, r7, #20
 705              		.cfi_def_cfa_offset 4
 706 0022 BD46     		mov	sp, r7
 707              		.cfi_def_cfa_register 13
 708              		@ sp needed
 709 0024 5DF8047B 		ldr	r7, [sp], #4
 710              		.cfi_restore 7
 711              		.cfi_def_cfa_offset 0
 712 0028 7047     		bx	lr
 713              	.L38:
 714 002a 00BF     		.align	2
 715              	.L37:
 716 002c 61640040 		.word	1073767521
 717              		.cfi_endproc
 718              	.LFE11:
 719              		.size	ADC_SAR_Seq_1_IsEndConversion, .-ADC_SAR_Seq_1_IsEndConversion
 720              		.section	.text.ADC_SAR_Seq_1_GetResult16,"ax",%progbits
 721              		.align	2
 722              		.global	ADC_SAR_Seq_1_GetResult16
 723              		.thumb
 724              		.thumb_func
 725              		.type	ADC_SAR_Seq_1_GetResult16, %function
 726              	ADC_SAR_Seq_1_GetResult16:
 727              	.LFB12:
 492:.\Generated_Source\PSoC5/ADC_SAR_Seq_1.c **** 
 493:.\Generated_Source\PSoC5/ADC_SAR_Seq_1.c **** 
 494:.\Generated_Source\PSoC5/ADC_SAR_Seq_1.c **** /*******************************************************************************
 495:.\Generated_Source\PSoC5/ADC_SAR_Seq_1.c **** * Function Name: ADC_SAR_Seq_1_GetResult16
 496:.\Generated_Source\PSoC5/ADC_SAR_Seq_1.c **** ********************************************************************************
 497:.\Generated_Source\PSoC5/ADC_SAR_Seq_1.c **** *
 498:.\Generated_Source\PSoC5/ADC_SAR_Seq_1.c **** * Summary:
 499:.\Generated_Source\PSoC5/ADC_SAR_Seq_1.c **** *  Returns the ADC result for channel chan
 500:.\Generated_Source\PSoC5/ADC_SAR_Seq_1.c **** *
 501:.\Generated_Source\PSoC5/ADC_SAR_Seq_1.c **** * Parameters:
 502:.\Generated_Source\PSoC5/ADC_SAR_Seq_1.c **** *  None.
 503:.\Generated_Source\PSoC5/ADC_SAR_Seq_1.c **** *
 504:.\Generated_Source\PSoC5/ADC_SAR_Seq_1.c **** * Return:
 505:.\Generated_Source\PSoC5/ADC_SAR_Seq_1.c **** *  None.
 506:.\Generated_Source\PSoC5/ADC_SAR_Seq_1.c **** *
 507:.\Generated_Source\PSoC5/ADC_SAR_Seq_1.c **** * Side Effects:
 508:.\Generated_Source\PSoC5/ADC_SAR_Seq_1.c **** *  None.
 509:.\Generated_Source\PSoC5/ADC_SAR_Seq_1.c **** *
 510:.\Generated_Source\PSoC5/ADC_SAR_Seq_1.c **** * Reentrant:
 511:.\Generated_Source\PSoC5/ADC_SAR_Seq_1.c **** *  No.
 512:.\Generated_Source\PSoC5/ADC_SAR_Seq_1.c **** *
 513:.\Generated_Source\PSoC5/ADC_SAR_Seq_1.c **** *******************************************************************************/
 514:.\Generated_Source\PSoC5/ADC_SAR_Seq_1.c **** int16 ADC_SAR_Seq_1_GetResult16(uint16 chan)
 515:.\Generated_Source\PSoC5/ADC_SAR_Seq_1.c **** {
 728              		.loc 1 515 0
 729              		.cfi_startproc
 730              		@ args = 0, pretend = 0, frame = 8
 731              		@ frame_needed = 1, uses_anonymous_args = 0
 732              		@ link register save eliminated.
 733 0000 80B4     		push	{r7}
 734              		.cfi_def_cfa_offset 4
 735              		.cfi_offset 7, -4
 736 0002 83B0     		sub	sp, sp, #12
ARM GAS  C:\Users\Robert\AppData\Local\Temp\ccljsDmb.s 			page 23


 737              		.cfi_def_cfa_offset 16
 738 0004 00AF     		add	r7, sp, #0
 739              		.cfi_def_cfa_register 7
 740 0006 0346     		mov	r3, r0
 741 0008 FB80     		strh	r3, [r7, #6]	@ movhi
 516:.\Generated_Source\PSoC5/ADC_SAR_Seq_1.c ****     return (ADC_SAR_Seq_1_finalArray[ADC_SAR_Seq_1_GET_RESULT_INDEX_OFFSET - chan] - ADC_SAR_Seq_1_
 742              		.loc 1 516 0
 743 000a FB88     		ldrh	r3, [r7, #6]
 744 000c C3F10703 		rsb	r3, r3, #7
 745 0010 084A     		ldr	r2, .L41
 746 0012 32F81330 		ldrh	r3, [r2, r3, lsl #1]
 747 0016 9AB2     		uxth	r2, r3
 748 0018 074B     		ldr	r3, .L41+4
 749 001a 1B88     		ldrh	r3, [r3]	@ movhi
 750 001c 9BB2     		uxth	r3, r3
 751 001e 9BB2     		uxth	r3, r3
 752 0020 D31A     		subs	r3, r2, r3
 753 0022 9BB2     		uxth	r3, r3
 754 0024 9BB2     		uxth	r3, r3
 755 0026 1BB2     		sxth	r3, r3
 517:.\Generated_Source\PSoC5/ADC_SAR_Seq_1.c **** }
 756              		.loc 1 517 0
 757 0028 1846     		mov	r0, r3
 758 002a 0C37     		adds	r7, r7, #12
 759              		.cfi_def_cfa_offset 4
 760 002c BD46     		mov	sp, r7
 761              		.cfi_def_cfa_register 13
 762              		@ sp needed
 763 002e 5DF8047B 		ldr	r7, [sp], #4
 764              		.cfi_restore 7
 765              		.cfi_def_cfa_offset 0
 766 0032 7047     		bx	lr
 767              	.L42:
 768              		.align	2
 769              	.L41:
 770 0034 00000000 		.word	ADC_SAR_Seq_1_finalArray
 771 0038 00000000 		.word	ADC_SAR_Seq_1_SAR_shift
 772              		.cfi_endproc
 773              	.LFE12:
 774              		.size	ADC_SAR_Seq_1_GetResult16, .-ADC_SAR_Seq_1_GetResult16
 775              		.section	.text.ADC_SAR_Seq_1_GetAdcResult,"ax",%progbits
 776              		.align	2
 777              		.global	ADC_SAR_Seq_1_GetAdcResult
 778              		.thumb
 779              		.thumb_func
 780              		.type	ADC_SAR_Seq_1_GetAdcResult, %function
 781              	ADC_SAR_Seq_1_GetAdcResult:
 782              	.LFB13:
 518:.\Generated_Source\PSoC5/ADC_SAR_Seq_1.c **** 
 519:.\Generated_Source\PSoC5/ADC_SAR_Seq_1.c **** 
 520:.\Generated_Source\PSoC5/ADC_SAR_Seq_1.c **** /*******************************************************************************
 521:.\Generated_Source\PSoC5/ADC_SAR_Seq_1.c **** * Function Name: ADC_SAR_Seq_1_GetAdcResult
 522:.\Generated_Source\PSoC5/ADC_SAR_Seq_1.c **** ********************************************************************************
 523:.\Generated_Source\PSoC5/ADC_SAR_Seq_1.c **** *
 524:.\Generated_Source\PSoC5/ADC_SAR_Seq_1.c **** * Summary:
 525:.\Generated_Source\PSoC5/ADC_SAR_Seq_1.c **** *  Gets the data available in the SAR DATA register, not the results buffer
 526:.\Generated_Source\PSoC5/ADC_SAR_Seq_1.c **** *
ARM GAS  C:\Users\Robert\AppData\Local\Temp\ccljsDmb.s 			page 24


 527:.\Generated_Source\PSoC5/ADC_SAR_Seq_1.c **** * Parameters:
 528:.\Generated_Source\PSoC5/ADC_SAR_Seq_1.c **** *  None.
 529:.\Generated_Source\PSoC5/ADC_SAR_Seq_1.c **** *
 530:.\Generated_Source\PSoC5/ADC_SAR_Seq_1.c **** * Return:
 531:.\Generated_Source\PSoC5/ADC_SAR_Seq_1.c **** *  None.
 532:.\Generated_Source\PSoC5/ADC_SAR_Seq_1.c **** *
 533:.\Generated_Source\PSoC5/ADC_SAR_Seq_1.c **** * Side Effects:
 534:.\Generated_Source\PSoC5/ADC_SAR_Seq_1.c **** *  None.
 535:.\Generated_Source\PSoC5/ADC_SAR_Seq_1.c **** *
 536:.\Generated_Source\PSoC5/ADC_SAR_Seq_1.c **** * Reentrant:
 537:.\Generated_Source\PSoC5/ADC_SAR_Seq_1.c **** *  No.
 538:.\Generated_Source\PSoC5/ADC_SAR_Seq_1.c **** *
 539:.\Generated_Source\PSoC5/ADC_SAR_Seq_1.c **** *******************************************************************************/
 540:.\Generated_Source\PSoC5/ADC_SAR_Seq_1.c **** int16 ADC_SAR_Seq_1_GetAdcResult(void)
 541:.\Generated_Source\PSoC5/ADC_SAR_Seq_1.c **** {
 783              		.loc 1 541 0
 784              		.cfi_startproc
 785              		@ args = 0, pretend = 0, frame = 0
 786              		@ frame_needed = 1, uses_anonymous_args = 0
 787 0000 80B5     		push	{r7, lr}
 788              		.cfi_def_cfa_offset 8
 789              		.cfi_offset 7, -8
 790              		.cfi_offset 14, -4
 791 0002 00AF     		add	r7, sp, #0
 792              		.cfi_def_cfa_register 7
 542:.\Generated_Source\PSoC5/ADC_SAR_Seq_1.c ****     return (ADC_SAR_Seq_1_SAR_GetResult16());
 793              		.loc 1 542 0
 794 0004 FFF7FEFF 		bl	ADC_SAR_Seq_1_SAR_GetResult16
 795 0008 0346     		mov	r3, r0
 543:.\Generated_Source\PSoC5/ADC_SAR_Seq_1.c **** }
 796              		.loc 1 543 0
 797 000a 1846     		mov	r0, r3
 798 000c 80BD     		pop	{r7, pc}
 799              		.cfi_endproc
 800              	.LFE13:
 801              		.size	ADC_SAR_Seq_1_GetAdcResult, .-ADC_SAR_Seq_1_GetAdcResult
 802 000e 00BF     		.section	.text.ADC_SAR_Seq_1_SetOffset,"ax",%progbits
 803              		.align	2
 804              		.global	ADC_SAR_Seq_1_SetOffset
 805              		.thumb
 806              		.thumb_func
 807              		.type	ADC_SAR_Seq_1_SetOffset, %function
 808              	ADC_SAR_Seq_1_SetOffset:
 809              	.LFB14:
 544:.\Generated_Source\PSoC5/ADC_SAR_Seq_1.c **** 
 545:.\Generated_Source\PSoC5/ADC_SAR_Seq_1.c **** 
 546:.\Generated_Source\PSoC5/ADC_SAR_Seq_1.c **** /*******************************************************************************
 547:.\Generated_Source\PSoC5/ADC_SAR_Seq_1.c **** * Function Name: ADC_SAR_Seq_1_SetOffset
 548:.\Generated_Source\PSoC5/ADC_SAR_Seq_1.c **** ********************************************************************************
 549:.\Generated_Source\PSoC5/ADC_SAR_Seq_1.c **** *
 550:.\Generated_Source\PSoC5/ADC_SAR_Seq_1.c **** * Summary:
 551:.\Generated_Source\PSoC5/ADC_SAR_Seq_1.c **** *  Sets the ADC offset which is used by the functions _CountsTo_uVolts(),
 552:.\Generated_Source\PSoC5/ADC_SAR_Seq_1.c **** *  _CountsTo_mVolts() and _CountsTo_Volts() to substract the offset from the
 553:.\Generated_Source\PSoC5/ADC_SAR_Seq_1.c **** *  given reading before calculating the voltage conversion
 554:.\Generated_Source\PSoC5/ADC_SAR_Seq_1.c **** *
 555:.\Generated_Source\PSoC5/ADC_SAR_Seq_1.c **** * Parameters:
 556:.\Generated_Source\PSoC5/ADC_SAR_Seq_1.c **** *  None.
ARM GAS  C:\Users\Robert\AppData\Local\Temp\ccljsDmb.s 			page 25


 557:.\Generated_Source\PSoC5/ADC_SAR_Seq_1.c **** *
 558:.\Generated_Source\PSoC5/ADC_SAR_Seq_1.c **** * Return:
 559:.\Generated_Source\PSoC5/ADC_SAR_Seq_1.c **** *  None.
 560:.\Generated_Source\PSoC5/ADC_SAR_Seq_1.c **** *
 561:.\Generated_Source\PSoC5/ADC_SAR_Seq_1.c **** * Side Effects:
 562:.\Generated_Source\PSoC5/ADC_SAR_Seq_1.c **** *  None.
 563:.\Generated_Source\PSoC5/ADC_SAR_Seq_1.c **** *
 564:.\Generated_Source\PSoC5/ADC_SAR_Seq_1.c **** * Reentrant:
 565:.\Generated_Source\PSoC5/ADC_SAR_Seq_1.c **** *  No.
 566:.\Generated_Source\PSoC5/ADC_SAR_Seq_1.c **** *
 567:.\Generated_Source\PSoC5/ADC_SAR_Seq_1.c **** *******************************************************************************/
 568:.\Generated_Source\PSoC5/ADC_SAR_Seq_1.c **** void ADC_SAR_Seq_1_SetOffset(int32 offset)
 569:.\Generated_Source\PSoC5/ADC_SAR_Seq_1.c **** {
 810              		.loc 1 569 0
 811              		.cfi_startproc
 812              		@ args = 0, pretend = 0, frame = 8
 813              		@ frame_needed = 1, uses_anonymous_args = 0
 814 0000 80B5     		push	{r7, lr}
 815              		.cfi_def_cfa_offset 8
 816              		.cfi_offset 7, -8
 817              		.cfi_offset 14, -4
 818 0002 82B0     		sub	sp, sp, #8
 819              		.cfi_def_cfa_offset 16
 820 0004 00AF     		add	r7, sp, #0
 821              		.cfi_def_cfa_register 7
 822 0006 7860     		str	r0, [r7, #4]
 570:.\Generated_Source\PSoC5/ADC_SAR_Seq_1.c ****     ADC_SAR_Seq_1_SAR_SetOffset((int16)offset);
 823              		.loc 1 570 0
 824 0008 7B68     		ldr	r3, [r7, #4]
 825 000a 9BB2     		uxth	r3, r3
 826 000c 1BB2     		sxth	r3, r3
 827 000e 1846     		mov	r0, r3
 828 0010 FFF7FEFF 		bl	ADC_SAR_Seq_1_SAR_SetOffset
 571:.\Generated_Source\PSoC5/ADC_SAR_Seq_1.c **** }
 829              		.loc 1 571 0
 830 0014 0837     		adds	r7, r7, #8
 831              		.cfi_def_cfa_offset 8
 832 0016 BD46     		mov	sp, r7
 833              		.cfi_def_cfa_register 13
 834              		@ sp needed
 835 0018 80BD     		pop	{r7, pc}
 836              		.cfi_endproc
 837              	.LFE14:
 838              		.size	ADC_SAR_Seq_1_SetOffset, .-ADC_SAR_Seq_1_SetOffset
 839 001a 00BF     		.section	.text.ADC_SAR_Seq_1_SetResolution,"ax",%progbits
 840              		.align	2
 841              		.global	ADC_SAR_Seq_1_SetResolution
 842              		.thumb
 843              		.thumb_func
 844              		.type	ADC_SAR_Seq_1_SetResolution, %function
 845              	ADC_SAR_Seq_1_SetResolution:
 846              	.LFB15:
 572:.\Generated_Source\PSoC5/ADC_SAR_Seq_1.c **** 
 573:.\Generated_Source\PSoC5/ADC_SAR_Seq_1.c **** 
 574:.\Generated_Source\PSoC5/ADC_SAR_Seq_1.c **** /*******************************************************************************
 575:.\Generated_Source\PSoC5/ADC_SAR_Seq_1.c **** * Function Name: ADC_SAR_Seq_1_SetResolution
 576:.\Generated_Source\PSoC5/ADC_SAR_Seq_1.c **** ********************************************************************************
ARM GAS  C:\Users\Robert\AppData\Local\Temp\ccljsDmb.s 			page 26


 577:.\Generated_Source\PSoC5/ADC_SAR_Seq_1.c **** *
 578:.\Generated_Source\PSoC5/ADC_SAR_Seq_1.c **** * Summary:
 579:.\Generated_Source\PSoC5/ADC_SAR_Seq_1.c **** *  Sets the Relution of the SAR.
 580:.\Generated_Source\PSoC5/ADC_SAR_Seq_1.c **** *  This function does not affect the actual conversion with PSoC5 ES1 silicon.
 581:.\Generated_Source\PSoC5/ADC_SAR_Seq_1.c **** *
 582:.\Generated_Source\PSoC5/ADC_SAR_Seq_1.c **** * Parameters:
 583:.\Generated_Source\PSoC5/ADC_SAR_Seq_1.c **** *  resolution:
 584:.\Generated_Source\PSoC5/ADC_SAR_Seq_1.c **** *  12 ->    RES12
 585:.\Generated_Source\PSoC5/ADC_SAR_Seq_1.c **** *  10 ->    RES10
 586:.\Generated_Source\PSoC5/ADC_SAR_Seq_1.c **** *  8  ->    RES8
 587:.\Generated_Source\PSoC5/ADC_SAR_Seq_1.c **** *
 588:.\Generated_Source\PSoC5/ADC_SAR_Seq_1.c **** * Return:
 589:.\Generated_Source\PSoC5/ADC_SAR_Seq_1.c **** *  None.
 590:.\Generated_Source\PSoC5/ADC_SAR_Seq_1.c **** *
 591:.\Generated_Source\PSoC5/ADC_SAR_Seq_1.c **** * Side Effects:
 592:.\Generated_Source\PSoC5/ADC_SAR_Seq_1.c **** *  The ADC_SAR_Seq resolution cannot be changed during a conversion cycle. The
 593:.\Generated_Source\PSoC5/ADC_SAR_Seq_1.c **** *  recommended best practice is to stop conversions with
 594:.\Generated_Source\PSoC5/ADC_SAR_Seq_1.c **** *  ADC_SAR_Seq_StopConvert(), change the resolution, then restart the
 595:.\Generated_Source\PSoC5/ADC_SAR_Seq_1.c **** *  conversions with ADC_SAR_Seq_StartConvert().
 596:.\Generated_Source\PSoC5/ADC_SAR_Seq_1.c **** *  If you decide not to stop conversions before calling this API, you
 597:.\Generated_Source\PSoC5/ADC_SAR_Seq_1.c **** *  should use ADC_SAR_Seq_IsEndConversion() to wait until conversion is complete
 598:.\Generated_Source\PSoC5/ADC_SAR_Seq_1.c **** *  before changing the resolution.
 599:.\Generated_Source\PSoC5/ADC_SAR_Seq_1.c **** *  If you call ADC_SetResolution() during a conversion, the resolution will
 600:.\Generated_Source\PSoC5/ADC_SAR_Seq_1.c **** *  not be changed until the current conversion is complete. Data will not be
 601:.\Generated_Source\PSoC5/ADC_SAR_Seq_1.c **** *  available in the new resolution for another 6 + "New Resolution(in bits)"
 602:.\Generated_Source\PSoC5/ADC_SAR_Seq_1.c **** *  clock cycles.
 603:.\Generated_Source\PSoC5/ADC_SAR_Seq_1.c **** *  You may need add a delay of this number of clock cycles after
 604:.\Generated_Source\PSoC5/ADC_SAR_Seq_1.c **** *  ADC_SAR_Seq_SetResolution() is called before data is valid again.
 605:.\Generated_Source\PSoC5/ADC_SAR_Seq_1.c **** *  Affects ADC_SAR_Seq_CountsTo_Volts(), ADC_SAR_Seq_CountsTo_mVolts(), and
 606:.\Generated_Source\PSoC5/ADC_SAR_Seq_1.c **** *  ADC_SAR_Seq_CountsTo_uVolts() by calculating the correct conversion between
 607:.\Generated_Source\PSoC5/ADC_SAR_Seq_1.c **** *  ADC
 608:.\Generated_Source\PSoC5/ADC_SAR_Seq_1.c **** *  counts and the applied input voltage. Calculation depends on resolution,
 609:.\Generated_Source\PSoC5/ADC_SAR_Seq_1.c **** *  input range, and voltage reference.
 610:.\Generated_Source\PSoC5/ADC_SAR_Seq_1.c **** *
 611:.\Generated_Source\PSoC5/ADC_SAR_Seq_1.c **** *******************************************************************************/
 612:.\Generated_Source\PSoC5/ADC_SAR_Seq_1.c **** void ADC_SAR_Seq_1_SetResolution(uint8 resolution)
 613:.\Generated_Source\PSoC5/ADC_SAR_Seq_1.c **** {
 847              		.loc 1 613 0
 848              		.cfi_startproc
 849              		@ args = 0, pretend = 0, frame = 8
 850              		@ frame_needed = 1, uses_anonymous_args = 0
 851 0000 80B5     		push	{r7, lr}
 852              		.cfi_def_cfa_offset 8
 853              		.cfi_offset 7, -8
 854              		.cfi_offset 14, -4
 855 0002 82B0     		sub	sp, sp, #8
 856              		.cfi_def_cfa_offset 16
 857 0004 00AF     		add	r7, sp, #0
 858              		.cfi_def_cfa_register 7
 859 0006 0346     		mov	r3, r0
 860 0008 FB71     		strb	r3, [r7, #7]
 614:.\Generated_Source\PSoC5/ADC_SAR_Seq_1.c ****     ADC_SAR_Seq_1_SAR_SetResolution(resolution);
 861              		.loc 1 614 0
 862 000a FB79     		ldrb	r3, [r7, #7]	@ zero_extendqisi2
 863 000c 1846     		mov	r0, r3
 864 000e FFF7FEFF 		bl	ADC_SAR_Seq_1_SAR_SetResolution
 615:.\Generated_Source\PSoC5/ADC_SAR_Seq_1.c **** }
ARM GAS  C:\Users\Robert\AppData\Local\Temp\ccljsDmb.s 			page 27


 865              		.loc 1 615 0
 866 0012 0837     		adds	r7, r7, #8
 867              		.cfi_def_cfa_offset 8
 868 0014 BD46     		mov	sp, r7
 869              		.cfi_def_cfa_register 13
 870              		@ sp needed
 871 0016 80BD     		pop	{r7, pc}
 872              		.cfi_endproc
 873              	.LFE15:
 874              		.size	ADC_SAR_Seq_1_SetResolution, .-ADC_SAR_Seq_1_SetResolution
 875              		.section	.text.ADC_SAR_Seq_1_SetGain,"ax",%progbits
 876              		.align	2
 877              		.global	ADC_SAR_Seq_1_SetGain
 878              		.thumb
 879              		.thumb_func
 880              		.type	ADC_SAR_Seq_1_SetGain, %function
 881              	ADC_SAR_Seq_1_SetGain:
 882              	.LFB16:
 616:.\Generated_Source\PSoC5/ADC_SAR_Seq_1.c **** 
 617:.\Generated_Source\PSoC5/ADC_SAR_Seq_1.c **** 
 618:.\Generated_Source\PSoC5/ADC_SAR_Seq_1.c **** /*******************************************************************************
 619:.\Generated_Source\PSoC5/ADC_SAR_Seq_1.c **** * Function Name: ADC_SAR_Seq_1_SetGain
 620:.\Generated_Source\PSoC5/ADC_SAR_Seq_1.c **** ********************************************************************************
 621:.\Generated_Source\PSoC5/ADC_SAR_Seq_1.c **** *
 622:.\Generated_Source\PSoC5/ADC_SAR_Seq_1.c **** * Summary:
 623:.\Generated_Source\PSoC5/ADC_SAR_Seq_1.c **** *  Sets the ADC gain in counts per volt for the voltage conversion
 624:.\Generated_Source\PSoC5/ADC_SAR_Seq_1.c **** *
 625:.\Generated_Source\PSoC5/ADC_SAR_Seq_1.c **** * Parameters:
 626:.\Generated_Source\PSoC5/ADC_SAR_Seq_1.c **** *  None.
 627:.\Generated_Source\PSoC5/ADC_SAR_Seq_1.c **** *
 628:.\Generated_Source\PSoC5/ADC_SAR_Seq_1.c **** * Return:
 629:.\Generated_Source\PSoC5/ADC_SAR_Seq_1.c **** *  None.
 630:.\Generated_Source\PSoC5/ADC_SAR_Seq_1.c **** *
 631:.\Generated_Source\PSoC5/ADC_SAR_Seq_1.c **** * Side Effects:
 632:.\Generated_Source\PSoC5/ADC_SAR_Seq_1.c **** *  None.
 633:.\Generated_Source\PSoC5/ADC_SAR_Seq_1.c **** *
 634:.\Generated_Source\PSoC5/ADC_SAR_Seq_1.c **** * Reentrant:
 635:.\Generated_Source\PSoC5/ADC_SAR_Seq_1.c **** *  No.
 636:.\Generated_Source\PSoC5/ADC_SAR_Seq_1.c **** *
 637:.\Generated_Source\PSoC5/ADC_SAR_Seq_1.c **** *******************************************************************************/
 638:.\Generated_Source\PSoC5/ADC_SAR_Seq_1.c **** void ADC_SAR_Seq_1_SetGain(int32 adcGain)
 639:.\Generated_Source\PSoC5/ADC_SAR_Seq_1.c **** {
 883              		.loc 1 639 0
 884              		.cfi_startproc
 885              		@ args = 0, pretend = 0, frame = 8
 886              		@ frame_needed = 1, uses_anonymous_args = 0
 887 0000 80B5     		push	{r7, lr}
 888              		.cfi_def_cfa_offset 8
 889              		.cfi_offset 7, -8
 890              		.cfi_offset 14, -4
 891 0002 82B0     		sub	sp, sp, #8
 892              		.cfi_def_cfa_offset 16
 893 0004 00AF     		add	r7, sp, #0
 894              		.cfi_def_cfa_register 7
 895 0006 7860     		str	r0, [r7, #4]
 640:.\Generated_Source\PSoC5/ADC_SAR_Seq_1.c ****     ADC_SAR_Seq_1_SAR_SetGain((int16)adcGain);
 896              		.loc 1 640 0
ARM GAS  C:\Users\Robert\AppData\Local\Temp\ccljsDmb.s 			page 28


 897 0008 7B68     		ldr	r3, [r7, #4]
 898 000a 9BB2     		uxth	r3, r3
 899 000c 1BB2     		sxth	r3, r3
 900 000e 1846     		mov	r0, r3
 901 0010 FFF7FEFF 		bl	ADC_SAR_Seq_1_SAR_SetGain
 641:.\Generated_Source\PSoC5/ADC_SAR_Seq_1.c **** }
 902              		.loc 1 641 0
 903 0014 0837     		adds	r7, r7, #8
 904              		.cfi_def_cfa_offset 8
 905 0016 BD46     		mov	sp, r7
 906              		.cfi_def_cfa_register 13
 907              		@ sp needed
 908 0018 80BD     		pop	{r7, pc}
 909              		.cfi_endproc
 910              	.LFE16:
 911              		.size	ADC_SAR_Seq_1_SetGain, .-ADC_SAR_Seq_1_SetGain
 912 001a 00BF     		.section	.text.ADC_SAR_Seq_1_SetScaledGain,"ax",%progbits
 913              		.align	2
 914              		.global	ADC_SAR_Seq_1_SetScaledGain
 915              		.thumb
 916              		.thumb_func
 917              		.type	ADC_SAR_Seq_1_SetScaledGain, %function
 918              	ADC_SAR_Seq_1_SetScaledGain:
 919              	.LFB17:
 642:.\Generated_Source\PSoC5/ADC_SAR_Seq_1.c **** 
 643:.\Generated_Source\PSoC5/ADC_SAR_Seq_1.c **** 
 644:.\Generated_Source\PSoC5/ADC_SAR_Seq_1.c **** /*******************************************************************************
 645:.\Generated_Source\PSoC5/ADC_SAR_Seq_1.c **** * Function Name: ADC_SAR_Seq_1_SetScaledGain
 646:.\Generated_Source\PSoC5/ADC_SAR_Seq_1.c **** ********************************************************************************
 647:.\Generated_Source\PSoC5/ADC_SAR_Seq_1.c **** *
 648:.\Generated_Source\PSoC5/ADC_SAR_Seq_1.c **** * Summary:
 649:.\Generated_Source\PSoC5/ADC_SAR_Seq_1.c **** *  Sets the ADC gain in counts per 10 volts for the voltage conversion functions
 650:.\Generated_Source\PSoC5/ADC_SAR_Seq_1.c **** *  that follow. This value is set by default by the reference and input range
 651:.\Generated_Source\PSoC5/ADC_SAR_Seq_1.c **** *  settings. It should only be used to further calibrate the ADC with a known
 652:.\Generated_Source\PSoC5/ADC_SAR_Seq_1.c **** *  input or if the ADC is using an external reference.
 653:.\Generated_Source\PSoC5/ADC_SAR_Seq_1.c **** *
 654:.\Generated_Source\PSoC5/ADC_SAR_Seq_1.c **** * Parameters:
 655:.\Generated_Source\PSoC5/ADC_SAR_Seq_1.c **** *  int32  adcGain  counts per 10 volt
 656:.\Generated_Source\PSoC5/ADC_SAR_Seq_1.c **** *
 657:.\Generated_Source\PSoC5/ADC_SAR_Seq_1.c **** * Return:
 658:.\Generated_Source\PSoC5/ADC_SAR_Seq_1.c **** *  None.
 659:.\Generated_Source\PSoC5/ADC_SAR_Seq_1.c **** *
 660:.\Generated_Source\PSoC5/ADC_SAR_Seq_1.c **** * Global Variables:
 661:.\Generated_Source\PSoC5/ADC_SAR_Seq_1.c **** *  None.
 662:.\Generated_Source\PSoC5/ADC_SAR_Seq_1.c **** *
 663:.\Generated_Source\PSoC5/ADC_SAR_Seq_1.c **** *******************************************************************************/
 664:.\Generated_Source\PSoC5/ADC_SAR_Seq_1.c **** void ADC_SAR_Seq_1_SetScaledGain(int32 adcGain)
 665:.\Generated_Source\PSoC5/ADC_SAR_Seq_1.c **** {
 920              		.loc 1 665 0
 921              		.cfi_startproc
 922              		@ args = 0, pretend = 0, frame = 8
 923              		@ frame_needed = 1, uses_anonymous_args = 0
 924 0000 80B5     		push	{r7, lr}
 925              		.cfi_def_cfa_offset 8
 926              		.cfi_offset 7, -8
 927              		.cfi_offset 14, -4
 928 0002 82B0     		sub	sp, sp, #8
ARM GAS  C:\Users\Robert\AppData\Local\Temp\ccljsDmb.s 			page 29


 929              		.cfi_def_cfa_offset 16
 930 0004 00AF     		add	r7, sp, #0
 931              		.cfi_def_cfa_register 7
 932 0006 7860     		str	r0, [r7, #4]
 666:.\Generated_Source\PSoC5/ADC_SAR_Seq_1.c ****     ADC_SAR_Seq_1_SAR_SetScaledGain(adcGain);
 933              		.loc 1 666 0
 934 0008 7868     		ldr	r0, [r7, #4]
 935 000a FFF7FEFF 		bl	ADC_SAR_Seq_1_SAR_SetScaledGain
 667:.\Generated_Source\PSoC5/ADC_SAR_Seq_1.c **** }
 936              		.loc 1 667 0
 937 000e 0837     		adds	r7, r7, #8
 938              		.cfi_def_cfa_offset 8
 939 0010 BD46     		mov	sp, r7
 940              		.cfi_def_cfa_register 13
 941              		@ sp needed
 942 0012 80BD     		pop	{r7, pc}
 943              		.cfi_endproc
 944              	.LFE17:
 945              		.size	ADC_SAR_Seq_1_SetScaledGain, .-ADC_SAR_Seq_1_SetScaledGain
 946              		.section	.text.ADC_SAR_Seq_1_CountsTo_mVolts,"ax",%progbits
 947              		.align	2
 948              		.global	ADC_SAR_Seq_1_CountsTo_mVolts
 949              		.thumb
 950              		.thumb_func
 951              		.type	ADC_SAR_Seq_1_CountsTo_mVolts, %function
 952              	ADC_SAR_Seq_1_CountsTo_mVolts:
 953              	.LFB18:
 668:.\Generated_Source\PSoC5/ADC_SAR_Seq_1.c **** 
 669:.\Generated_Source\PSoC5/ADC_SAR_Seq_1.c **** 
 670:.\Generated_Source\PSoC5/ADC_SAR_Seq_1.c **** /*******************************************************************************
 671:.\Generated_Source\PSoC5/ADC_SAR_Seq_1.c **** * Function Name: ADC_SAR_Seq_1_CountsTo_mVolts
 672:.\Generated_Source\PSoC5/ADC_SAR_Seq_1.c **** ********************************************************************************
 673:.\Generated_Source\PSoC5/ADC_SAR_Seq_1.c **** *
 674:.\Generated_Source\PSoC5/ADC_SAR_Seq_1.c **** * Summary:
 675:.\Generated_Source\PSoC5/ADC_SAR_Seq_1.c **** *  Converts the ADC output to mVolts as a 32-bit integer
 676:.\Generated_Source\PSoC5/ADC_SAR_Seq_1.c **** *
 677:.\Generated_Source\PSoC5/ADC_SAR_Seq_1.c **** * Parameters:
 678:.\Generated_Source\PSoC5/ADC_SAR_Seq_1.c **** *  None.
 679:.\Generated_Source\PSoC5/ADC_SAR_Seq_1.c **** *
 680:.\Generated_Source\PSoC5/ADC_SAR_Seq_1.c **** * Return:
 681:.\Generated_Source\PSoC5/ADC_SAR_Seq_1.c **** *  None.
 682:.\Generated_Source\PSoC5/ADC_SAR_Seq_1.c **** *
 683:.\Generated_Source\PSoC5/ADC_SAR_Seq_1.c **** * Side Effects:
 684:.\Generated_Source\PSoC5/ADC_SAR_Seq_1.c **** *  None.
 685:.\Generated_Source\PSoC5/ADC_SAR_Seq_1.c **** *
 686:.\Generated_Source\PSoC5/ADC_SAR_Seq_1.c **** * Reentrant:
 687:.\Generated_Source\PSoC5/ADC_SAR_Seq_1.c **** *  No.
 688:.\Generated_Source\PSoC5/ADC_SAR_Seq_1.c **** *
 689:.\Generated_Source\PSoC5/ADC_SAR_Seq_1.c **** *******************************************************************************/
 690:.\Generated_Source\PSoC5/ADC_SAR_Seq_1.c **** int32 ADC_SAR_Seq_1_CountsTo_mVolts(int16 adcCounts)
 691:.\Generated_Source\PSoC5/ADC_SAR_Seq_1.c **** {
 954              		.loc 1 691 0
 955              		.cfi_startproc
 956              		@ args = 0, pretend = 0, frame = 8
 957              		@ frame_needed = 1, uses_anonymous_args = 0
 958 0000 80B5     		push	{r7, lr}
 959              		.cfi_def_cfa_offset 8
ARM GAS  C:\Users\Robert\AppData\Local\Temp\ccljsDmb.s 			page 30


 960              		.cfi_offset 7, -8
 961              		.cfi_offset 14, -4
 962 0002 82B0     		sub	sp, sp, #8
 963              		.cfi_def_cfa_offset 16
 964 0004 00AF     		add	r7, sp, #0
 965              		.cfi_def_cfa_register 7
 966 0006 0346     		mov	r3, r0
 967 0008 FB80     		strh	r3, [r7, #6]	@ movhi
 692:.\Generated_Source\PSoC5/ADC_SAR_Seq_1.c ****     return ((int32) ADC_SAR_Seq_1_SAR_CountsTo_mVolts(adcCounts));
 968              		.loc 1 692 0
 969 000a B7F90630 		ldrsh	r3, [r7, #6]
 970 000e 1846     		mov	r0, r3
 971 0010 FFF7FEFF 		bl	ADC_SAR_Seq_1_SAR_CountsTo_mVolts
 972 0014 0346     		mov	r3, r0
 693:.\Generated_Source\PSoC5/ADC_SAR_Seq_1.c **** }
 973              		.loc 1 693 0
 974 0016 1846     		mov	r0, r3
 975 0018 0837     		adds	r7, r7, #8
 976              		.cfi_def_cfa_offset 8
 977 001a BD46     		mov	sp, r7
 978              		.cfi_def_cfa_register 13
 979              		@ sp needed
 980 001c 80BD     		pop	{r7, pc}
 981              		.cfi_endproc
 982              	.LFE18:
 983              		.size	ADC_SAR_Seq_1_CountsTo_mVolts, .-ADC_SAR_Seq_1_CountsTo_mVolts
 984 001e 00BF     		.section	.text.ADC_SAR_Seq_1_CountsTo_uVolts,"ax",%progbits
 985              		.align	2
 986              		.global	ADC_SAR_Seq_1_CountsTo_uVolts
 987              		.thumb
 988              		.thumb_func
 989              		.type	ADC_SAR_Seq_1_CountsTo_uVolts, %function
 990              	ADC_SAR_Seq_1_CountsTo_uVolts:
 991              	.LFB19:
 694:.\Generated_Source\PSoC5/ADC_SAR_Seq_1.c **** 
 695:.\Generated_Source\PSoC5/ADC_SAR_Seq_1.c **** 
 696:.\Generated_Source\PSoC5/ADC_SAR_Seq_1.c **** /*******************************************************************************
 697:.\Generated_Source\PSoC5/ADC_SAR_Seq_1.c **** * Function Name: ADC_SAR_Seq_1_CountsTo_uVolts
 698:.\Generated_Source\PSoC5/ADC_SAR_Seq_1.c **** ********************************************************************************
 699:.\Generated_Source\PSoC5/ADC_SAR_Seq_1.c **** *
 700:.\Generated_Source\PSoC5/ADC_SAR_Seq_1.c **** * Summary:
 701:.\Generated_Source\PSoC5/ADC_SAR_Seq_1.c **** *  Converts the ADC output to uVolts as a 32-bit integer
 702:.\Generated_Source\PSoC5/ADC_SAR_Seq_1.c **** *
 703:.\Generated_Source\PSoC5/ADC_SAR_Seq_1.c **** * Parameters:
 704:.\Generated_Source\PSoC5/ADC_SAR_Seq_1.c **** *  None.
 705:.\Generated_Source\PSoC5/ADC_SAR_Seq_1.c **** *
 706:.\Generated_Source\PSoC5/ADC_SAR_Seq_1.c **** * Return:
 707:.\Generated_Source\PSoC5/ADC_SAR_Seq_1.c **** *  None.
 708:.\Generated_Source\PSoC5/ADC_SAR_Seq_1.c **** *
 709:.\Generated_Source\PSoC5/ADC_SAR_Seq_1.c **** * Side Effects:
 710:.\Generated_Source\PSoC5/ADC_SAR_Seq_1.c **** *  None.
 711:.\Generated_Source\PSoC5/ADC_SAR_Seq_1.c **** *
 712:.\Generated_Source\PSoC5/ADC_SAR_Seq_1.c **** * Reentrant:
 713:.\Generated_Source\PSoC5/ADC_SAR_Seq_1.c **** *  No.
 714:.\Generated_Source\PSoC5/ADC_SAR_Seq_1.c **** *
 715:.\Generated_Source\PSoC5/ADC_SAR_Seq_1.c **** *******************************************************************************/
 716:.\Generated_Source\PSoC5/ADC_SAR_Seq_1.c **** int32 ADC_SAR_Seq_1_CountsTo_uVolts(int16 adcCounts)
ARM GAS  C:\Users\Robert\AppData\Local\Temp\ccljsDmb.s 			page 31


 717:.\Generated_Source\PSoC5/ADC_SAR_Seq_1.c **** {
 992              		.loc 1 717 0
 993              		.cfi_startproc
 994              		@ args = 0, pretend = 0, frame = 8
 995              		@ frame_needed = 1, uses_anonymous_args = 0
 996 0000 80B5     		push	{r7, lr}
 997              		.cfi_def_cfa_offset 8
 998              		.cfi_offset 7, -8
 999              		.cfi_offset 14, -4
 1000 0002 82B0     		sub	sp, sp, #8
 1001              		.cfi_def_cfa_offset 16
 1002 0004 00AF     		add	r7, sp, #0
 1003              		.cfi_def_cfa_register 7
 1004 0006 0346     		mov	r3, r0
 1005 0008 FB80     		strh	r3, [r7, #6]	@ movhi
 718:.\Generated_Source\PSoC5/ADC_SAR_Seq_1.c ****     return (ADC_SAR_Seq_1_SAR_CountsTo_uVolts(adcCounts));
 1006              		.loc 1 718 0
 1007 000a B7F90630 		ldrsh	r3, [r7, #6]
 1008 000e 1846     		mov	r0, r3
 1009 0010 FFF7FEFF 		bl	ADC_SAR_Seq_1_SAR_CountsTo_uVolts
 1010 0014 0346     		mov	r3, r0
 719:.\Generated_Source\PSoC5/ADC_SAR_Seq_1.c **** }
 1011              		.loc 1 719 0
 1012 0016 1846     		mov	r0, r3
 1013 0018 0837     		adds	r7, r7, #8
 1014              		.cfi_def_cfa_offset 8
 1015 001a BD46     		mov	sp, r7
 1016              		.cfi_def_cfa_register 13
 1017              		@ sp needed
 1018 001c 80BD     		pop	{r7, pc}
 1019              		.cfi_endproc
 1020              	.LFE19:
 1021              		.size	ADC_SAR_Seq_1_CountsTo_uVolts, .-ADC_SAR_Seq_1_CountsTo_uVolts
 1022 001e 00BF     		.section	.text.ADC_SAR_Seq_1_CountsTo_Volts,"ax",%progbits
 1023              		.align	2
 1024              		.global	ADC_SAR_Seq_1_CountsTo_Volts
 1025              		.thumb
 1026              		.thumb_func
 1027              		.type	ADC_SAR_Seq_1_CountsTo_Volts, %function
 1028              	ADC_SAR_Seq_1_CountsTo_Volts:
 1029              	.LFB20:
 720:.\Generated_Source\PSoC5/ADC_SAR_Seq_1.c **** 
 721:.\Generated_Source\PSoC5/ADC_SAR_Seq_1.c **** 
 722:.\Generated_Source\PSoC5/ADC_SAR_Seq_1.c **** /*******************************************************************************
 723:.\Generated_Source\PSoC5/ADC_SAR_Seq_1.c **** * Function Name: ADC_SAR_Seq_1_CountsTo_Volts
 724:.\Generated_Source\PSoC5/ADC_SAR_Seq_1.c **** ********************************************************************************
 725:.\Generated_Source\PSoC5/ADC_SAR_Seq_1.c **** *
 726:.\Generated_Source\PSoC5/ADC_SAR_Seq_1.c **** * Summary:
 727:.\Generated_Source\PSoC5/ADC_SAR_Seq_1.c **** *  Converts the ADC output to Volts as a floating point number
 728:.\Generated_Source\PSoC5/ADC_SAR_Seq_1.c **** *
 729:.\Generated_Source\PSoC5/ADC_SAR_Seq_1.c **** * Parameters:
 730:.\Generated_Source\PSoC5/ADC_SAR_Seq_1.c **** *  None.
 731:.\Generated_Source\PSoC5/ADC_SAR_Seq_1.c **** *
 732:.\Generated_Source\PSoC5/ADC_SAR_Seq_1.c **** * Return:
 733:.\Generated_Source\PSoC5/ADC_SAR_Seq_1.c **** *  None.
 734:.\Generated_Source\PSoC5/ADC_SAR_Seq_1.c **** *
 735:.\Generated_Source\PSoC5/ADC_SAR_Seq_1.c **** * Side Effects:
ARM GAS  C:\Users\Robert\AppData\Local\Temp\ccljsDmb.s 			page 32


 736:.\Generated_Source\PSoC5/ADC_SAR_Seq_1.c **** *  None.
 737:.\Generated_Source\PSoC5/ADC_SAR_Seq_1.c **** *
 738:.\Generated_Source\PSoC5/ADC_SAR_Seq_1.c **** * Reentrant:
 739:.\Generated_Source\PSoC5/ADC_SAR_Seq_1.c **** *  No.
 740:.\Generated_Source\PSoC5/ADC_SAR_Seq_1.c **** *
 741:.\Generated_Source\PSoC5/ADC_SAR_Seq_1.c **** *******************************************************************************/
 742:.\Generated_Source\PSoC5/ADC_SAR_Seq_1.c **** float32 ADC_SAR_Seq_1_CountsTo_Volts(int16 adcCounts)
 743:.\Generated_Source\PSoC5/ADC_SAR_Seq_1.c **** {
 1030              		.loc 1 743 0
 1031              		.cfi_startproc
 1032              		@ args = 0, pretend = 0, frame = 8
 1033              		@ frame_needed = 1, uses_anonymous_args = 0
 1034 0000 80B5     		push	{r7, lr}
 1035              		.cfi_def_cfa_offset 8
 1036              		.cfi_offset 7, -8
 1037              		.cfi_offset 14, -4
 1038 0002 82B0     		sub	sp, sp, #8
 1039              		.cfi_def_cfa_offset 16
 1040 0004 00AF     		add	r7, sp, #0
 1041              		.cfi_def_cfa_register 7
 1042 0006 0346     		mov	r3, r0
 1043 0008 FB80     		strh	r3, [r7, #6]	@ movhi
 744:.\Generated_Source\PSoC5/ADC_SAR_Seq_1.c ****     return (ADC_SAR_Seq_1_SAR_CountsTo_Volts(adcCounts));
 1044              		.loc 1 744 0
 1045 000a B7F90630 		ldrsh	r3, [r7, #6]
 1046 000e 1846     		mov	r0, r3
 1047 0010 FFF7FEFF 		bl	ADC_SAR_Seq_1_SAR_CountsTo_Volts
 1048 0014 0346     		mov	r3, r0
 745:.\Generated_Source\PSoC5/ADC_SAR_Seq_1.c **** }
 1049              		.loc 1 745 0
 1050 0016 1846     		mov	r0, r3
 1051 0018 0837     		adds	r7, r7, #8
 1052              		.cfi_def_cfa_offset 8
 1053 001a BD46     		mov	sp, r7
 1054              		.cfi_def_cfa_register 13
 1055              		@ sp needed
 1056 001c 80BD     		pop	{r7, pc}
 1057              		.cfi_endproc
 1058              	.LFE20:
 1059              		.size	ADC_SAR_Seq_1_CountsTo_Volts, .-ADC_SAR_Seq_1_CountsTo_Volts
 1060 001e 00BF     		.text
 1061              	.Letext0:
 1062              		.file 2 ".\\Generated_Source\\PSoC5\\cytypes.h"
 1063              		.file 3 "Generated_Source\\PSoC5/CYDMAC.H"
 1064              		.file 4 ".\\Generated_Source\\PSoC5\\ADC_SAR_Seq_1_SAR.h"