ARM GAS  C:\Users\Robert\AppData\Local\Temp\ccZodlkd.s 			page 1


   1              		.syntax unified
   2              		.cpu cortex-m3
   3              		.fpu softvfp
   4              		.eabi_attribute 20, 1
   5              		.eabi_attribute 21, 1
   6              		.eabi_attribute 23, 3
   7              		.eabi_attribute 24, 1
   8              		.eabi_attribute 25, 1
   9              		.eabi_attribute 26, 1
  10              		.eabi_attribute 30, 6
  11              		.eabi_attribute 34, 1
  12              		.eabi_attribute 18, 4
  13              		.thumb
  14              		.file	"CapSense_1.c"
  15              		.text
  16              	.Ltext0:
  17              		.cfi_sections	.debug_frame
  18              		.bss
  19              	CapSense_1_initVar:
  20 0000 00       		.space	1
  21              		.comm	CapSense_1_csv,1,1
  22              		.comm	CapSense_1_sensorIndex,1,1
  23              		.comm	CapSense_1_sensorRaw,16,4
  24              		.global	CapSense_1_sensorEnableMask
  25              		.data
  26              		.align	2
  27              		.type	CapSense_1_sensorEnableMask, %object
  28              		.size	CapSense_1_sensorEnableMask, 1
  29              	CapSense_1_sensorEnableMask:
  30 0000 FF       		.byte	-1
  31              		.global	CapSense_1_pcTable
  32              		.section	.rodata
  33              		.align	2
  34              		.type	CapSense_1_pcTable, %object
  35              		.size	CapSense_1_pcTable, 32
  36              	CapSense_1_pcTable:
  37 0000 20500040 		.word	1073762336
  38 0004 21500040 		.word	1073762337
  39 0008 22500040 		.word	1073762338
  40 000c 23500040 		.word	1073762339
  41 0010 24500040 		.word	1073762340
  42 0014 25500040 		.word	1073762341
  43 0018 05500040 		.word	1073762309
  44 001c 06500040 		.word	1073762310
  45              		.global	CapSense_1_portTable
  46              		.align	2
  47              		.type	CapSense_1_portTable, %object
  48              		.size	CapSense_1_portTable, 8
  49              	CapSense_1_portTable:
  50 0020 04       		.byte	4
  51 0021 04       		.byte	4
  52 0022 04       		.byte	4
  53 0023 04       		.byte	4
  54 0024 04       		.byte	4
  55 0025 04       		.byte	4
  56 0026 00       		.byte	0
  57 0027 00       		.byte	0
ARM GAS  C:\Users\Robert\AppData\Local\Temp\ccZodlkd.s 			page 2


  58              		.global	CapSense_1_maskTable
  59              		.align	2
  60              		.type	CapSense_1_maskTable, %object
  61              		.size	CapSense_1_maskTable, 8
  62              	CapSense_1_maskTable:
  63 0028 01       		.byte	1
  64 0029 02       		.byte	2
  65 002a 04       		.byte	4
  66 002b 08       		.byte	8
  67 002c 10       		.byte	16
  68 002d 20       		.byte	32
  69 002e 20       		.byte	32
  70 002f 40       		.byte	64
  71              		.global	CapSense_1_csTable
  72              		.align	2
  73              		.type	CapSense_1_csTable, %object
  74              		.size	CapSense_1_csTable, 32
  75              	CapSense_1_csTable:
  76 0030 06520040 		.word	1073762822
  77 0034 0E520040 		.word	1073762830
  78 0038 16520040 		.word	1073762838
  79 003c 1E520040 		.word	1073762846
  80 0040 26520040 		.word	1073762854
  81 0044 2E520040 		.word	1073762862
  82 0048 36520040 		.word	1073762870
  83 004c 7E520040 		.word	1073762942
  84              		.global	CapSense_1_idacSettings
  85              		.align	2
  86              		.type	CapSense_1_idacSettings, %object
  87              		.size	CapSense_1_idacSettings, 8
  88              	CapSense_1_idacSettings:
  89 0050 C8       		.byte	-56
  90 0051 C8       		.byte	-56
  91 0052 C8       		.byte	-56
  92 0053 C8       		.byte	-56
  93 0054 C8       		.byte	-56
  94 0055 C8       		.byte	-56
  95 0056 C8       		.byte	-56
  96 0057 C8       		.byte	-56
  97              		.global	CapSense_1_widgetResolution
  98              		.align	2
  99              		.type	CapSense_1_widgetResolution, %object
 100              		.size	CapSense_1_widgetResolution, 8
 101              	CapSense_1_widgetResolution:
 102 0058 00000000 		.space	8
 102      00000000 
 103              		.global	CapSense_1_analogSwitchDivider
 104              		.data
 105 0001 000000   		.align	2
 106              		.type	CapSense_1_analogSwitchDivider, %object
 107              		.size	CapSense_1_analogSwitchDivider, 8
 108              	CapSense_1_analogSwitchDivider:
 109 0004 0B       		.byte	11
 110 0005 0B       		.byte	11
 111 0006 0B       		.byte	11
 112 0007 0B       		.byte	11
 113 0008 0B       		.byte	11
ARM GAS  C:\Users\Robert\AppData\Local\Temp\ccZodlkd.s 			page 3


 114 0009 0B       		.byte	11
 115 000a 0B       		.byte	11
 116 000b 0B       		.byte	11
 117              		.global	CapSense_1_widgetNumber
 118              		.section	.rodata
 119              		.align	2
 120              		.type	CapSense_1_widgetNumber, %object
 121              		.size	CapSense_1_widgetNumber, 8
 122              	CapSense_1_widgetNumber:
 123 0060 00       		.byte	0
 124 0061 01       		.byte	1
 125 0062 02       		.byte	2
 126 0063 03       		.byte	3
 127 0064 04       		.byte	4
 128 0065 05       		.byte	5
 129 0066 06       		.byte	6
 130 0067 07       		.byte	7
 131              		.section	.text.CapSense_1_Init,"ax",%progbits
 132              		.align	2
 133              		.global	CapSense_1_Init
 134              		.thumb
 135              		.thumb_func
 136              		.type	CapSense_1_Init, %function
 137              	CapSense_1_Init:
 138              	.LFB0:
 139              		.file 1 ".\\Generated_Source\\PSoC5\\CapSense_1.c"
   1:.\Generated_Source\PSoC5/CapSense_1.c **** /*******************************************************************************
   2:.\Generated_Source\PSoC5/CapSense_1.c **** * File Name: CapSense_1.c
   3:.\Generated_Source\PSoC5/CapSense_1.c **** * Version 3.40
   4:.\Generated_Source\PSoC5/CapSense_1.c **** *
   5:.\Generated_Source\PSoC5/CapSense_1.c **** * Description:
   6:.\Generated_Source\PSoC5/CapSense_1.c **** *  This file provides the source code of scanning APIs for the CapSense CSD 
   7:.\Generated_Source\PSoC5/CapSense_1.c **** *  component.
   8:.\Generated_Source\PSoC5/CapSense_1.c **** *
   9:.\Generated_Source\PSoC5/CapSense_1.c **** * Note:
  10:.\Generated_Source\PSoC5/CapSense_1.c **** *
  11:.\Generated_Source\PSoC5/CapSense_1.c **** ********************************************************************************
  12:.\Generated_Source\PSoC5/CapSense_1.c **** * Copyright 2008-2013, Cypress Semiconductor Corporation.  All rights reserved.
  13:.\Generated_Source\PSoC5/CapSense_1.c **** * You may use this file only in accordance with the license, terms, conditions,
  14:.\Generated_Source\PSoC5/CapSense_1.c **** * disclaimers, and limitations in the end user license agreement accompanying
  15:.\Generated_Source\PSoC5/CapSense_1.c **** * the software package with which this file was provided.
  16:.\Generated_Source\PSoC5/CapSense_1.c **** *******************************************************************************/
  17:.\Generated_Source\PSoC5/CapSense_1.c **** 
  18:.\Generated_Source\PSoC5/CapSense_1.c **** #include "CapSense_1.h"
  19:.\Generated_Source\PSoC5/CapSense_1.c **** 
  20:.\Generated_Source\PSoC5/CapSense_1.c **** 
  21:.\Generated_Source\PSoC5/CapSense_1.c **** static uint8 CapSense_1_initVar = 0u;
  22:.\Generated_Source\PSoC5/CapSense_1.c ****             
  23:.\Generated_Source\PSoC5/CapSense_1.c **** /* Global software variables */
  24:.\Generated_Source\PSoC5/CapSense_1.c **** volatile uint8 CapSense_1_csv;            /* CapSense CSD status, control variable */
  25:.\Generated_Source\PSoC5/CapSense_1.c **** volatile uint8 CapSense_1_sensorIndex;    /* Index of scannig sensor */
  26:.\Generated_Source\PSoC5/CapSense_1.c **** 
  27:.\Generated_Source\PSoC5/CapSense_1.c **** /* AutoTunning start */
  28:.\Generated_Source\PSoC5/CapSense_1.c **** #if (CapSense_1_TUNING_METHOD == CapSense_1_AUTO_TUNING)
  29:.\Generated_Source\PSoC5/CapSense_1.c ****     uint8 CapSense_1_lowLevelTuningDone = 1u;
  30:.\Generated_Source\PSoC5/CapSense_1.c **** #endif /* (CapSense_1_TUNING_METHOD == CapSense_1_AUTO_TUNING) */
  31:.\Generated_Source\PSoC5/CapSense_1.c **** 
ARM GAS  C:\Users\Robert\AppData\Local\Temp\ccZodlkd.s 			page 4


  32:.\Generated_Source\PSoC5/CapSense_1.c **** #if (CapSense_1_CURRENT_SOURCE == CapSense_1_EXTERNAL_RB)
  33:.\Generated_Source\PSoC5/CapSense_1.c ****     uint8  CapSense_1_extRbCh0Cur = CapSense_1_RBLEED1;
  34:.\Generated_Source\PSoC5/CapSense_1.c ****     #if (CapSense_1_DESIGN_TYPE == CapSense_1_TWO_CHANNELS_DESIGN)
  35:.\Generated_Source\PSoC5/CapSense_1.c ****         uint8  CapSense_1_extRbCh1Cur = (CapSense_1_RBLEED1 + CapSense_1_TOTAL_RB_NUMBER__CH0);
  36:.\Generated_Source\PSoC5/CapSense_1.c ****     #endif /* (CapSense_1_DESIGN_TYPE == CapSense_1_TWO_CHANNELS_DESIGN)*/ 
  37:.\Generated_Source\PSoC5/CapSense_1.c **** #endif /* (CapSense_1_CURRENT_SOURCE == CapSense_1_EXTERNAL_RB) */ 
  38:.\Generated_Source\PSoC5/CapSense_1.c ****         
  39:.\Generated_Source\PSoC5/CapSense_1.c **** /* Global array of Raw Counts */
  40:.\Generated_Source\PSoC5/CapSense_1.c **** uint16 CapSense_1_sensorRaw[CapSense_1_TOTAL_SENSOR_COUNT]; 
  41:.\Generated_Source\PSoC5/CapSense_1.c **** 
  42:.\Generated_Source\PSoC5/CapSense_1.c **** uint8 CapSense_1_sensorEnableMask[(((CapSense_1_TOTAL_SENSOR_COUNT - 1u) / 8u) + 1u)] = {
  43:.\Generated_Source\PSoC5/CapSense_1.c **** 0xFFu, };
  44:.\Generated_Source\PSoC5/CapSense_1.c **** 
  45:.\Generated_Source\PSoC5/CapSense_1.c **** uint8 CYXDATA * const CYCODE CapSense_1_pcTable[] = {
  46:.\Generated_Source\PSoC5/CapSense_1.c ****     (uint8 CYXDATA *)CapSense_1_PortCH0__Button0__BTN__PC, 
  47:.\Generated_Source\PSoC5/CapSense_1.c ****     (uint8 CYXDATA *)CapSense_1_PortCH0__Button1__BTN__PC, 
  48:.\Generated_Source\PSoC5/CapSense_1.c ****     (uint8 CYXDATA *)CapSense_1_PortCH0__Button2__BTN__PC, 
  49:.\Generated_Source\PSoC5/CapSense_1.c ****     (uint8 CYXDATA *)CapSense_1_PortCH0__Button3__BTN__PC, 
  50:.\Generated_Source\PSoC5/CapSense_1.c ****     (uint8 CYXDATA *)CapSense_1_PortCH0__Button4__BTN__PC, 
  51:.\Generated_Source\PSoC5/CapSense_1.c ****     (uint8 CYXDATA *)CapSense_1_PortCH0__Button5__BTN__PC, 
  52:.\Generated_Source\PSoC5/CapSense_1.c ****     (uint8 CYXDATA *)CapSense_1_PortCH0__Button6__BTN__PC, 
  53:.\Generated_Source\PSoC5/CapSense_1.c ****     (uint8 CYXDATA *)CapSense_1_PortCH0__Button7__BTN__PC, 
  54:.\Generated_Source\PSoC5/CapSense_1.c **** };
  55:.\Generated_Source\PSoC5/CapSense_1.c **** 
  56:.\Generated_Source\PSoC5/CapSense_1.c **** const uint8 CYCODE CapSense_1_portTable[] = {
  57:.\Generated_Source\PSoC5/CapSense_1.c ****     CapSense_1_PortCH0__Button0__BTN__PORT, 
  58:.\Generated_Source\PSoC5/CapSense_1.c ****     CapSense_1_PortCH0__Button1__BTN__PORT, 
  59:.\Generated_Source\PSoC5/CapSense_1.c ****     CapSense_1_PortCH0__Button2__BTN__PORT, 
  60:.\Generated_Source\PSoC5/CapSense_1.c ****     CapSense_1_PortCH0__Button3__BTN__PORT, 
  61:.\Generated_Source\PSoC5/CapSense_1.c ****     CapSense_1_PortCH0__Button4__BTN__PORT, 
  62:.\Generated_Source\PSoC5/CapSense_1.c ****     CapSense_1_PortCH0__Button5__BTN__PORT, 
  63:.\Generated_Source\PSoC5/CapSense_1.c ****     CapSense_1_PortCH0__Button6__BTN__PORT, 
  64:.\Generated_Source\PSoC5/CapSense_1.c ****     CapSense_1_PortCH0__Button7__BTN__PORT, 
  65:.\Generated_Source\PSoC5/CapSense_1.c **** };
  66:.\Generated_Source\PSoC5/CapSense_1.c **** 
  67:.\Generated_Source\PSoC5/CapSense_1.c **** const uint8 CYCODE CapSense_1_maskTable[] = {
  68:.\Generated_Source\PSoC5/CapSense_1.c ****     CapSense_1_PortCH0__Button0__BTN__MASK,
  69:.\Generated_Source\PSoC5/CapSense_1.c ****     CapSense_1_PortCH0__Button1__BTN__MASK,
  70:.\Generated_Source\PSoC5/CapSense_1.c ****     CapSense_1_PortCH0__Button2__BTN__MASK,
  71:.\Generated_Source\PSoC5/CapSense_1.c ****     CapSense_1_PortCH0__Button3__BTN__MASK,
  72:.\Generated_Source\PSoC5/CapSense_1.c ****     CapSense_1_PortCH0__Button4__BTN__MASK,
  73:.\Generated_Source\PSoC5/CapSense_1.c ****     CapSense_1_PortCH0__Button5__BTN__MASK,
  74:.\Generated_Source\PSoC5/CapSense_1.c ****     CapSense_1_PortCH0__Button6__BTN__MASK,
  75:.\Generated_Source\PSoC5/CapSense_1.c ****     CapSense_1_PortCH0__Button7__BTN__MASK,
  76:.\Generated_Source\PSoC5/CapSense_1.c **** };
  77:.\Generated_Source\PSoC5/CapSense_1.c **** 
  78:.\Generated_Source\PSoC5/CapSense_1.c **** uint8 CYXDATA * const CYCODE CapSense_1_csTable[] = {
  79:.\Generated_Source\PSoC5/CapSense_1.c ****     (uint8 CYXDATA *)CYREG_PRT0_CAPS_SEL, (uint8 CYXDATA *)CYREG_PRT1_CAPS_SEL, (uint8 CYXDATA *)CY
  80:.\Generated_Source\PSoC5/CapSense_1.c ****     (uint8 CYXDATA *)CYREG_PRT3_CAPS_SEL, (uint8 CYXDATA *)CYREG_PRT4_CAPS_SEL, (uint8 CYXDATA *)CY
  81:.\Generated_Source\PSoC5/CapSense_1.c ****     (uint8 CYXDATA *)CYREG_PRT6_CAPS_SEL, (uint8 CYXDATA *)CYREG_PRT15_CAPS_SEL,
  82:.\Generated_Source\PSoC5/CapSense_1.c **** };
  83:.\Generated_Source\PSoC5/CapSense_1.c **** 
  84:.\Generated_Source\PSoC5/CapSense_1.c **** const uint8 CYCODE CapSense_1_idacSettings[] = {
  85:.\Generated_Source\PSoC5/CapSense_1.c ****     200u,200u,200u,200u,200u,200u,200u,200u,
  86:.\Generated_Source\PSoC5/CapSense_1.c **** };
  87:.\Generated_Source\PSoC5/CapSense_1.c **** 
  88:.\Generated_Source\PSoC5/CapSense_1.c **** const uint8 CYCODE CapSense_1_widgetResolution[] = {
ARM GAS  C:\Users\Robert\AppData\Local\Temp\ccZodlkd.s 			page 5


  89:.\Generated_Source\PSoC5/CapSense_1.c ****     CapSense_1_PWM_RESOLUTION_8_BITS,
  90:.\Generated_Source\PSoC5/CapSense_1.c ****     CapSense_1_PWM_RESOLUTION_8_BITS,
  91:.\Generated_Source\PSoC5/CapSense_1.c ****     CapSense_1_PWM_RESOLUTION_8_BITS,
  92:.\Generated_Source\PSoC5/CapSense_1.c ****     CapSense_1_PWM_RESOLUTION_8_BITS,
  93:.\Generated_Source\PSoC5/CapSense_1.c ****     CapSense_1_PWM_RESOLUTION_8_BITS,
  94:.\Generated_Source\PSoC5/CapSense_1.c ****     CapSense_1_PWM_RESOLUTION_8_BITS,
  95:.\Generated_Source\PSoC5/CapSense_1.c ****     CapSense_1_PWM_RESOLUTION_8_BITS,
  96:.\Generated_Source\PSoC5/CapSense_1.c ****     CapSense_1_PWM_RESOLUTION_8_BITS,
  97:.\Generated_Source\PSoC5/CapSense_1.c **** };
  98:.\Generated_Source\PSoC5/CapSense_1.c **** 
  99:.\Generated_Source\PSoC5/CapSense_1.c **** uint8 CapSense_1_analogSwitchDivider[CapSense_1_TOTAL_SCANSLOT_COUNT] = {
 100:.\Generated_Source\PSoC5/CapSense_1.c ****     11u, 11u, 11u, 11u, 11u, 11u, 11u, 11u, 
 101:.\Generated_Source\PSoC5/CapSense_1.c **** };
 102:.\Generated_Source\PSoC5/CapSense_1.c **** 
 103:.\Generated_Source\PSoC5/CapSense_1.c **** const uint8 CYCODE CapSense_1_widgetNumber[] = {
 104:.\Generated_Source\PSoC5/CapSense_1.c ****     0u, /* Button0__BTN */
 105:.\Generated_Source\PSoC5/CapSense_1.c ****     1u, /* Button1__BTN */
 106:.\Generated_Source\PSoC5/CapSense_1.c ****     2u, /* Button2__BTN */
 107:.\Generated_Source\PSoC5/CapSense_1.c ****     3u, /* Button3__BTN */
 108:.\Generated_Source\PSoC5/CapSense_1.c ****     4u, /* Button4__BTN */
 109:.\Generated_Source\PSoC5/CapSense_1.c ****     5u, /* Button5__BTN */
 110:.\Generated_Source\PSoC5/CapSense_1.c ****     6u, /* Button6__BTN */
 111:.\Generated_Source\PSoC5/CapSense_1.c ****     7u, /* Button7__BTN */
 112:.\Generated_Source\PSoC5/CapSense_1.c ****     
 113:.\Generated_Source\PSoC5/CapSense_1.c **** };
 114:.\Generated_Source\PSoC5/CapSense_1.c **** 
 115:.\Generated_Source\PSoC5/CapSense_1.c **** 
 116:.\Generated_Source\PSoC5/CapSense_1.c **** 
 117:.\Generated_Source\PSoC5/CapSense_1.c **** 
 118:.\Generated_Source\PSoC5/CapSense_1.c **** /*******************************************************************************
 119:.\Generated_Source\PSoC5/CapSense_1.c **** * Function Name: CapSense_1_Init
 120:.\Generated_Source\PSoC5/CapSense_1.c **** ********************************************************************************
 121:.\Generated_Source\PSoC5/CapSense_1.c **** *
 122:.\Generated_Source\PSoC5/CapSense_1.c **** * Summary:
 123:.\Generated_Source\PSoC5/CapSense_1.c **** *  Inits default CapSense configuration provided with customizer that defines 
 124:.\Generated_Source\PSoC5/CapSense_1.c **** *  mode of component operations and resets all sensors to an inactive state.
 125:.\Generated_Source\PSoC5/CapSense_1.c **** *
 126:.\Generated_Source\PSoC5/CapSense_1.c **** * Parameters:
 127:.\Generated_Source\PSoC5/CapSense_1.c **** *  None
 128:.\Generated_Source\PSoC5/CapSense_1.c **** *
 129:.\Generated_Source\PSoC5/CapSense_1.c **** * Return:
 130:.\Generated_Source\PSoC5/CapSense_1.c **** *  None
 131:.\Generated_Source\PSoC5/CapSense_1.c **** *
 132:.\Generated_Source\PSoC5/CapSense_1.c **** *******************************************************************************/
 133:.\Generated_Source\PSoC5/CapSense_1.c **** void CapSense_1_Init(void) 
 134:.\Generated_Source\PSoC5/CapSense_1.c **** {
 140              		.loc 1 134 0
 141              		.cfi_startproc
 142              		@ args = 0, pretend = 0, frame = 8
 143              		@ frame_needed = 1, uses_anonymous_args = 0
 144 0000 80B5     		push	{r7, lr}
 145              		.cfi_def_cfa_offset 8
 146              		.cfi_offset 7, -8
 147              		.cfi_offset 14, -4
 148 0002 82B0     		sub	sp, sp, #8
 149              		.cfi_def_cfa_offset 16
 150 0004 00AF     		add	r7, sp, #0
ARM GAS  C:\Users\Robert\AppData\Local\Temp\ccZodlkd.s 			page 6


 151              		.cfi_def_cfa_register 7
 135:.\Generated_Source\PSoC5/CapSense_1.c ****     #if ( (CapSense_1_PRS_OPTIONS) || \
 136:.\Generated_Source\PSoC5/CapSense_1.c ****           (CapSense_1_IMPLEMENTATION_CH0 == CapSense_1_MEASURE_IMPLEMENTATION_UDB) || \
 137:.\Generated_Source\PSoC5/CapSense_1.c ****           ( (CapSense_1_DESIGN_TYPE == CapSense_1_TWO_CHANNELS_DESIGN) && \
 138:.\Generated_Source\PSoC5/CapSense_1.c ****             (CapSense_1_IMPLEMENTATION_CH1 == CapSense_1_MEASURE_IMPLEMENTATION_UDB)) )
 139:.\Generated_Source\PSoC5/CapSense_1.c ****         
 140:.\Generated_Source\PSoC5/CapSense_1.c ****         uint8 enableInterrupts;
 141:.\Generated_Source\PSoC5/CapSense_1.c ****     #endif /* ( (CapSense_1_PRS_OPTIONS) || \
 142:.\Generated_Source\PSoC5/CapSense_1.c ****            * (CapSense_1_IMPLEMENTATION_CH0 == CapSense_1_MEASURE_IMPLEMENTATION_UDB) || \
 143:.\Generated_Source\PSoC5/CapSense_1.c ****            * ( (CapSense_1_DESIGN_TYPE == CapSense_1_TWO_CHANNELS_DESIGN) && \
 144:.\Generated_Source\PSoC5/CapSense_1.c ****            * (CapSense_1_IMPLEMENTATION_CH1 == CapSense_1_MEASURE_IMPLEMENTATION_UDB)) ) 
 145:.\Generated_Source\PSoC5/CapSense_1.c ****            */
 146:.\Generated_Source\PSoC5/CapSense_1.c ****     
 147:.\Generated_Source\PSoC5/CapSense_1.c ****     /* Clear all sensors */
 148:.\Generated_Source\PSoC5/CapSense_1.c ****     CapSense_1_ClearSensors();
 152              		.loc 1 148 0
 153 0006 FFF7FEFF 		bl	CapSense_1_ClearSensors
 149:.\Generated_Source\PSoC5/CapSense_1.c **** 
 150:.\Generated_Source\PSoC5/CapSense_1.c ****     /* Set Prescaler */
 151:.\Generated_Source\PSoC5/CapSense_1.c ****     #if (CapSense_1_PRESCALER_OPTIONS == CapSense_1_PRESCALER_UDB)
 152:.\Generated_Source\PSoC5/CapSense_1.c ****         /* Do nothing = config without prescaler */
 153:.\Generated_Source\PSoC5/CapSense_1.c ****     #elif (CapSense_1_PRESCALER_OPTIONS == CapSense_1_PRESCALER_FF)
 154:.\Generated_Source\PSoC5/CapSense_1.c ****         CapSense_1_PRESCALER_CONTROL_REG   = (CapSense_1_PRESCALER_CTRL_ENABLE |
 155:.\Generated_Source\PSoC5/CapSense_1.c ****                                                     CapSense_1_PRESCALER_CTRL_MODE_CMP);
 156:.\Generated_Source\PSoC5/CapSense_1.c ****                                                
 157:.\Generated_Source\PSoC5/CapSense_1.c ****         CapSense_1_PRESCALER_CONTROL2_REG |= CapSense_1_PRESCALER_CTRL_CMP_LESS_EQ;
 158:.\Generated_Source\PSoC5/CapSense_1.c ****     #else
 159:.\Generated_Source\PSoC5/CapSense_1.c ****         /* Do nothing = config without prescaler */
 160:.\Generated_Source\PSoC5/CapSense_1.c ****     #endif  /* (CapSense_1_PRESCALER_OPTIONS == CapSense_1_PRESCALER_UDB) */
 161:.\Generated_Source\PSoC5/CapSense_1.c **** 
 162:.\Generated_Source\PSoC5/CapSense_1.c ****     /* Set PRS */
 163:.\Generated_Source\PSoC5/CapSense_1.c ****     #if (CapSense_1_PRS_OPTIONS)
 164:.\Generated_Source\PSoC5/CapSense_1.c ****         CapSense_1_SetAnalogSwitchesSource(CapSense_1_ANALOG_SWITCHES_SRC_PRS);
 154              		.loc 1 164 0
 155 000a 0220     		movs	r0, #2
 156 000c FFF7FEFF 		bl	CapSense_1_SetAnalogSwitchesSource
 165:.\Generated_Source\PSoC5/CapSense_1.c ****     #endif /* (CapSense_1_PRS_OPTIONS) */
 166:.\Generated_Source\PSoC5/CapSense_1.c **** 
 167:.\Generated_Source\PSoC5/CapSense_1.c ****     #if (CapSense_1_PRS_OPTIONS == CapSense_1_PRS_8BITS)
 168:.\Generated_Source\PSoC5/CapSense_1.c ****         /* Aux control set FIFO as REG */
 169:.\Generated_Source\PSoC5/CapSense_1.c ****         enableInterrupts = CyEnterCriticalSection();
 170:.\Generated_Source\PSoC5/CapSense_1.c ****         CapSense_1_AUX_CONTROL_A_REG |= CapSense_1_AUXCTRL_FIFO_SINGLE_REG;
 171:.\Generated_Source\PSoC5/CapSense_1.c ****         CyExitCriticalSection(enableInterrupts);
 172:.\Generated_Source\PSoC5/CapSense_1.c ****         
 173:.\Generated_Source\PSoC5/CapSense_1.c ****         /* Write polynomial */
 174:.\Generated_Source\PSoC5/CapSense_1.c ****         CapSense_1_POLYNOM_REG   = CapSense_1_PRS8_DEFAULT_POLYNOM;
 175:.\Generated_Source\PSoC5/CapSense_1.c ****         /* Write FIFO with seed */
 176:.\Generated_Source\PSoC5/CapSense_1.c ****         CapSense_1_SEED_COPY_REG = CapSense_1_MEASURE_FULL_RANGE_LOW;
 177:.\Generated_Source\PSoC5/CapSense_1.c ****         
 178:.\Generated_Source\PSoC5/CapSense_1.c ****     #elif (CapSense_1_PRS_OPTIONS == CapSense_1_PRS_16BITS)
 179:.\Generated_Source\PSoC5/CapSense_1.c ****         /* Aux control set FIFO as REG */ 
 180:.\Generated_Source\PSoC5/CapSense_1.c ****         enableInterrupts = CyEnterCriticalSection();  
 157              		.loc 1 180 0
 158 0010 FFF7FEFF 		bl	CyEnterCriticalSection
 159 0014 0346     		mov	r3, r0
 160 0016 FB71     		strb	r3, [r7, #7]
 181:.\Generated_Source\PSoC5/CapSense_1.c ****         CapSense_1_AUX_CONTROL_A_REG |= CapSense_1_AUXCTRL_FIFO_SINGLE_REG;
ARM GAS  C:\Users\Robert\AppData\Local\Temp\ccZodlkd.s 			page 7


 161              		.loc 1 181 0
 162 0018 3B4A     		ldr	r2, .L2
 163 001a 3B4B     		ldr	r3, .L2
 164 001c 1B78     		ldrb	r3, [r3]
 165 001e DBB2     		uxtb	r3, r3
 166 0020 43F00303 		orr	r3, r3, #3
 167 0024 DBB2     		uxtb	r3, r3
 168 0026 1370     		strb	r3, [r2]
 182:.\Generated_Source\PSoC5/CapSense_1.c ****         CapSense_1_AUX_CONTROL_B_REG |= CapSense_1_AUXCTRL_FIFO_SINGLE_REG;
 169              		.loc 1 182 0
 170 0028 384A     		ldr	r2, .L2+4
 171 002a 384B     		ldr	r3, .L2+4
 172 002c 1B78     		ldrb	r3, [r3]
 173 002e DBB2     		uxtb	r3, r3
 174 0030 43F00303 		orr	r3, r3, #3
 175 0034 DBB2     		uxtb	r3, r3
 176 0036 1370     		strb	r3, [r2]
 183:.\Generated_Source\PSoC5/CapSense_1.c ****         CyExitCriticalSection(enableInterrupts);
 177              		.loc 1 183 0
 178 0038 FB79     		ldrb	r3, [r7, #7]	@ zero_extendqisi2
 179 003a 1846     		mov	r0, r3
 180 003c FFF7FEFF 		bl	CyExitCriticalSection
 184:.\Generated_Source\PSoC5/CapSense_1.c ****         
 185:.\Generated_Source\PSoC5/CapSense_1.c ****         /* Write polynomial */
 186:.\Generated_Source\PSoC5/CapSense_1.c ****         CY_SET_REG16(CapSense_1_POLYNOM_PTR, CapSense_1_PRS16_DEFAULT_POLYNOM);
 181              		.loc 1 186 0
 182 0040 334B     		ldr	r3, .L2+8
 183 0042 4FF43442 		mov	r2, #46080
 184 0046 1A80     		strh	r2, [r3]	@ movhi
 187:.\Generated_Source\PSoC5/CapSense_1.c ****         /* Write FIFO with seed */
 188:.\Generated_Source\PSoC5/CapSense_1.c ****         CY_SET_REG16(CapSense_1_SEED_COPY_PTR, CapSense_1_MEASURE_FULL_RANGE);
 185              		.loc 1 188 0
 186 0048 324B     		ldr	r3, .L2+12
 187 004a 4FF6FF72 		movw	r2, #65535
 188 004e 1A80     		strh	r2, [r3]	@ movhi
 189:.\Generated_Source\PSoC5/CapSense_1.c ****                 
 190:.\Generated_Source\PSoC5/CapSense_1.c ****     #elif (CapSense_1_PRS_OPTIONS == CapSense_1_PRS_16BITS_4X)
 191:.\Generated_Source\PSoC5/CapSense_1.c ****         /* Aux control set FIFO as REG */
 192:.\Generated_Source\PSoC5/CapSense_1.c ****         enableInterrupts = CyEnterCriticalSection();
 193:.\Generated_Source\PSoC5/CapSense_1.c ****         CapSense_1_AUX_CONTROL_A_REG  |= CapSense_1_AUXCTRL_FIFO_SINGLE_REG;
 194:.\Generated_Source\PSoC5/CapSense_1.c ****         CyExitCriticalSection(enableInterrupts);
 195:.\Generated_Source\PSoC5/CapSense_1.c ****         
 196:.\Generated_Source\PSoC5/CapSense_1.c ****         /* Write polynomial */
 197:.\Generated_Source\PSoC5/CapSense_1.c ****         CapSense_1_POLYNOM_A__D1_REG   = HI8(CapSense_1_PRS16_DEFAULT_POLYNOM);
 198:.\Generated_Source\PSoC5/CapSense_1.c ****         CapSense_1_POLYNOM_A__D0_REG   = LO8(CapSense_1_PRS16_DEFAULT_POLYNOM);
 199:.\Generated_Source\PSoC5/CapSense_1.c ****         /* Write FIFO with seed */
 200:.\Generated_Source\PSoC5/CapSense_1.c ****         CapSense_1_SEED_COPY_A__F1_REG = CapSense_1_MEASURE_FULL_RANGE_LOW;
 201:.\Generated_Source\PSoC5/CapSense_1.c ****         CapSense_1_SEED_COPY_A__F0_REG = CapSense_1_MEASURE_FULL_RANGE_LOW; 
 202:.\Generated_Source\PSoC5/CapSense_1.c ****         
 203:.\Generated_Source\PSoC5/CapSense_1.c ****     #else
 204:.\Generated_Source\PSoC5/CapSense_1.c ****         /* Do nothing = config without PRS */
 205:.\Generated_Source\PSoC5/CapSense_1.c ****     #endif  /* (CapSense_1_PRS_OPTIONS == CapSense_1_PRS_8BITS) */ 
 206:.\Generated_Source\PSoC5/CapSense_1.c ****     
 207:.\Generated_Source\PSoC5/CapSense_1.c ****     /* Set ScanSpeed */
 208:.\Generated_Source\PSoC5/CapSense_1.c ****     CapSense_1_SCANSPEED_PERIOD_REG = CapSense_1_SCANSPEED_VALUE;
 189              		.loc 1 208 0
 190 0050 314B     		ldr	r3, .L2+16
ARM GAS  C:\Users\Robert\AppData\Local\Temp\ccZodlkd.s 			page 8


 191 0052 0722     		movs	r2, #7
 192 0054 1A70     		strb	r2, [r3]
 209:.\Generated_Source\PSoC5/CapSense_1.c ****     
 210:.\Generated_Source\PSoC5/CapSense_1.c ****     /* Set the Measure */
 211:.\Generated_Source\PSoC5/CapSense_1.c ****     #if (CapSense_1_IMPLEMENTATION_CH0 == CapSense_1_MEASURE_IMPLEMENTATION_FF)
 212:.\Generated_Source\PSoC5/CapSense_1.c ****         /* Window PWM */
 213:.\Generated_Source\PSoC5/CapSense_1.c ****         CapSense_1_PWM_CH0_CONTROL_REG      = CapSense_1_MEASURE_CTRL_ENABLE;
 214:.\Generated_Source\PSoC5/CapSense_1.c ****         CapSense_1_PWM_CH0_CONTROL2_REG    |= CapSense_1_MEASURE_CTRL_PULSEWIDTH;
 215:.\Generated_Source\PSoC5/CapSense_1.c ****         CY_SET_REG16(CapSense_1_PWM_CH0_COUNTER_PTR, CapSense_1_MEASURE_FULL_RANGE);
 216:.\Generated_Source\PSoC5/CapSense_1.c ****         
 217:.\Generated_Source\PSoC5/CapSense_1.c ****         /* Raw Counter */
 218:.\Generated_Source\PSoC5/CapSense_1.c ****         CapSense_1_RAW_CH0_CONTROL_REG      = CapSense_1_MEASURE_CTRL_ENABLE;
 219:.\Generated_Source\PSoC5/CapSense_1.c ****         CapSense_1_RAW_CH0_CONTROL2_REG    |= CapSense_1_MEASURE_CTRL_PULSEWIDTH;
 220:.\Generated_Source\PSoC5/CapSense_1.c ****         CY_SET_REG16(CapSense_1_RAW_CH0_PERIOD_PTR, CapSense_1_MEASURE_FULL_RANGE);
 221:.\Generated_Source\PSoC5/CapSense_1.c ****     
 222:.\Generated_Source\PSoC5/CapSense_1.c ****     #else
 223:.\Generated_Source\PSoC5/CapSense_1.c ****         /*Window PWM and Raw Counter AUX set */
 224:.\Generated_Source\PSoC5/CapSense_1.c ****         enableInterrupts = CyEnterCriticalSection();
 193              		.loc 1 224 0
 194 0056 FFF7FEFF 		bl	CyEnterCriticalSection
 195 005a 0346     		mov	r3, r0
 196 005c FB71     		strb	r3, [r7, #7]
 225:.\Generated_Source\PSoC5/CapSense_1.c ****         CapSense_1_PWM_CH0_AUX_CONTROL_REG |= CapSense_1_AUXCTRL_FIFO_SINGLE_REG;
 197              		.loc 1 225 0
 198 005e 2F4A     		ldr	r2, .L2+20
 199 0060 2E4B     		ldr	r3, .L2+20
 200 0062 1B78     		ldrb	r3, [r3]
 201 0064 DBB2     		uxtb	r3, r3
 202 0066 43F00303 		orr	r3, r3, #3
 203 006a DBB2     		uxtb	r3, r3
 204 006c 1370     		strb	r3, [r2]
 226:.\Generated_Source\PSoC5/CapSense_1.c ****         CapSense_1_RAW_CH0_AUX_CONTROL_REG |= CapSense_1_AUXCTRL_FIFO_SINGLE_REG;
 205              		.loc 1 226 0
 206 006e 2C4A     		ldr	r2, .L2+24
 207 0070 2B4B     		ldr	r3, .L2+24
 208 0072 1B78     		ldrb	r3, [r3]
 209 0074 DBB2     		uxtb	r3, r3
 210 0076 43F00303 		orr	r3, r3, #3
 211 007a DBB2     		uxtb	r3, r3
 212 007c 1370     		strb	r3, [r2]
 227:.\Generated_Source\PSoC5/CapSense_1.c ****         CyExitCriticalSection(enableInterrupts);
 213              		.loc 1 227 0
 214 007e FB79     		ldrb	r3, [r7, #7]	@ zero_extendqisi2
 215 0080 1846     		mov	r0, r3
 216 0082 FFF7FEFF 		bl	CyExitCriticalSection
 228:.\Generated_Source\PSoC5/CapSense_1.c ****         
 229:.\Generated_Source\PSoC5/CapSense_1.c ****         /* Window PWM */
 230:.\Generated_Source\PSoC5/CapSense_1.c ****         CapSense_1_PWM_CH0_ADD_VALUE_REG    = CapSense_1_MEASURE_FULL_RANGE_LOW;
 217              		.loc 1 230 0
 218 0086 274B     		ldr	r3, .L2+28
 219 0088 FF22     		movs	r2, #255
 220 008a 1A70     		strb	r2, [r3]
 231:.\Generated_Source\PSoC5/CapSense_1.c ****         CapSense_1_PWM_CH0_PERIOD_LO_REG    = CapSense_1_MEASURE_FULL_RANGE_LOW;
 221              		.loc 1 231 0
 222 008c 264B     		ldr	r3, .L2+32
 223 008e FF22     		movs	r2, #255
 224 0090 1A70     		strb	r2, [r3]
ARM GAS  C:\Users\Robert\AppData\Local\Temp\ccZodlkd.s 			page 9


 232:.\Generated_Source\PSoC5/CapSense_1.c ****         CapSense_1_PWM_CH0_COUNTER_LO_REG   = CapSense_1_MEASURE_FULL_RANGE_LOW;
 225              		.loc 1 232 0
 226 0092 264B     		ldr	r3, .L2+36
 227 0094 FF22     		movs	r2, #255
 228 0096 1A70     		strb	r2, [r3]
 233:.\Generated_Source\PSoC5/CapSense_1.c ****         
 234:.\Generated_Source\PSoC5/CapSense_1.c ****         /* Raw Counter */
 235:.\Generated_Source\PSoC5/CapSense_1.c ****         CapSense_1_RAW_CH0_ADD_VALUE_REG    = CapSense_1_MEASURE_FULL_RANGE_LOW;
 229              		.loc 1 235 0
 230 0098 254B     		ldr	r3, .L2+40
 231 009a FF22     		movs	r2, #255
 232 009c 1A70     		strb	r2, [r3]
 236:.\Generated_Source\PSoC5/CapSense_1.c ****         CapSense_1_RAW_CH0_PERIOD_HI_REG    = CapSense_1_MEASURE_FULL_RANGE_LOW;
 233              		.loc 1 236 0
 234 009e 254B     		ldr	r3, .L2+44
 235 00a0 FF22     		movs	r2, #255
 236 00a2 1A70     		strb	r2, [r3]
 237:.\Generated_Source\PSoC5/CapSense_1.c ****         CapSense_1_RAW_CH0_PERIOD_LO_REG    = CapSense_1_MEASURE_FULL_RANGE_LOW;
 237              		.loc 1 237 0
 238 00a4 244B     		ldr	r3, .L2+48
 239 00a6 FF22     		movs	r2, #255
 240 00a8 1A70     		strb	r2, [r3]
 238:.\Generated_Source\PSoC5/CapSense_1.c ****         
 239:.\Generated_Source\PSoC5/CapSense_1.c ****     #endif  /* (CapSense_1_IMPLEMENTATION_CH0 == CapSense_1_MEASURE_IMPLEMENTATION_FF) */ 
 240:.\Generated_Source\PSoC5/CapSense_1.c ****     
 241:.\Generated_Source\PSoC5/CapSense_1.c ****     #if (CapSense_1_DESIGN_TYPE == CapSense_1_TWO_CHANNELS_DESIGN)
 242:.\Generated_Source\PSoC5/CapSense_1.c ****         #if (CapSense_1_IMPLEMENTATION_CH1 == CapSense_1_MEASURE_IMPLEMENTATION_FF)
 243:.\Generated_Source\PSoC5/CapSense_1.c ****             /* Window PWM */
 244:.\Generated_Source\PSoC5/CapSense_1.c ****             CapSense_1_PWM_CH1_CONTROL_REG      = CapSense_1_MEASURE_CTRL_ENABLE;
 245:.\Generated_Source\PSoC5/CapSense_1.c ****             CapSense_1_PWM_CH1_CONTROL2_REG    |= CapSense_1_MEASURE_CTRL_PULSEWIDTH;
 246:.\Generated_Source\PSoC5/CapSense_1.c ****             CY_SET_REG16(CapSense_1_PWM_CH1_COUNTER_PTR, CapSense_1_MEASURE_FULL_RANGE);
 247:.\Generated_Source\PSoC5/CapSense_1.c ****             
 248:.\Generated_Source\PSoC5/CapSense_1.c ****             /* Raw Counter */
 249:.\Generated_Source\PSoC5/CapSense_1.c ****             CapSense_1_RAW_CH1_CONTROL_REG      = CapSense_1_MEASURE_CTRL_ENABLE;
 250:.\Generated_Source\PSoC5/CapSense_1.c ****             CapSense_1_RAW_CH1_CONTROL2_REG    |= CapSense_1_MEASURE_CTRL_PULSEWIDTH;
 251:.\Generated_Source\PSoC5/CapSense_1.c ****             CY_SET_REG16(CapSense_1_RAW_CH1_PERIOD_PTR, CapSense_1_MEASURE_FULL_RANGE);
 252:.\Generated_Source\PSoC5/CapSense_1.c ****            
 253:.\Generated_Source\PSoC5/CapSense_1.c ****         #else
 254:.\Generated_Source\PSoC5/CapSense_1.c ****             /*Window PWM and Raw Counter AUX set */
 255:.\Generated_Source\PSoC5/CapSense_1.c ****             enableInterrupts = CyEnterCriticalSection();
 256:.\Generated_Source\PSoC5/CapSense_1.c ****             CapSense_1_PWM_CH1_AUX_CONTROL_REG |= CapSense_1_AUXCTRL_FIFO_SINGLE_REG;
 257:.\Generated_Source\PSoC5/CapSense_1.c ****             CapSense_1_RAW_CH1_AUX_CONTROL_REG |= CapSense_1_AUXCTRL_FIFO_SINGLE_REG;
 258:.\Generated_Source\PSoC5/CapSense_1.c ****             CyExitCriticalSection(enableInterrupts);
 259:.\Generated_Source\PSoC5/CapSense_1.c ****             
 260:.\Generated_Source\PSoC5/CapSense_1.c ****             /* Window PWM */
 261:.\Generated_Source\PSoC5/CapSense_1.c ****             CapSense_1_PWM_CH1_ADD_VALUE_REG    = CapSense_1_MEASURE_FULL_RANGE_LOW;
 262:.\Generated_Source\PSoC5/CapSense_1.c ****             CapSense_1_PWM_CH1_PERIOD_LO_REG    = CapSense_1_MEASURE_FULL_RANGE_LOW;
 263:.\Generated_Source\PSoC5/CapSense_1.c ****             CapSense_1_PWM_CH1_COUNTER_LO_REG   = CapSense_1_MEASURE_FULL_RANGE_LOW;
 264:.\Generated_Source\PSoC5/CapSense_1.c ****             
 265:.\Generated_Source\PSoC5/CapSense_1.c ****             /* Raw Counter */
 266:.\Generated_Source\PSoC5/CapSense_1.c ****             
 267:.\Generated_Source\PSoC5/CapSense_1.c ****             CapSense_1_RAW_CH1_ADD_VALUE_REG    = CapSense_1_MEASURE_FULL_RANGE_LOW;
 268:.\Generated_Source\PSoC5/CapSense_1.c ****             CapSense_1_RAW_CH1_PERIOD_HI_REG    = CapSense_1_MEASURE_FULL_RANGE_LOW;
 269:.\Generated_Source\PSoC5/CapSense_1.c ****             CapSense_1_RAW_CH1_PERIOD_LO_REG    = CapSense_1_MEASURE_FULL_RANGE_LOW;
 270:.\Generated_Source\PSoC5/CapSense_1.c ****             
 271:.\Generated_Source\PSoC5/CapSense_1.c ****         #endif  /* (CapSense_1_IMPLEMENTATION_CH1 == CapSense_1_MEASURE_IMPLEMENTATION_FF) */
 272:.\Generated_Source\PSoC5/CapSense_1.c ****     
ARM GAS  C:\Users\Robert\AppData\Local\Temp\ccZodlkd.s 			page 10


 273:.\Generated_Source\PSoC5/CapSense_1.c ****     #endif  /* (CapSense_1_DESIGN_TYPE == TWO_CHANNELS_DESIGN) */
 274:.\Generated_Source\PSoC5/CapSense_1.c ****     
 275:.\Generated_Source\PSoC5/CapSense_1.c ****     /* Setup ISR */
 276:.\Generated_Source\PSoC5/CapSense_1.c ****     CyIntDisable(CapSense_1_IsrCH0_ISR_NUMBER);
 241              		.loc 1 276 0
 242 00aa 244B     		ldr	r3, .L2+52
 243 00ac 0222     		movs	r2, #2
 244 00ae 1A60     		str	r2, [r3]
 277:.\Generated_Source\PSoC5/CapSense_1.c ****     (void)CyIntSetVector(CapSense_1_IsrCH0_ISR_NUMBER, &CapSense_1_IsrCH0_ISR);
 245              		.loc 1 277 0
 246 00b0 0120     		movs	r0, #1
 247 00b2 2349     		ldr	r1, .L2+56
 248 00b4 FFF7FEFF 		bl	CyIntSetVector
 278:.\Generated_Source\PSoC5/CapSense_1.c ****     CyIntSetPriority(CapSense_1_IsrCH0_ISR_NUMBER, CapSense_1_IsrCH0_ISR_PRIORITY);
 249              		.loc 1 278 0
 250 00b8 0120     		movs	r0, #1
 251 00ba 0721     		movs	r1, #7
 252 00bc FFF7FEFF 		bl	CyIntSetPriority
 279:.\Generated_Source\PSoC5/CapSense_1.c ****     
 280:.\Generated_Source\PSoC5/CapSense_1.c ****     #if (CapSense_1_DESIGN_TYPE == CapSense_1_TWO_CHANNELS_DESIGN)
 281:.\Generated_Source\PSoC5/CapSense_1.c ****         CyIntDisable(CapSense_1_IsrCH1_ISR_NUMBER);
 282:.\Generated_Source\PSoC5/CapSense_1.c ****         CyIntSetVector(CapSense_1_IsrCH1_ISR_NUMBER, CapSense_1_IsrCH1_ISR);
 283:.\Generated_Source\PSoC5/CapSense_1.c ****         CyIntSetPriority(CapSense_1_IsrCH1_ISR_NUMBER, CapSense_1_IsrCH1_ISR_PRIORITY);
 284:.\Generated_Source\PSoC5/CapSense_1.c ****     #endif  /* CapSense_1_DESIGN_TYPE */
 285:.\Generated_Source\PSoC5/CapSense_1.c ****     
 286:.\Generated_Source\PSoC5/CapSense_1.c ****     /* Setup AMux Bus: Connect Cmod, Cmp, Idac */
 287:.\Generated_Source\PSoC5/CapSense_1.c ****     CapSense_1_AMuxCH0_Init();
 253              		.loc 1 287 0
 254 00c0 FFF7FEFF 		bl	CapSense_1_AMuxCH0_Init
 288:.\Generated_Source\PSoC5/CapSense_1.c ****     CapSense_1_AMuxCH0_Connect(CapSense_1_AMuxCH0_CMOD_CHANNEL);
 255              		.loc 1 288 0
 256 00c4 0820     		movs	r0, #8
 257 00c6 FFF7FEFF 		bl	CapSense_1_AMuxCH0_Set
 289:.\Generated_Source\PSoC5/CapSense_1.c ****     CapSense_1_AMuxCH0_Connect(CapSense_1_AMuxCH0_CMP_VP_CHANNEL);
 258              		.loc 1 289 0
 259 00ca 0920     		movs	r0, #9
 260 00cc FFF7FEFF 		bl	CapSense_1_AMuxCH0_Set
 290:.\Generated_Source\PSoC5/CapSense_1.c ****     #if (CapSense_1_CURRENT_SOURCE)
 291:.\Generated_Source\PSoC5/CapSense_1.c ****         CapSense_1_AMuxCH0_Connect(CapSense_1_AMuxCH0_IDAC_CHANNEL);
 261              		.loc 1 291 0
 262 00d0 0A20     		movs	r0, #10
 263 00d2 FFF7FEFF 		bl	CapSense_1_AMuxCH0_Set
 292:.\Generated_Source\PSoC5/CapSense_1.c ****     #endif  /* CapSense_1_CURRENT_SOURCE */
 293:.\Generated_Source\PSoC5/CapSense_1.c ****     
 294:.\Generated_Source\PSoC5/CapSense_1.c ****     #if (CapSense_1_DESIGN_TYPE == CapSense_1_TWO_CHANNELS_DESIGN) 
 295:.\Generated_Source\PSoC5/CapSense_1.c ****         CapSense_1_AMuxCH1_Init();
 296:.\Generated_Source\PSoC5/CapSense_1.c ****         CapSense_1_AMuxCH1_Connect(CapSense_1_AMuxCH1_CMOD_CHANNEL);
 297:.\Generated_Source\PSoC5/CapSense_1.c ****         CapSense_1_AMuxCH1_Connect(CapSense_1_AMuxCH1_CMP_VP_CHANNEL);
 298:.\Generated_Source\PSoC5/CapSense_1.c ****         #if (CapSense_1_CURRENT_SOURCE)
 299:.\Generated_Source\PSoC5/CapSense_1.c ****             CapSense_1_AMuxCH1_Connect(CapSense_1_AMuxCH1_IDAC_CHANNEL);
 300:.\Generated_Source\PSoC5/CapSense_1.c ****         #endif  /* CapSense_1_CURRENT_SOURCE */
 301:.\Generated_Source\PSoC5/CapSense_1.c ****     #endif  /* CapSense_1_DESIGN_TYPE */
 302:.\Generated_Source\PSoC5/CapSense_1.c ****     
 303:.\Generated_Source\PSoC5/CapSense_1.c ****     /* Int Rb */
 304:.\Generated_Source\PSoC5/CapSense_1.c ****     #if (CapSense_1_CURRENT_SOURCE == CapSense_1_EXTERNAL_RB)
 305:.\Generated_Source\PSoC5/CapSense_1.c ****         CapSense_1_InitRb();
 306:.\Generated_Source\PSoC5/CapSense_1.c ****     #endif /* (CapSense_1_CURRENT_SOURCE == CapSense_1_EXTERNAL_RB) */
ARM GAS  C:\Users\Robert\AppData\Local\Temp\ccZodlkd.s 			page 11


 307:.\Generated_Source\PSoC5/CapSense_1.c ****     
 308:.\Generated_Source\PSoC5/CapSense_1.c ****     /* Enable window generation */
 309:.\Generated_Source\PSoC5/CapSense_1.c ****     CapSense_1_CONTROL_REG |= CapSense_1_CTRL_WINDOW_EN__CH0;
 264              		.loc 1 309 0
 265 00d6 1B4A     		ldr	r2, .L2+60
 266 00d8 1A4B     		ldr	r3, .L2+60
 267 00da 1B78     		ldrb	r3, [r3]
 268 00dc DBB2     		uxtb	r3, r3
 269 00de 43F00403 		orr	r3, r3, #4
 270 00e2 DBB2     		uxtb	r3, r3
 271 00e4 1370     		strb	r3, [r2]
 310:.\Generated_Source\PSoC5/CapSense_1.c ****     #if (CapSense_1_DESIGN_TYPE == CapSense_1_TWO_CHANNELS_DESIGN)
 311:.\Generated_Source\PSoC5/CapSense_1.c ****         CapSense_1_CONTROL_REG |= CapSense_1_CTRL_WINDOW_EN__CH1;
 312:.\Generated_Source\PSoC5/CapSense_1.c ****     #endif  /* CapSense_1_DESIGN_TYPE */
 313:.\Generated_Source\PSoC5/CapSense_1.c ****     
 314:.\Generated_Source\PSoC5/CapSense_1.c ****     /* Initialize Cmp and Idac */
 315:.\Generated_Source\PSoC5/CapSense_1.c ****     CapSense_1_CompCH0_Init();
 272              		.loc 1 315 0
 273 00e6 FFF7FEFF 		bl	CapSense_1_CompCH0_Init
 316:.\Generated_Source\PSoC5/CapSense_1.c ****     #if (CapSense_1_CURRENT_SOURCE)
 317:.\Generated_Source\PSoC5/CapSense_1.c ****         CapSense_1_IdacCH0_Init();
 274              		.loc 1 317 0
 275 00ea FFF7FEFF 		bl	CapSense_1_IdacCH0_Init
 318:.\Generated_Source\PSoC5/CapSense_1.c ****         CapSense_1_IdacCH0_SetPolarity(CapSense_1_IdacCH0_IDIR);
 276              		.loc 1 318 0
 277 00ee 0020     		movs	r0, #0
 278 00f0 FFF7FEFF 		bl	CapSense_1_IdacCH0_SetPolarity
 319:.\Generated_Source\PSoC5/CapSense_1.c ****         CapSense_1_IdacCH0_SetRange(CapSense_1_IDAC_RANGE_VALUE);
 279              		.loc 1 319 0
 280 00f4 0420     		movs	r0, #4
 281 00f6 FFF7FEFF 		bl	CapSense_1_IdacCH0_SetRange
 320:.\Generated_Source\PSoC5/CapSense_1.c ****         CapSense_1_IdacCH0_SetValue(CapSense_1_TURN_OFF_IDAC);
 282              		.loc 1 320 0
 283 00fa 0020     		movs	r0, #0
 284 00fc FFF7FEFF 		bl	CapSense_1_IdacCH0_SetValue
 321:.\Generated_Source\PSoC5/CapSense_1.c ****     #endif  /* CapSense_1_CURRENT_SOURCE */
 322:.\Generated_Source\PSoC5/CapSense_1.c ****     
 323:.\Generated_Source\PSoC5/CapSense_1.c ****     #if (CapSense_1_DESIGN_TYPE == CapSense_1_TWO_CHANNELS_DESIGN) 
 324:.\Generated_Source\PSoC5/CapSense_1.c ****         CapSense_1_CompCH1_Init();
 325:.\Generated_Source\PSoC5/CapSense_1.c ****         #if (CapSense_1_CURRENT_SOURCE)
 326:.\Generated_Source\PSoC5/CapSense_1.c ****             CapSense_1_IdacCH1_Init();
 327:.\Generated_Source\PSoC5/CapSense_1.c ****             CapSense_1_IdacCH1_SetPolarity(CapSense_1_IdacCH1_IDIR);
 328:.\Generated_Source\PSoC5/CapSense_1.c ****             CapSense_1_IdacCH1_SetRange(CapSense_1_IDAC_RANGE_VALUE);
 329:.\Generated_Source\PSoC5/CapSense_1.c ****             CapSense_1_IdacCH1_SetValue(CapSense_1_TURN_OFF_IDAC);
 330:.\Generated_Source\PSoC5/CapSense_1.c ****         #endif  /* CapSense_1_CURRENT_SOURCE */
 331:.\Generated_Source\PSoC5/CapSense_1.c ****     #endif  /* CapSense_1_DESIGN_TYPE */
 332:.\Generated_Source\PSoC5/CapSense_1.c ****     
 333:.\Generated_Source\PSoC5/CapSense_1.c ****     /* Initialize Vref if as VDAC */
 334:.\Generated_Source\PSoC5/CapSense_1.c ****     #if (CapSense_1_VREF_OPTIONS == CapSense_1_VREF_VDAC)
 335:.\Generated_Source\PSoC5/CapSense_1.c ****         CapSense_1_VdacRefCH0_Init();
 336:.\Generated_Source\PSoC5/CapSense_1.c ****         #if (CapSense_1_DESIGN_TYPE == CapSense_1_TWO_CHANNELS_DESIGN)
 337:.\Generated_Source\PSoC5/CapSense_1.c ****             CapSense_1_VdacRefCH1_Init();
 338:.\Generated_Source\PSoC5/CapSense_1.c ****         #endif  /* CapSense_1_DESIGN_TYPE */
 339:.\Generated_Source\PSoC5/CapSense_1.c ****     #endif  /* CapSense_1_VREF_OPTIONS */
 340:.\Generated_Source\PSoC5/CapSense_1.c **** }
 285              		.loc 1 340 0
 286 0100 0837     		adds	r7, r7, #8
ARM GAS  C:\Users\Robert\AppData\Local\Temp\ccZodlkd.s 			page 12


 287              		.cfi_def_cfa_offset 8
 288 0102 BD46     		mov	sp, r7
 289              		.cfi_def_cfa_register 13
 290              		@ sp needed
 291 0104 80BD     		pop	{r7, pc}
 292              	.L3:
 293 0106 00BF     		.align	2
 294              	.L2:
 295 0108 90640040 		.word	1073767568
 296 010c 91640040 		.word	1073767569
 297 0110 20640040 		.word	1073767456
 298 0114 40640040 		.word	1073767488
 299 0118 86640040 		.word	1073767558
 300 011c 97640040 		.word	1073767575
 301 0120 96640040 		.word	1073767574
 302 0124 27640040 		.word	1073767463
 303 0128 47640040 		.word	1073767495
 304 012c 07640040 		.word	1073767431
 305 0130 26640040 		.word	1073767462
 306 0134 56640040 		.word	1073767510
 307 0138 46640040 		.word	1073767494
 308 013c 80E100E0 		.word	-536813184
 309 0140 00000000 		.word	CapSense_1_IsrCH0_ISR
 310 0144 74650040 		.word	1073767796
 311              		.cfi_endproc
 312              	.LFE0:
 313              		.size	CapSense_1_Init, .-CapSense_1_Init
 314              		.section	.text.CapSense_1_Enable,"ax",%progbits
 315              		.align	2
 316              		.global	CapSense_1_Enable
 317              		.thumb
 318              		.thumb_func
 319              		.type	CapSense_1_Enable, %function
 320              	CapSense_1_Enable:
 321              	.LFB1:
 341:.\Generated_Source\PSoC5/CapSense_1.c **** 
 342:.\Generated_Source\PSoC5/CapSense_1.c **** 
 343:.\Generated_Source\PSoC5/CapSense_1.c **** /*******************************************************************************
 344:.\Generated_Source\PSoC5/CapSense_1.c **** * Function Name: CapSense_1_Enable
 345:.\Generated_Source\PSoC5/CapSense_1.c **** ********************************************************************************
 346:.\Generated_Source\PSoC5/CapSense_1.c **** *
 347:.\Generated_Source\PSoC5/CapSense_1.c **** * Summary:
 348:.\Generated_Source\PSoC5/CapSense_1.c **** *  Enables active mode power template bits for number of component used within 
 349:.\Generated_Source\PSoC5/CapSense_1.c **** *  CapSense.
 350:.\Generated_Source\PSoC5/CapSense_1.c **** *
 351:.\Generated_Source\PSoC5/CapSense_1.c **** * Parameters:
 352:.\Generated_Source\PSoC5/CapSense_1.c **** *  None
 353:.\Generated_Source\PSoC5/CapSense_1.c **** *
 354:.\Generated_Source\PSoC5/CapSense_1.c **** * Return:
 355:.\Generated_Source\PSoC5/CapSense_1.c **** *  None
 356:.\Generated_Source\PSoC5/CapSense_1.c **** *
 357:.\Generated_Source\PSoC5/CapSense_1.c **** *******************************************************************************/
 358:.\Generated_Source\PSoC5/CapSense_1.c **** void CapSense_1_Enable(void) 
 359:.\Generated_Source\PSoC5/CapSense_1.c **** {
 322              		.loc 1 359 0
 323              		.cfi_startproc
 324              		@ args = 0, pretend = 0, frame = 8
ARM GAS  C:\Users\Robert\AppData\Local\Temp\ccZodlkd.s 			page 13


 325              		@ frame_needed = 1, uses_anonymous_args = 0
 326 0000 80B5     		push	{r7, lr}
 327              		.cfi_def_cfa_offset 8
 328              		.cfi_offset 7, -8
 329              		.cfi_offset 14, -4
 330 0002 82B0     		sub	sp, sp, #8
 331              		.cfi_def_cfa_offset 16
 332 0004 00AF     		add	r7, sp, #0
 333              		.cfi_def_cfa_register 7
 360:.\Generated_Source\PSoC5/CapSense_1.c ****     uint8 enableInterrupts;
 361:.\Generated_Source\PSoC5/CapSense_1.c ****     
 362:.\Generated_Source\PSoC5/CapSense_1.c ****     enableInterrupts = CyEnterCriticalSection();
 334              		.loc 1 362 0
 335 0006 FFF7FEFF 		bl	CyEnterCriticalSection
 336 000a 0346     		mov	r3, r0
 337 000c FB71     		strb	r3, [r7, #7]
 363:.\Generated_Source\PSoC5/CapSense_1.c ****     
 364:.\Generated_Source\PSoC5/CapSense_1.c ****     /* Enable Prescaler */
 365:.\Generated_Source\PSoC5/CapSense_1.c ****     #if (CapSense_1_PRESCALER_OPTIONS == CapSense_1_PRESCALER_UDB)
 366:.\Generated_Source\PSoC5/CapSense_1.c ****         /* Do nothing  for UDB */
 367:.\Generated_Source\PSoC5/CapSense_1.c ****     #elif (CapSense_1_PRESCALER_OPTIONS == CapSense_1_PRESCALER_FF)
 368:.\Generated_Source\PSoC5/CapSense_1.c ****         CapSense_1_PRESCALER_ACT_PWRMGR_REG  |= CapSense_1_PRESCALER_ACT_PWR_EN;
 369:.\Generated_Source\PSoC5/CapSense_1.c ****         CapSense_1_PRESCALER_STBY_PWRMGR_REG |= CapSense_1_PRESCALER_STBY_PWR_EN;
 370:.\Generated_Source\PSoC5/CapSense_1.c ****         
 371:.\Generated_Source\PSoC5/CapSense_1.c ****     #else
 372:.\Generated_Source\PSoC5/CapSense_1.c ****         /* Do nothing = config without prescaler */
 373:.\Generated_Source\PSoC5/CapSense_1.c ****     #endif  /* (CapSense_1_PRESCALER_OPTIONS == CapSense_1_PRESCALER_UDB) */
 374:.\Generated_Source\PSoC5/CapSense_1.c ****     
 375:.\Generated_Source\PSoC5/CapSense_1.c ****     /* Enable ScanSpeed */
 376:.\Generated_Source\PSoC5/CapSense_1.c ****     CapSense_1_SCANSPEED_AUX_CONTROL_REG |= CapSense_1_SCANSPEED_CTRL_ENABLE;
 338              		.loc 1 376 0
 339 000e 1C4A     		ldr	r2, .L5
 340 0010 1B4B     		ldr	r3, .L5
 341 0012 1B78     		ldrb	r3, [r3]
 342 0014 DBB2     		uxtb	r3, r3
 343 0016 43F02003 		orr	r3, r3, #32
 344 001a DBB2     		uxtb	r3, r3
 345 001c 1370     		strb	r3, [r2]
 377:.\Generated_Source\PSoC5/CapSense_1.c ****     
 378:.\Generated_Source\PSoC5/CapSense_1.c ****     /* Enable Measure CH0 */
 379:.\Generated_Source\PSoC5/CapSense_1.c ****     #if (CapSense_1_IMPLEMENTATION_CH0 == CapSense_1_MEASURE_IMPLEMENTATION_FF)
 380:.\Generated_Source\PSoC5/CapSense_1.c ****         /* Window PWM */
 381:.\Generated_Source\PSoC5/CapSense_1.c ****         CapSense_1_PWM_CH0_ACT_PWRMGR_REG  |= CapSense_1_PWM_CH0_ACT_PWR_EN;
 382:.\Generated_Source\PSoC5/CapSense_1.c ****         CapSense_1_PWM_CH0_STBY_PWRMGR_REG |= CapSense_1_PWM_CH0_STBY_PWR_EN;
 383:.\Generated_Source\PSoC5/CapSense_1.c ****         
 384:.\Generated_Source\PSoC5/CapSense_1.c ****         /* Raw Counter */
 385:.\Generated_Source\PSoC5/CapSense_1.c ****         CapSense_1_RAW_CH0_ACT_PWRMGR_REG  |= CapSense_1_RAW_CH0_ACT_PWR_EN;
 386:.\Generated_Source\PSoC5/CapSense_1.c ****         CapSense_1_RAW_CH0_STBY_PWRMGR_REG |= CapSense_1_RAW_CH0_STBY_PWR_EN;
 387:.\Generated_Source\PSoC5/CapSense_1.c ****         
 388:.\Generated_Source\PSoC5/CapSense_1.c ****     #else
 389:.\Generated_Source\PSoC5/CapSense_1.c ****         /* Window PWM -  Do nothing */
 390:.\Generated_Source\PSoC5/CapSense_1.c ****         /* Raw Counter - Do nothing */
 391:.\Generated_Source\PSoC5/CapSense_1.c ****         
 392:.\Generated_Source\PSoC5/CapSense_1.c ****     #endif  /* (CapSense_1_IMPLEMENTATION_CH0 == CapSense_1_MEASURE_IMPLEMENTATION_FF) */ 
 393:.\Generated_Source\PSoC5/CapSense_1.c ****     
 394:.\Generated_Source\PSoC5/CapSense_1.c ****     /* Enable Measure CH1*/
 395:.\Generated_Source\PSoC5/CapSense_1.c ****     #if (CapSense_1_DESIGN_TYPE == CapSense_1_TWO_CHANNELS_DESIGN)
ARM GAS  C:\Users\Robert\AppData\Local\Temp\ccZodlkd.s 			page 14


 396:.\Generated_Source\PSoC5/CapSense_1.c ****         #if (CapSense_1_IMPLEMENTATION_CH1 == CapSense_1_MEASURE_IMPLEMENTATION_FF)
 397:.\Generated_Source\PSoC5/CapSense_1.c ****             /* Window PWM */
 398:.\Generated_Source\PSoC5/CapSense_1.c ****             CapSense_1_PWM_CH1_ACT_PWRMGR_REG  |= CapSense_1_PWM_CH1_ACT_PWR_EN;
 399:.\Generated_Source\PSoC5/CapSense_1.c ****             CapSense_1_PWM_CH1_STBY_PWRMGR_REG |= CapSense_1_PWM_CH1_STBY_PWR_EN;
 400:.\Generated_Source\PSoC5/CapSense_1.c ****             
 401:.\Generated_Source\PSoC5/CapSense_1.c ****             /* Raw Counter */
 402:.\Generated_Source\PSoC5/CapSense_1.c ****             CapSense_1_RAW_CH1_ACT_PWRMGR_REG  |= CapSense_1_RAW_CH1_ACT_PWR_EN;
 403:.\Generated_Source\PSoC5/CapSense_1.c ****             CapSense_1_RAW_CH1_STBY_PWRMGR_REG |= CapSense_1_RAW_CH1_STBY_PWR_EN;
 404:.\Generated_Source\PSoC5/CapSense_1.c ****            
 405:.\Generated_Source\PSoC5/CapSense_1.c ****         #else
 406:.\Generated_Source\PSoC5/CapSense_1.c ****         /* Window PWM -  Do nothing */
 407:.\Generated_Source\PSoC5/CapSense_1.c ****         /* Raw Counter - Do nothing */
 408:.\Generated_Source\PSoC5/CapSense_1.c ****         
 409:.\Generated_Source\PSoC5/CapSense_1.c ****         #endif  /* (CapSense_1_IMPLEMENTATION_CH1 == CapSense_1_MEASURE_IMPLEMENTATION_FF) */
 410:.\Generated_Source\PSoC5/CapSense_1.c ****     
 411:.\Generated_Source\PSoC5/CapSense_1.c ****     #endif  /* (CapSense_1_DESIGN_TYPE == TWO_CHANNELS_DESIGN)*/
 412:.\Generated_Source\PSoC5/CapSense_1.c ****     
 413:.\Generated_Source\PSoC5/CapSense_1.c ****     /* Enable the Clock */
 414:.\Generated_Source\PSoC5/CapSense_1.c ****     #if (CapSense_1_CLOCK_SOURCE == CapSense_1_INTERNAL_CLOCK)
 415:.\Generated_Source\PSoC5/CapSense_1.c ****        CapSense_1_IntClock_Enable();
 346              		.loc 1 415 0
 347 001e FFF7FEFF 		bl	CapSense_1_IntClock_Start
 416:.\Generated_Source\PSoC5/CapSense_1.c ****     #endif  /* CapSense_1_CLOCK_SOURCE */
 417:.\Generated_Source\PSoC5/CapSense_1.c ****     
 418:.\Generated_Source\PSoC5/CapSense_1.c ****     /* Setup Cmp and Idac */
 419:.\Generated_Source\PSoC5/CapSense_1.c ****     CapSense_1_CompCH0_Enable();
 348              		.loc 1 419 0
 349 0022 FFF7FEFF 		bl	CapSense_1_CompCH0_Enable
 420:.\Generated_Source\PSoC5/CapSense_1.c ****     #if (CapSense_1_CURRENT_SOURCE)
 421:.\Generated_Source\PSoC5/CapSense_1.c ****         CapSense_1_IdacCH0_Enable();
 350              		.loc 1 421 0
 351 0026 FFF7FEFF 		bl	CapSense_1_IdacCH0_Enable
 422:.\Generated_Source\PSoC5/CapSense_1.c ****     #endif  /* CapSense_1_CURRENT_SOURCE */
 423:.\Generated_Source\PSoC5/CapSense_1.c ****     
 424:.\Generated_Source\PSoC5/CapSense_1.c ****     #if (CapSense_1_DESIGN_TYPE == CapSense_1_TWO_CHANNELS_DESIGN) 
 425:.\Generated_Source\PSoC5/CapSense_1.c ****         CapSense_1_CompCH1_Enable();
 426:.\Generated_Source\PSoC5/CapSense_1.c ****         #if (CapSense_1_CURRENT_SOURCE)
 427:.\Generated_Source\PSoC5/CapSense_1.c ****             CapSense_1_IdacCH1_Enable();
 428:.\Generated_Source\PSoC5/CapSense_1.c ****         #endif  /* CapSense_1_CURRENT_SOURCE */
 429:.\Generated_Source\PSoC5/CapSense_1.c ****     #endif  /* CapSense_1_DESIGN_TYPE */
 430:.\Generated_Source\PSoC5/CapSense_1.c ****     
 431:.\Generated_Source\PSoC5/CapSense_1.c ****     /* Enable Vref */
 432:.\Generated_Source\PSoC5/CapSense_1.c ****     #if (CapSense_1_VREF_OPTIONS == CapSense_1_VREF_VDAC)
 433:.\Generated_Source\PSoC5/CapSense_1.c ****         CapSense_1_VdacRefCH0_Enable();
 434:.\Generated_Source\PSoC5/CapSense_1.c ****         CapSense_1_VdacRefCH0_SetValue(CapSense_1_VdacRefCH0_DEFAULT_DATA);
 435:.\Generated_Source\PSoC5/CapSense_1.c ****         #if (CapSense_1_DESIGN_TYPE == CapSense_1_TWO_CHANNELS_DESIGN)
 436:.\Generated_Source\PSoC5/CapSense_1.c ****             CapSense_1_VdacRefCH1_Enable();
 437:.\Generated_Source\PSoC5/CapSense_1.c ****             CapSense_1_VdacRefCH1_SetValue(CapSense_1_VdacRefCH1_DEFAULT_DATA);
 438:.\Generated_Source\PSoC5/CapSense_1.c ****         #endif  /* (CapSense_1_DESIGN_TYPE == CapSense_1_TWO_CHANNELS_DESIGN) */
 439:.\Generated_Source\PSoC5/CapSense_1.c ****     #else
 440:.\Generated_Source\PSoC5/CapSense_1.c ****         /* Enable CapSense Buf */
 441:.\Generated_Source\PSoC5/CapSense_1.c ****         CapSense_1_BufCH0_STBY_PWRMGR_REG |= CapSense_1_BufCH0_STBY_PWR_EN;
 352              		.loc 1 441 0
 353 002a 164A     		ldr	r2, .L5+4
 354 002c 154B     		ldr	r3, .L5+4
 355 002e 1B78     		ldrb	r3, [r3]
 356 0030 DBB2     		uxtb	r3, r3
ARM GAS  C:\Users\Robert\AppData\Local\Temp\ccZodlkd.s 			page 15


 357 0032 43F01003 		orr	r3, r3, #16
 358 0036 DBB2     		uxtb	r3, r3
 359 0038 1370     		strb	r3, [r2]
 442:.\Generated_Source\PSoC5/CapSense_1.c ****         CapSense_1_BufCH0_ACT_PWRMGR_REG  |= CapSense_1_BufCH0_ACT_PWR_EN;
 360              		.loc 1 442 0
 361 003a 134A     		ldr	r2, .L5+8
 362 003c 124B     		ldr	r3, .L5+8
 363 003e 1B78     		ldrb	r3, [r3]
 364 0040 DBB2     		uxtb	r3, r3
 365 0042 43F01003 		orr	r3, r3, #16
 366 0046 DBB2     		uxtb	r3, r3
 367 0048 1370     		strb	r3, [r2]
 443:.\Generated_Source\PSoC5/CapSense_1.c ****         
 444:.\Generated_Source\PSoC5/CapSense_1.c ****         #if (CapSense_1_DESIGN_TYPE == CapSense_1_TWO_CHANNELS_DESIGN)
 445:.\Generated_Source\PSoC5/CapSense_1.c ****             CapSense_1_BufCH1_STBY_PWRMGR_REG |= CapSense_1_BufCH1_STBY_PWR_EN;
 446:.\Generated_Source\PSoC5/CapSense_1.c ****             CapSense_1_BufCH1_ACT_PWRMGR_REG  |= CapSense_1_BufCH1_ACT_PWR_EN;
 447:.\Generated_Source\PSoC5/CapSense_1.c ****         #endif  /* (CapSense_1_DESIGN_TYPE == CapSense_1_TWO_CHANNELS_DESIGN) */
 448:.\Generated_Source\PSoC5/CapSense_1.c ****     #endif  /* (CapSense_1_VREF_VDAC == CapSense_1_VREF_OPTIONS) */
 449:.\Generated_Source\PSoC5/CapSense_1.c ****     
 450:.\Generated_Source\PSoC5/CapSense_1.c ****     /* Set reference on AMux Bus */
 451:.\Generated_Source\PSoC5/CapSense_1.c ****     #if (CapSense_1_VREF_OPTIONS == CapSense_1_VREF_VDAC)
 452:.\Generated_Source\PSoC5/CapSense_1.c ****         /* Connect Vdac to AMux Bus */
 453:.\Generated_Source\PSoC5/CapSense_1.c ****         CapSense_1_AMuxCH0_Connect(CapSense_1_AMuxCH0_VREF_CHANNEL);
 454:.\Generated_Source\PSoC5/CapSense_1.c ****         #if (CapSense_1_DESIGN_TYPE == CapSense_1_TWO_CHANNELS_DESIGN)
 455:.\Generated_Source\PSoC5/CapSense_1.c ****             CapSense_1_AMuxCH1_Connect(CapSense_1_AMuxCH1_VREF_CHANNEL);
 456:.\Generated_Source\PSoC5/CapSense_1.c ****         #endif  /* (CapSense_1_DESIGN_TYPE == CapSense_1_TWO_CHANNELS_DESIGN) */
 457:.\Generated_Source\PSoC5/CapSense_1.c ****         
 458:.\Generated_Source\PSoC5/CapSense_1.c ****     #else
 459:.\Generated_Source\PSoC5/CapSense_1.c ****         /* Enable CapSense Buf */
 460:.\Generated_Source\PSoC5/CapSense_1.c ****         CapSense_1_BufCH0_CAPS_CFG0_REG |= CapSense_1_CSBUF_ENABLE;
 368              		.loc 1 460 0
 369 004a 104A     		ldr	r2, .L5+12
 370 004c 0F4B     		ldr	r3, .L5+12
 371 004e 1B78     		ldrb	r3, [r3]
 372 0050 DBB2     		uxtb	r3, r3
 373 0052 43F00103 		orr	r3, r3, #1
 374 0056 DBB2     		uxtb	r3, r3
 375 0058 1370     		strb	r3, [r2]
 461:.\Generated_Source\PSoC5/CapSense_1.c ****         
 462:.\Generated_Source\PSoC5/CapSense_1.c ****         #if (CapSense_1_DESIGN_TYPE == CapSense_1_TWO_CHANNELS_DESIGN)
 463:.\Generated_Source\PSoC5/CapSense_1.c ****             CapSense_1_BufCH1_CAPS_CFG0_REG |= CapSense_1_CSBUF_ENABLE;
 464:.\Generated_Source\PSoC5/CapSense_1.c ****         #endif  /* (CapSense_1_DESIGN_TYPE == CapSense_1_TWO_CHANNELS_DESIGN) */
 465:.\Generated_Source\PSoC5/CapSense_1.c ****     #endif  /* (CapSense_1_VREF_VDAC == CapSense_1_VREF_OPTIONS)*/
 466:.\Generated_Source\PSoC5/CapSense_1.c ****     
 467:.\Generated_Source\PSoC5/CapSense_1.c ****     CyExitCriticalSection(enableInterrupts);
 376              		.loc 1 467 0
 377 005a FB79     		ldrb	r3, [r7, #7]	@ zero_extendqisi2
 378 005c 1846     		mov	r0, r3
 379 005e FFF7FEFF 		bl	CyExitCriticalSection
 468:.\Generated_Source\PSoC5/CapSense_1.c ****     
 469:.\Generated_Source\PSoC5/CapSense_1.c ****     /* Enable interrupt */
 470:.\Generated_Source\PSoC5/CapSense_1.c ****     CyIntEnable(CapSense_1_IsrCH0_ISR_NUMBER);
 380              		.loc 1 470 0
 381 0062 0B4B     		ldr	r3, .L5+16
 382 0064 0222     		movs	r2, #2
 383 0066 1A60     		str	r2, [r3]
 471:.\Generated_Source\PSoC5/CapSense_1.c ****     #if (CapSense_1_DESIGN_TYPE == CapSense_1_TWO_CHANNELS_DESIGN) 
ARM GAS  C:\Users\Robert\AppData\Local\Temp\ccZodlkd.s 			page 16


 472:.\Generated_Source\PSoC5/CapSense_1.c ****         CyIntEnable(CapSense_1_IsrCH1_ISR_NUMBER);
 473:.\Generated_Source\PSoC5/CapSense_1.c ****     #endif  /* CapSense_1_DESIGN_TYPE */
 474:.\Generated_Source\PSoC5/CapSense_1.c ****     
 475:.\Generated_Source\PSoC5/CapSense_1.c ****     /* Set CapSense Enable state */
 476:.\Generated_Source\PSoC5/CapSense_1.c ****     CapSense_1_CONTROL_REG |= CapSense_1_CTRL_CAPSENSE_EN;
 384              		.loc 1 476 0
 385 0068 0A4A     		ldr	r2, .L5+20
 386 006a 0A4B     		ldr	r3, .L5+20
 387 006c 1B78     		ldrb	r3, [r3]
 388 006e DBB2     		uxtb	r3, r3
 389 0070 63F07F03 		orn	r3, r3, #127
 390 0074 DBB2     		uxtb	r3, r3
 391 0076 1370     		strb	r3, [r2]
 477:.\Generated_Source\PSoC5/CapSense_1.c **** }
 392              		.loc 1 477 0
 393 0078 0837     		adds	r7, r7, #8
 394              		.cfi_def_cfa_offset 8
 395 007a BD46     		mov	sp, r7
 396              		.cfi_def_cfa_register 13
 397              		@ sp needed
 398 007c 80BD     		pop	{r7, pc}
 399              	.L6:
 400 007e 00BF     		.align	2
 401              	.L5:
 402 0080 96640040 		.word	1073767574
 403 0084 BB430040 		.word	1073759163
 404 0088 AB430040 		.word	1073759147
 405 008c 70580040 		.word	1073764464
 406 0090 00E100E0 		.word	-536813312
 407 0094 74650040 		.word	1073767796
 408              		.cfi_endproc
 409              	.LFE1:
 410              		.size	CapSense_1_Enable, .-CapSense_1_Enable
 411              		.section	.text.CapSense_1_Start,"ax",%progbits
 412              		.align	2
 413              		.global	CapSense_1_Start
 414              		.thumb
 415              		.thumb_func
 416              		.type	CapSense_1_Start, %function
 417              	CapSense_1_Start:
 418              	.LFB2:
 478:.\Generated_Source\PSoC5/CapSense_1.c **** 
 479:.\Generated_Source\PSoC5/CapSense_1.c **** 
 480:.\Generated_Source\PSoC5/CapSense_1.c **** /*******************************************************************************
 481:.\Generated_Source\PSoC5/CapSense_1.c **** * Function Name: CapSense_1_Start
 482:.\Generated_Source\PSoC5/CapSense_1.c **** ********************************************************************************
 483:.\Generated_Source\PSoC5/CapSense_1.c **** *
 484:.\Generated_Source\PSoC5/CapSense_1.c **** * Summary:
 485:.\Generated_Source\PSoC5/CapSense_1.c **** *  Initializes registers and starts the CSD method of CapSense component. Reset 
 486:.\Generated_Source\PSoC5/CapSense_1.c **** *  all sensors to an inactive state. Enables interrupts for sensors scanning.
 487:.\Generated_Source\PSoC5/CapSense_1.c **** *  When Auto Tuning (SmartSense) mode is selected the tuning procedure is 
 488:.\Generated_Source\PSoC5/CapSense_1.c **** *  applied for all sensors.
 489:.\Generated_Source\PSoC5/CapSense_1.c **** *
 490:.\Generated_Source\PSoC5/CapSense_1.c **** * Parameters:
 491:.\Generated_Source\PSoC5/CapSense_1.c **** *  None
 492:.\Generated_Source\PSoC5/CapSense_1.c **** *
 493:.\Generated_Source\PSoC5/CapSense_1.c **** * Return:
ARM GAS  C:\Users\Robert\AppData\Local\Temp\ccZodlkd.s 			page 17


 494:.\Generated_Source\PSoC5/CapSense_1.c **** *  None
 495:.\Generated_Source\PSoC5/CapSense_1.c **** *
 496:.\Generated_Source\PSoC5/CapSense_1.c **** * Global Variables:
 497:.\Generated_Source\PSoC5/CapSense_1.c **** *  CapSense_1_initVar - used to check initial configuration, modified on 
 498:.\Generated_Source\PSoC5/CapSense_1.c **** *  first function call.
 499:.\Generated_Source\PSoC5/CapSense_1.c **** *  CapSense_1_lowLevelTuningDone - used to notify the Tuner GUI that 
 500:.\Generated_Source\PSoC5/CapSense_1.c **** *  tuning of scanning parameters are done.
 501:.\Generated_Source\PSoC5/CapSense_1.c **** *
 502:.\Generated_Source\PSoC5/CapSense_1.c **** * Reentrant:
 503:.\Generated_Source\PSoC5/CapSense_1.c **** *  No
 504:.\Generated_Source\PSoC5/CapSense_1.c **** *
 505:.\Generated_Source\PSoC5/CapSense_1.c **** * Note:
 506:.\Generated_Source\PSoC5/CapSense_1.c **** *  All widgets are enabled by default except proximity widgets. Proximity widgets 
 507:.\Generated_Source\PSoC5/CapSense_1.c **** *  must be manually enabled as their long scan time is incompatible 
 508:.\Generated_Source\PSoC5/CapSense_1.c **** *  with the fast response required of other widget types. 
 509:.\Generated_Source\PSoC5/CapSense_1.c **** *
 510:.\Generated_Source\PSoC5/CapSense_1.c **** *******************************************************************************/
 511:.\Generated_Source\PSoC5/CapSense_1.c **** void CapSense_1_Start(void)  
 512:.\Generated_Source\PSoC5/CapSense_1.c **** {
 419              		.loc 1 512 0
 420              		.cfi_startproc
 421              		@ args = 0, pretend = 0, frame = 0
 422              		@ frame_needed = 1, uses_anonymous_args = 0
 423 0000 80B5     		push	{r7, lr}
 424              		.cfi_def_cfa_offset 8
 425              		.cfi_offset 7, -8
 426              		.cfi_offset 14, -4
 427 0002 00AF     		add	r7, sp, #0
 428              		.cfi_def_cfa_register 7
 513:.\Generated_Source\PSoC5/CapSense_1.c ****     if (CapSense_1_initVar == 0u)
 429              		.loc 1 513 0
 430 0004 054B     		ldr	r3, .L9
 431 0006 1B78     		ldrb	r3, [r3]	@ zero_extendqisi2
 432 0008 002B     		cmp	r3, #0
 433 000a 04D1     		bne	.L8
 514:.\Generated_Source\PSoC5/CapSense_1.c ****     {
 515:.\Generated_Source\PSoC5/CapSense_1.c ****         CapSense_1_Init();
 434              		.loc 1 515 0
 435 000c FFF7FEFF 		bl	CapSense_1_Init
 516:.\Generated_Source\PSoC5/CapSense_1.c ****         CapSense_1_initVar = 1u;
 436              		.loc 1 516 0
 437 0010 024B     		ldr	r3, .L9
 438 0012 0122     		movs	r2, #1
 439 0014 1A70     		strb	r2, [r3]
 440              	.L8:
 517:.\Generated_Source\PSoC5/CapSense_1.c ****     }
 518:.\Generated_Source\PSoC5/CapSense_1.c ****     CapSense_1_Enable();
 441              		.loc 1 518 0
 442 0016 FFF7FEFF 		bl	CapSense_1_Enable
 519:.\Generated_Source\PSoC5/CapSense_1.c ****     
 520:.\Generated_Source\PSoC5/CapSense_1.c ****     /* AutoTunning start */
 521:.\Generated_Source\PSoC5/CapSense_1.c ****     #if (CapSense_1_TUNING_METHOD == CapSense_1_AUTO_TUNING)
 522:.\Generated_Source\PSoC5/CapSense_1.c ****         /* AutoTune by sensor or pair of sensor basis */
 523:.\Generated_Source\PSoC5/CapSense_1.c ****         CapSense_1_AutoTune();
 524:.\Generated_Source\PSoC5/CapSense_1.c ****         CapSense_1_lowLevelTuningDone = 1u;
 525:.\Generated_Source\PSoC5/CapSense_1.c ****     #endif /* (CapSense_1_TUNING_METHOD == CapSense_1_AUTO_TUNING) */
 526:.\Generated_Source\PSoC5/CapSense_1.c **** }
ARM GAS  C:\Users\Robert\AppData\Local\Temp\ccZodlkd.s 			page 18


 443              		.loc 1 526 0
 444 001a 80BD     		pop	{r7, pc}
 445              	.L10:
 446              		.align	2
 447              	.L9:
 448 001c 00000000 		.word	CapSense_1_initVar
 449              		.cfi_endproc
 450              	.LFE2:
 451              		.size	CapSense_1_Start, .-CapSense_1_Start
 452              		.section	.text.CapSense_1_Stop,"ax",%progbits
 453              		.align	2
 454              		.global	CapSense_1_Stop
 455              		.thumb
 456              		.thumb_func
 457              		.type	CapSense_1_Stop, %function
 458              	CapSense_1_Stop:
 459              	.LFB3:
 527:.\Generated_Source\PSoC5/CapSense_1.c **** 
 528:.\Generated_Source\PSoC5/CapSense_1.c **** 
 529:.\Generated_Source\PSoC5/CapSense_1.c **** /*******************************************************************************
 530:.\Generated_Source\PSoC5/CapSense_1.c **** * Function Name: CapSense_1_Stop
 531:.\Generated_Source\PSoC5/CapSense_1.c **** ********************************************************************************
 532:.\Generated_Source\PSoC5/CapSense_1.c **** *
 533:.\Generated_Source\PSoC5/CapSense_1.c **** * Summary:
 534:.\Generated_Source\PSoC5/CapSense_1.c **** *  Stops the sensors scanner, disables internal interrupts, and resets all 
 535:.\Generated_Source\PSoC5/CapSense_1.c **** *  sensors to an inactive state. Disables Active mode power template bits for 
 536:.\Generated_Source\PSoC5/CapSense_1.c **** *  number of component used within CapSense.
 537:.\Generated_Source\PSoC5/CapSense_1.c **** *
 538:.\Generated_Source\PSoC5/CapSense_1.c **** * Parameters:
 539:.\Generated_Source\PSoC5/CapSense_1.c **** *  None
 540:.\Generated_Source\PSoC5/CapSense_1.c **** *
 541:.\Generated_Source\PSoC5/CapSense_1.c **** * Return:
 542:.\Generated_Source\PSoC5/CapSense_1.c **** *  None
 543:.\Generated_Source\PSoC5/CapSense_1.c **** *
 544:.\Generated_Source\PSoC5/CapSense_1.c **** * Side Effects:
 545:.\Generated_Source\PSoC5/CapSense_1.c **** *  This function should be called after scans will be completed.
 546:.\Generated_Source\PSoC5/CapSense_1.c **** *
 547:.\Generated_Source\PSoC5/CapSense_1.c **** *******************************************************************************/
 548:.\Generated_Source\PSoC5/CapSense_1.c **** void CapSense_1_Stop(void) 
 549:.\Generated_Source\PSoC5/CapSense_1.c **** {
 460              		.loc 1 549 0
 461              		.cfi_startproc
 462              		@ args = 0, pretend = 0, frame = 0
 463              		@ frame_needed = 1, uses_anonymous_args = 0
 464 0000 80B5     		push	{r7, lr}
 465              		.cfi_def_cfa_offset 8
 466              		.cfi_offset 7, -8
 467              		.cfi_offset 14, -4
 468 0002 00AF     		add	r7, sp, #0
 469              		.cfi_def_cfa_register 7
 550:.\Generated_Source\PSoC5/CapSense_1.c ****     /* Stop Capsensing */
 551:.\Generated_Source\PSoC5/CapSense_1.c ****     CapSense_1_CONTROL_REG &= (uint8)(~CapSense_1_CTRL_START);
 470              		.loc 1 551 0
 471 0004 1D4A     		ldr	r2, .L12
 472 0006 1D4B     		ldr	r3, .L12
 473 0008 1B78     		ldrb	r3, [r3]
 474 000a DBB2     		uxtb	r3, r3
ARM GAS  C:\Users\Robert\AppData\Local\Temp\ccZodlkd.s 			page 19


 475 000c 23F00203 		bic	r3, r3, #2
 476 0010 DBB2     		uxtb	r3, r3
 477 0012 1370     		strb	r3, [r2]
 552:.\Generated_Source\PSoC5/CapSense_1.c ****     
 553:.\Generated_Source\PSoC5/CapSense_1.c ****     /* Disable interrupt */
 554:.\Generated_Source\PSoC5/CapSense_1.c ****     CyIntDisable(CapSense_1_IsrCH0_ISR_NUMBER);
 478              		.loc 1 554 0
 479 0014 1A4B     		ldr	r3, .L12+4
 480 0016 0222     		movs	r2, #2
 481 0018 1A60     		str	r2, [r3]
 555:.\Generated_Source\PSoC5/CapSense_1.c ****     #if (CapSense_1_DESIGN_TYPE == CapSense_1_TWO_CHANNELS_DESIGN) 
 556:.\Generated_Source\PSoC5/CapSense_1.c ****         CyIntDisable(CapSense_1_IsrCH1_ISR_NUMBER);
 557:.\Generated_Source\PSoC5/CapSense_1.c ****     #endif  /* CapSense_1_DESIGN_TYPE */
 558:.\Generated_Source\PSoC5/CapSense_1.c ****     
 559:.\Generated_Source\PSoC5/CapSense_1.c ****     /* Clear all sensors */
 560:.\Generated_Source\PSoC5/CapSense_1.c ****     CapSense_1_ClearSensors();
 482              		.loc 1 560 0
 483 001a FFF7FEFF 		bl	CapSense_1_ClearSensors
 561:.\Generated_Source\PSoC5/CapSense_1.c ****     
 562:.\Generated_Source\PSoC5/CapSense_1.c ****     /* Disable Prescaler */
 563:.\Generated_Source\PSoC5/CapSense_1.c ****     #if (CapSense_1_PRESCALER_OPTIONS == CapSense_1_PRESCALER_UDB)
 564:.\Generated_Source\PSoC5/CapSense_1.c ****         /* Do nothing  for UDB */
 565:.\Generated_Source\PSoC5/CapSense_1.c ****     #elif (CapSense_1_PRESCALER_OPTIONS == CapSense_1_PRESCALER_FF)        
 566:.\Generated_Source\PSoC5/CapSense_1.c ****         CapSense_1_PRESCALER_ACT_PWRMGR_REG  &= ~CapSense_1_PRESCALER_ACT_PWR_EN;
 567:.\Generated_Source\PSoC5/CapSense_1.c ****         CapSense_1_PRESCALER_STBY_PWRMGR_REG &= ~CapSense_1_PRESCALER_STBY_PWR_EN;
 568:.\Generated_Source\PSoC5/CapSense_1.c ****         
 569:.\Generated_Source\PSoC5/CapSense_1.c ****     #else
 570:.\Generated_Source\PSoC5/CapSense_1.c ****         /* Do nothing = config without prescaler */
 571:.\Generated_Source\PSoC5/CapSense_1.c ****     #endif  /* (CapSense_1_PRESCALER_OPTIONS == CapSense_1_PRESCALER_UDB) */
 572:.\Generated_Source\PSoC5/CapSense_1.c ****     
 573:.\Generated_Source\PSoC5/CapSense_1.c ****     /* Disable ScanSpeed */
 574:.\Generated_Source\PSoC5/CapSense_1.c ****     CapSense_1_SCANSPEED_AUX_CONTROL_REG &= (uint8)(~CapSense_1_SCANSPEED_CTRL_ENABLE);
 484              		.loc 1 574 0
 485 001e 194A     		ldr	r2, .L12+8
 486 0020 184B     		ldr	r3, .L12+8
 487 0022 1B78     		ldrb	r3, [r3]
 488 0024 DBB2     		uxtb	r3, r3
 489 0026 23F02003 		bic	r3, r3, #32
 490 002a DBB2     		uxtb	r3, r3
 491 002c 1370     		strb	r3, [r2]
 575:.\Generated_Source\PSoC5/CapSense_1.c ****     
 576:.\Generated_Source\PSoC5/CapSense_1.c ****     /* Disable Measure CH0 */
 577:.\Generated_Source\PSoC5/CapSense_1.c ****     #if (CapSense_1_IMPLEMENTATION_CH0 == CapSense_1_MEASURE_IMPLEMENTATION_FF)
 578:.\Generated_Source\PSoC5/CapSense_1.c ****         /* Window PWM */
 579:.\Generated_Source\PSoC5/CapSense_1.c ****         CapSense_1_PWM_CH0_ACT_PWRMGR_REG  &= ~CapSense_1_PWM_CH0_ACT_PWR_EN;
 580:.\Generated_Source\PSoC5/CapSense_1.c ****         CapSense_1_PWM_CH0_STBY_PWRMGR_REG &= ~CapSense_1_PWM_CH0_STBY_PWR_EN;
 581:.\Generated_Source\PSoC5/CapSense_1.c **** 
 582:.\Generated_Source\PSoC5/CapSense_1.c ****         /* Raw Counter */
 583:.\Generated_Source\PSoC5/CapSense_1.c ****         CapSense_1_RAW_CH0_ACT_PWRMGR_REG  &= ~CapSense_1_RAW_CH0_ACT_PWR_EN;
 584:.\Generated_Source\PSoC5/CapSense_1.c ****         CapSense_1_RAW_CH0_STBY_PWRMGR_REG &= ~CapSense_1_RAW_CH0_STBY_PWR_EN;
 585:.\Generated_Source\PSoC5/CapSense_1.c **** 
 586:.\Generated_Source\PSoC5/CapSense_1.c ****     #else
 587:.\Generated_Source\PSoC5/CapSense_1.c ****         /* Window PWM -  Do nothing */
 588:.\Generated_Source\PSoC5/CapSense_1.c ****         /* Raw Counter - Do nothing */
 589:.\Generated_Source\PSoC5/CapSense_1.c ****         
 590:.\Generated_Source\PSoC5/CapSense_1.c ****     #endif  /* (CapSense_1_IMPLEMENTATION_CH0 == CapSense_1_MEASURE_IMPLEMENTATION_FF) */ 
 591:.\Generated_Source\PSoC5/CapSense_1.c ****     
ARM GAS  C:\Users\Robert\AppData\Local\Temp\ccZodlkd.s 			page 20


 592:.\Generated_Source\PSoC5/CapSense_1.c ****     /* Disable Measure CH1 */
 593:.\Generated_Source\PSoC5/CapSense_1.c ****     #if (CapSense_1_DESIGN_TYPE == CapSense_1_TWO_CHANNELS_DESIGN)
 594:.\Generated_Source\PSoC5/CapSense_1.c ****         #if (CapSense_1_IMPLEMENTATION_CH1 == CapSense_1_MEASURE_IMPLEMENTATION_FF)
 595:.\Generated_Source\PSoC5/CapSense_1.c ****             /* Window PWM */
 596:.\Generated_Source\PSoC5/CapSense_1.c ****             CapSense_1_PWM_CH1_ACT_PWRMGR_REG  &= ~CapSense_1_PWM_CH1_ACT_PWR_EN;
 597:.\Generated_Source\PSoC5/CapSense_1.c ****             CapSense_1_PWM_CH1_STBY_PWRMGR_REG &= ~CapSense_1_PWM_CH1_STBY_PWR_EN;
 598:.\Generated_Source\PSoC5/CapSense_1.c ****     
 599:.\Generated_Source\PSoC5/CapSense_1.c ****             /* Raw Counter */
 600:.\Generated_Source\PSoC5/CapSense_1.c ****             CapSense_1_RAW_CH1_ACT_PWRMGR_REG  &= ~CapSense_1_RAW_CH1_ACT_PWR_EN;
 601:.\Generated_Source\PSoC5/CapSense_1.c ****             CapSense_1_RAW_CH1_STBY_PWRMGR_REG &= ~CapSense_1_RAW_CH1_STBY_PWR_EN;
 602:.\Generated_Source\PSoC5/CapSense_1.c ****            
 603:.\Generated_Source\PSoC5/CapSense_1.c ****         #else
 604:.\Generated_Source\PSoC5/CapSense_1.c ****         /* Window PWM -  Do nothing */
 605:.\Generated_Source\PSoC5/CapSense_1.c ****         /* Raw Counter - Do nothing */
 606:.\Generated_Source\PSoC5/CapSense_1.c ****         
 607:.\Generated_Source\PSoC5/CapSense_1.c ****         #endif  /* (CapSense_1_IMPLEMENTATION_CH1 == CapSense_1_MEASURE_IMPLEMENTATION_FF) */
 608:.\Generated_Source\PSoC5/CapSense_1.c ****     
 609:.\Generated_Source\PSoC5/CapSense_1.c ****     #endif  /* (CapSense_1_DESIGN_TYPE == TWO_CHANNELS_DESIGN)*/
 610:.\Generated_Source\PSoC5/CapSense_1.c ****     
 611:.\Generated_Source\PSoC5/CapSense_1.c ****     /* Disable the Clock */
 612:.\Generated_Source\PSoC5/CapSense_1.c ****     #if (CapSense_1_CLOCK_SOURCE == CapSense_1_INTERNAL_CLOCK)
 613:.\Generated_Source\PSoC5/CapSense_1.c ****        CapSense_1_IntClock_Stop();
 492              		.loc 1 613 0
 493 002e FFF7FEFF 		bl	CapSense_1_IntClock_Stop
 614:.\Generated_Source\PSoC5/CapSense_1.c ****     #endif  /* CapSense_1_CLOCK_SOURCE */
 615:.\Generated_Source\PSoC5/CapSense_1.c ****     
 616:.\Generated_Source\PSoC5/CapSense_1.c ****     /* Disable power from Cmp and Idac */
 617:.\Generated_Source\PSoC5/CapSense_1.c ****     CapSense_1_CompCH0_Stop();
 494              		.loc 1 617 0
 495 0032 FFF7FEFF 		bl	CapSense_1_CompCH0_Stop
 618:.\Generated_Source\PSoC5/CapSense_1.c ****     #if (CapSense_1_CURRENT_SOURCE)
 619:.\Generated_Source\PSoC5/CapSense_1.c ****         CapSense_1_IdacCH0_Stop();
 496              		.loc 1 619 0
 497 0036 FFF7FEFF 		bl	CapSense_1_IdacCH0_Stop
 620:.\Generated_Source\PSoC5/CapSense_1.c ****     #endif  /* CapSense_1_CURRENT_SOURCE */
 621:.\Generated_Source\PSoC5/CapSense_1.c ****     
 622:.\Generated_Source\PSoC5/CapSense_1.c ****     #if (CapSense_1_DESIGN_TYPE == CapSense_1_TWO_CHANNELS_DESIGN) 
 623:.\Generated_Source\PSoC5/CapSense_1.c ****         CapSense_1_CompCH1_Stop();
 624:.\Generated_Source\PSoC5/CapSense_1.c ****         #if (CapSense_1_CURRENT_SOURCE)
 625:.\Generated_Source\PSoC5/CapSense_1.c ****             CapSense_1_IdacCH1_Stop();
 626:.\Generated_Source\PSoC5/CapSense_1.c ****         #endif  /* CapSense_1_CURRENT_SOURCE */
 627:.\Generated_Source\PSoC5/CapSense_1.c ****     #endif  /* CapSense_1_DESIGN_TYPE */    
 628:.\Generated_Source\PSoC5/CapSense_1.c ****     
 629:.\Generated_Source\PSoC5/CapSense_1.c ****     /* Disable Vref if as VDAC */
 630:.\Generated_Source\PSoC5/CapSense_1.c ****     #if (CapSense_1_VREF_OPTIONS == CapSense_1_VREF_VDAC)
 631:.\Generated_Source\PSoC5/CapSense_1.c ****         CapSense_1_VdacRefCH0_Stop();
 632:.\Generated_Source\PSoC5/CapSense_1.c ****         #if (CapSense_1_DESIGN_TYPE == CapSense_1_TWO_CHANNELS_DESIGN)
 633:.\Generated_Source\PSoC5/CapSense_1.c ****             CapSense_1_VdacRefCH1_Stop();
 634:.\Generated_Source\PSoC5/CapSense_1.c ****         #endif  /* CapSense_1_DESIGN_TYPE */
 635:.\Generated_Source\PSoC5/CapSense_1.c ****     #endif  /* CapSense_1_VREF_OPTIONS */
 636:.\Generated_Source\PSoC5/CapSense_1.c **** 
 637:.\Generated_Source\PSoC5/CapSense_1.c ****     #if (CapSense_1_VREF_VDAC == CapSense_1_VREF_OPTIONS)
 638:.\Generated_Source\PSoC5/CapSense_1.c ****         /* The Idac turn off before */
 639:.\Generated_Source\PSoC5/CapSense_1.c ****     #else
 640:.\Generated_Source\PSoC5/CapSense_1.c ****         /* Enable CapSense Buf */
 641:.\Generated_Source\PSoC5/CapSense_1.c ****         CapSense_1_BufCH0_CAPS_CFG0_REG &= (uint8)(~CapSense_1_CSBUF_ENABLE);
 498              		.loc 1 641 0
ARM GAS  C:\Users\Robert\AppData\Local\Temp\ccZodlkd.s 			page 21


 499 003a 134A     		ldr	r2, .L12+12
 500 003c 124B     		ldr	r3, .L12+12
 501 003e 1B78     		ldrb	r3, [r3]
 502 0040 DBB2     		uxtb	r3, r3
 503 0042 23F00103 		bic	r3, r3, #1
 504 0046 DBB2     		uxtb	r3, r3
 505 0048 1370     		strb	r3, [r2]
 642:.\Generated_Source\PSoC5/CapSense_1.c ****         CapSense_1_BufCH0_ACT_PWRMGR_REG &= (uint8)(~CapSense_1_BufCH0_ACT_PWR_EN);
 506              		.loc 1 642 0
 507 004a 104A     		ldr	r2, .L12+16
 508 004c 0F4B     		ldr	r3, .L12+16
 509 004e 1B78     		ldrb	r3, [r3]
 510 0050 DBB2     		uxtb	r3, r3
 511 0052 23F01003 		bic	r3, r3, #16
 512 0056 DBB2     		uxtb	r3, r3
 513 0058 1370     		strb	r3, [r2]
 643:.\Generated_Source\PSoC5/CapSense_1.c ****         CapSense_1_BufCH0_STBY_PWRMGR_REG &= (uint8)(~CapSense_1_BufCH0_STBY_PWR_EN);
 514              		.loc 1 643 0
 515 005a 0D4A     		ldr	r2, .L12+20
 516 005c 0C4B     		ldr	r3, .L12+20
 517 005e 1B78     		ldrb	r3, [r3]
 518 0060 DBB2     		uxtb	r3, r3
 519 0062 23F01003 		bic	r3, r3, #16
 520 0066 DBB2     		uxtb	r3, r3
 521 0068 1370     		strb	r3, [r2]
 644:.\Generated_Source\PSoC5/CapSense_1.c ****         
 645:.\Generated_Source\PSoC5/CapSense_1.c ****         #if (CapSense_1_DESIGN_TYPE == CapSense_1_TWO_CHANNELS_DESIGN)
 646:.\Generated_Source\PSoC5/CapSense_1.c ****             CapSense_1_BufCH1_CAPS_CFG0_REG &= (uint8)(~CapSense_1_CSBUF_ENABLE);
 647:.\Generated_Source\PSoC5/CapSense_1.c ****             CapSense_1_BufCH1_ACT_PWRMGR_REG &= (uint8)(~CapSense_1_BufCH1_ACT_PWR_EN);
 648:.\Generated_Source\PSoC5/CapSense_1.c ****             CapSense_1_BufCH1_STBY_PWRMGR_REG &= (uint8)(~CapSense_1_BufCH1_STBY_PWR_EN);
 649:.\Generated_Source\PSoC5/CapSense_1.c ****         #endif  /*(CapSense_1_DESIGN_TYPE == CapSense_1_TWO_CHANNELS_DESIGN) */
 650:.\Generated_Source\PSoC5/CapSense_1.c ****     #endif  /* (CapSense_1_VREF_VDAC == CapSense_1_VREF_OPTIONS) */
 651:.\Generated_Source\PSoC5/CapSense_1.c ****     
 652:.\Generated_Source\PSoC5/CapSense_1.c ****     /* Set CapSense Disable state */
 653:.\Generated_Source\PSoC5/CapSense_1.c ****     CapSense_1_CONTROL_REG &= (uint8)(~CapSense_1_CTRL_CAPSENSE_EN);
 522              		.loc 1 653 0
 523 006a 044A     		ldr	r2, .L12
 524 006c 034B     		ldr	r3, .L12
 525 006e 1B78     		ldrb	r3, [r3]
 526 0070 DBB2     		uxtb	r3, r3
 527 0072 03F07F03 		and	r3, r3, #127
 528 0076 DBB2     		uxtb	r3, r3
 529 0078 1370     		strb	r3, [r2]
 654:.\Generated_Source\PSoC5/CapSense_1.c **** }
 530              		.loc 1 654 0
 531 007a 80BD     		pop	{r7, pc}
 532              	.L13:
 533              		.align	2
 534              	.L12:
 535 007c 74650040 		.word	1073767796
 536 0080 80E100E0 		.word	-536813184
 537 0084 96640040 		.word	1073767574
 538 0088 70580040 		.word	1073764464
 539 008c AB430040 		.word	1073759147
 540 0090 BB430040 		.word	1073759163
 541              		.cfi_endproc
 542              	.LFE3:
ARM GAS  C:\Users\Robert\AppData\Local\Temp\ccZodlkd.s 			page 22


 543              		.size	CapSense_1_Stop, .-CapSense_1_Stop
 544              		.section	.text.CapSense_1_FindNextSensor,"ax",%progbits
 545              		.align	2
 546              		.global	CapSense_1_FindNextSensor
 547              		.thumb
 548              		.thumb_func
 549              		.type	CapSense_1_FindNextSensor, %function
 550              	CapSense_1_FindNextSensor:
 551              	.LFB4:
 655:.\Generated_Source\PSoC5/CapSense_1.c **** 
 656:.\Generated_Source\PSoC5/CapSense_1.c **** 
 657:.\Generated_Source\PSoC5/CapSense_1.c **** #if (CapSense_1_DESIGN_TYPE == CapSense_1_ONE_CHANNEL_DESIGN)
 658:.\Generated_Source\PSoC5/CapSense_1.c ****     /*******************************************************************************
 659:.\Generated_Source\PSoC5/CapSense_1.c ****     * Function Name: CapSense_1_FindNextSensor
 660:.\Generated_Source\PSoC5/CapSense_1.c ****     ********************************************************************************
 661:.\Generated_Source\PSoC5/CapSense_1.c ****     *
 662:.\Generated_Source\PSoC5/CapSense_1.c ****     * Summary:
 663:.\Generated_Source\PSoC5/CapSense_1.c ****     *  Finds next sensor to scan. 
 664:.\Generated_Source\PSoC5/CapSense_1.c ****     *
 665:.\Generated_Source\PSoC5/CapSense_1.c ****     * Parameters:
 666:.\Generated_Source\PSoC5/CapSense_1.c ****     *  snsIndex:  Current index of sensor.
 667:.\Generated_Source\PSoC5/CapSense_1.c ****     *
 668:.\Generated_Source\PSoC5/CapSense_1.c ****     * Return:
 669:.\Generated_Source\PSoC5/CapSense_1.c ****     *  Returns the next sensor index to scan.
 670:.\Generated_Source\PSoC5/CapSense_1.c ****     *
 671:.\Generated_Source\PSoC5/CapSense_1.c ****     * Global Variables:
 672:.\Generated_Source\PSoC5/CapSense_1.c ****     *  CapSense_1_sensorEnableMask[ ] - used to store bit masks of enabled 
 673:.\Generated_Source\PSoC5/CapSense_1.c ****     *  sensors.
 674:.\Generated_Source\PSoC5/CapSense_1.c ****     *  CapSense_1_sensorEnableMask[0] contains the masked bits for sensors 0
 675:.\Generated_Source\PSoC5/CapSense_1.c ****     *  through 7 (sensor 0 is bit 0, sensor 1 is bit 1).
 676:.\Generated_Source\PSoC5/CapSense_1.c ****     *  CapSense_1_sensorEnableMask[1] contains the masked bits for sensors 
 677:.\Generated_Source\PSoC5/CapSense_1.c ****     *  8 through 15 (if needed), and so on.
 678:.\Generated_Source\PSoC5/CapSense_1.c ****     *    0 - sensor doesn't scan by CapSense_1_ScanEnabledWidgets().
 679:.\Generated_Source\PSoC5/CapSense_1.c ****     *    1 - sensor scans by CapSense_1_ScanEnabledWidgets().
 680:.\Generated_Source\PSoC5/CapSense_1.c ****     *
 681:.\Generated_Source\PSoC5/CapSense_1.c ****     * Note: 
 682:.\Generated_Source\PSoC5/CapSense_1.c ****     *  This function has effect on current scanning scanning and should not
 683:.\Generated_Source\PSoC5/CapSense_1.c ****     *  be used outisde of component.
 684:.\Generated_Source\PSoC5/CapSense_1.c ****     *
 685:.\Generated_Source\PSoC5/CapSense_1.c ****     *******************************************************************************/
 686:.\Generated_Source\PSoC5/CapSense_1.c ****     uint8 CapSense_1_FindNextSensor(uint8 snsIndex) CYREENTRANT
 687:.\Generated_Source\PSoC5/CapSense_1.c ****     {
 552              		.loc 1 687 0
 553              		.cfi_startproc
 554              		@ args = 0, pretend = 0, frame = 16
 555              		@ frame_needed = 1, uses_anonymous_args = 0
 556              		@ link register save eliminated.
 557 0000 80B4     		push	{r7}
 558              		.cfi_def_cfa_offset 4
 559              		.cfi_offset 7, -4
 560 0002 85B0     		sub	sp, sp, #20
 561              		.cfi_def_cfa_offset 24
 562 0004 00AF     		add	r7, sp, #0
 563              		.cfi_def_cfa_register 7
 564 0006 0346     		mov	r3, r0
 565 0008 FB71     		strb	r3, [r7, #7]
 566              	.L17:
ARM GAS  C:\Users\Robert\AppData\Local\Temp\ccZodlkd.s 			page 23


 688:.\Generated_Source\PSoC5/CapSense_1.c ****         uint8 pos;
 689:.\Generated_Source\PSoC5/CapSense_1.c ****         uint8 enMask;
 690:.\Generated_Source\PSoC5/CapSense_1.c ****         
 691:.\Generated_Source\PSoC5/CapSense_1.c ****         /* Check if sensor enabled */
 692:.\Generated_Source\PSoC5/CapSense_1.c ****         do
 693:.\Generated_Source\PSoC5/CapSense_1.c ****         {
 694:.\Generated_Source\PSoC5/CapSense_1.c ****             /* Proceed with the next sensor */
 695:.\Generated_Source\PSoC5/CapSense_1.c ****             snsIndex++;
 567              		.loc 1 695 0
 568 000a FB79     		ldrb	r3, [r7, #7]	@ zero_extendqisi2
 569 000c 0133     		adds	r3, r3, #1
 570 000e FB71     		strb	r3, [r7, #7]
 696:.\Generated_Source\PSoC5/CapSense_1.c ****             if(snsIndex == CapSense_1_TOTAL_SENSOR_COUNT)
 571              		.loc 1 696 0
 572 0010 FB79     		ldrb	r3, [r7, #7]	@ zero_extendqisi2
 573 0012 082B     		cmp	r3, #8
 574 0014 00D1     		bne	.L15
 697:.\Generated_Source\PSoC5/CapSense_1.c ****             {
 698:.\Generated_Source\PSoC5/CapSense_1.c ****                 break;
 575              		.loc 1 698 0
 576 0016 11E0     		b	.L16
 577              	.L15:
 699:.\Generated_Source\PSoC5/CapSense_1.c ****             }
 700:.\Generated_Source\PSoC5/CapSense_1.c ****             pos = (snsIndex >> 3u);
 578              		.loc 1 700 0
 579 0018 FB79     		ldrb	r3, [r7, #7]	@ zero_extendqisi2
 580 001a DB08     		lsrs	r3, r3, #3
 581 001c FB73     		strb	r3, [r7, #15]
 701:.\Generated_Source\PSoC5/CapSense_1.c ****             enMask = 0x01u << (snsIndex & 0x07u);
 582              		.loc 1 701 0
 583 001e FB79     		ldrb	r3, [r7, #7]	@ zero_extendqisi2
 584 0020 03F00703 		and	r3, r3, #7
 585 0024 0122     		movs	r2, #1
 586 0026 02FA03F3 		lsl	r3, r2, r3
 587 002a BB73     		strb	r3, [r7, #14]
 702:.\Generated_Source\PSoC5/CapSense_1.c ****         }    
 703:.\Generated_Source\PSoC5/CapSense_1.c ****         while((CapSense_1_sensorEnableMask[pos] & enMask) == 0u);
 588              		.loc 1 703 0
 589 002c FB7B     		ldrb	r3, [r7, #15]	@ zero_extendqisi2
 590 002e 074A     		ldr	r2, .L19
 591 0030 D25C     		ldrb	r2, [r2, r3]	@ zero_extendqisi2
 592 0032 BB7B     		ldrb	r3, [r7, #14]
 593 0034 1340     		ands	r3, r3, r2
 594 0036 DBB2     		uxtb	r3, r3
 595 0038 002B     		cmp	r3, #0
 596 003a E6D0     		beq	.L17
 597              	.L16:
 704:.\Generated_Source\PSoC5/CapSense_1.c ****         
 705:.\Generated_Source\PSoC5/CapSense_1.c ****         return snsIndex;
 598              		.loc 1 705 0
 599 003c FB79     		ldrb	r3, [r7, #7]	@ zero_extendqisi2
 706:.\Generated_Source\PSoC5/CapSense_1.c ****     }
 600              		.loc 1 706 0
 601 003e 1846     		mov	r0, r3
 602 0040 1437     		adds	r7, r7, #20
 603              		.cfi_def_cfa_offset 4
 604 0042 BD46     		mov	sp, r7
ARM GAS  C:\Users\Robert\AppData\Local\Temp\ccZodlkd.s 			page 24


 605              		.cfi_def_cfa_register 13
 606              		@ sp needed
 607 0044 5DF8047B 		ldr	r7, [sp], #4
 608              		.cfi_restore 7
 609              		.cfi_def_cfa_offset 0
 610 0048 7047     		bx	lr
 611              	.L20:
 612 004a 00BF     		.align	2
 613              	.L19:
 614 004c 00000000 		.word	CapSense_1_sensorEnableMask
 615              		.cfi_endproc
 616              	.LFE4:
 617              		.size	CapSense_1_FindNextSensor, .-CapSense_1_FindNextSensor
 618              		.section	.text.CapSense_1_SetScanSlotSettings,"ax",%progbits
 619              		.align	2
 620              		.global	CapSense_1_SetScanSlotSettings
 621              		.thumb
 622              		.thumb_func
 623              		.type	CapSense_1_SetScanSlotSettings, %function
 624              	CapSense_1_SetScanSlotSettings:
 625              	.LFB5:
 707:.\Generated_Source\PSoC5/CapSense_1.c ****  #endif  /* CapSense_1_DESIGN_TYPE == CapSense_1_ONE_CHANNEL_DESIGN */
 708:.\Generated_Source\PSoC5/CapSense_1.c ****  
 709:.\Generated_Source\PSoC5/CapSense_1.c ****  
 710:.\Generated_Source\PSoC5/CapSense_1.c **** #if (CapSense_1_DESIGN_TYPE == CapSense_1_TWO_CHANNELS_DESIGN)
 711:.\Generated_Source\PSoC5/CapSense_1.c ****     /*******************************************************************************
 712:.\Generated_Source\PSoC5/CapSense_1.c ****     * Function Name: CapSense_1_FindNextPair
 713:.\Generated_Source\PSoC5/CapSense_1.c ****     ********************************************************************************
 714:.\Generated_Source\PSoC5/CapSense_1.c ****     *
 715:.\Generated_Source\PSoC5/CapSense_1.c ****     * Summary:
 716:.\Generated_Source\PSoC5/CapSense_1.c ****     *  Finds next pair or sensor to scan. Sets condition bits to skip scanning.
 717:.\Generated_Source\PSoC5/CapSense_1.c ****     *  
 718:.\Generated_Source\PSoC5/CapSense_1.c ****     * Parameters:
 719:.\Generated_Source\PSoC5/CapSense_1.c ****     *  snsIndex:  Current index pair of sensors.
 720:.\Generated_Source\PSoC5/CapSense_1.c ****     *
 721:.\Generated_Source\PSoC5/CapSense_1.c ****     * Return:
 722:.\Generated_Source\PSoC5/CapSense_1.c ****     *  Returns the next pair of sensors index to scan.
 723:.\Generated_Source\PSoC5/CapSense_1.c ****     *
 724:.\Generated_Source\PSoC5/CapSense_1.c ****     * Global Variables:
 725:.\Generated_Source\PSoC5/CapSense_1.c ****     *  CapSense_1_sensorEnableMask[ ] - used to store bit masks of enabled 
 726:.\Generated_Source\PSoC5/CapSense_1.c ****     *  sensors.
 727:.\Generated_Source\PSoC5/CapSense_1.c ****     *  CapSense_1_sensorEnableMask[0] contains the masked bits for sensors 0
 728:.\Generated_Source\PSoC5/CapSense_1.c ****     *  through 7 (sensor 0 is bit 0, sensor 1 is bit 1).
 729:.\Generated_Source\PSoC5/CapSense_1.c ****     *  CapSense_1_sensorEnableMask[1] contains the masked bits for sensors 
 730:.\Generated_Source\PSoC5/CapSense_1.c ****     *  8 through 15 (if needed), and so on.
 731:.\Generated_Source\PSoC5/CapSense_1.c ****     *    0 - sensor doesn't scan by CapSense_1_ScanEnabledWidgets().
 732:.\Generated_Source\PSoC5/CapSense_1.c ****     *    1 - sensor scans by CapSense_1_ScanEnabledWidgets().
 733:.\Generated_Source\PSoC5/CapSense_1.c ****     *
 734:.\Generated_Source\PSoC5/CapSense_1.c ****     * Note: 
 735:.\Generated_Source\PSoC5/CapSense_1.c ****     *  This function has effect on control signals set for scanning and should not
 736:.\Generated_Source\PSoC5/CapSense_1.c ****     *  be used outisde of component.
 737:.\Generated_Source\PSoC5/CapSense_1.c ****     *
 738:.\Generated_Source\PSoC5/CapSense_1.c ****     *******************************************************************************/
 739:.\Generated_Source\PSoC5/CapSense_1.c ****     uint8 CapSense_1_FindNextPair(uint8 snsIndex) CYREENTRANT
 740:.\Generated_Source\PSoC5/CapSense_1.c ****     {
 741:.\Generated_Source\PSoC5/CapSense_1.c ****         uint8 posCh;
 742:.\Generated_Source\PSoC5/CapSense_1.c ****         uint8 enMaskCh;
ARM GAS  C:\Users\Robert\AppData\Local\Temp\ccZodlkd.s 			page 25


 743:.\Generated_Source\PSoC5/CapSense_1.c ****         uint8 newRegValue;
 744:.\Generated_Source\PSoC5/CapSense_1.c ****         uint8 indexCh0 = snsIndex;
 745:.\Generated_Source\PSoC5/CapSense_1.c ****         uint8 indexCh1 = snsIndex + CapSense_1_TOTAL_SENSOR_COUNT__CH0;
 746:.\Generated_Source\PSoC5/CapSense_1.c ****         
 747:.\Generated_Source\PSoC5/CapSense_1.c ****         /* Find enabled sensor on channel 0 */
 748:.\Generated_Source\PSoC5/CapSense_1.c ****         do
 749:.\Generated_Source\PSoC5/CapSense_1.c ****         {
 750:.\Generated_Source\PSoC5/CapSense_1.c ****             /* Procced the scanning */
 751:.\Generated_Source\PSoC5/CapSense_1.c ****             indexCh0++;
 752:.\Generated_Source\PSoC5/CapSense_1.c ****             if (indexCh0 >= CapSense_1_TOTAL_SENSOR_COUNT__CH0)
 753:.\Generated_Source\PSoC5/CapSense_1.c ****             {
 754:.\Generated_Source\PSoC5/CapSense_1.c ****                 /* Lets hadle now all from CH1 */
 755:.\Generated_Source\PSoC5/CapSense_1.c ****                 indexCh0 = CapSense_1_END_OF_SCAN__CH0;
 756:.\Generated_Source\PSoC5/CapSense_1.c ****                 break;
 757:.\Generated_Source\PSoC5/CapSense_1.c ****             }
 758:.\Generated_Source\PSoC5/CapSense_1.c ****             
 759:.\Generated_Source\PSoC5/CapSense_1.c ****             posCh = (indexCh0 >> 3u);
 760:.\Generated_Source\PSoC5/CapSense_1.c ****             enMaskCh = 0x01u << (indexCh0 & 0x07u);
 761:.\Generated_Source\PSoC5/CapSense_1.c ****         }
 762:.\Generated_Source\PSoC5/CapSense_1.c ****         while((CapSense_1_sensorEnableMask[posCh] & enMaskCh) == 0u);
 763:.\Generated_Source\PSoC5/CapSense_1.c ****         
 764:.\Generated_Source\PSoC5/CapSense_1.c ****         /* Find enabled sensor on channel 1 */
 765:.\Generated_Source\PSoC5/CapSense_1.c ****         do
 766:.\Generated_Source\PSoC5/CapSense_1.c ****         {
 767:.\Generated_Source\PSoC5/CapSense_1.c ****             /* Procced the scanning */
 768:.\Generated_Source\PSoC5/CapSense_1.c ****             indexCh1++;        
 769:.\Generated_Source\PSoC5/CapSense_1.c ****             if (indexCh1 >= CapSense_1_TOTAL_SENSOR_COUNT)
 770:.\Generated_Source\PSoC5/CapSense_1.c ****             {
 771:.\Generated_Source\PSoC5/CapSense_1.c ****                 /* Lets hadle now all from CH0 */
 772:.\Generated_Source\PSoC5/CapSense_1.c ****                 indexCh1 = CapSense_1_END_OF_SCAN__CH1;
 773:.\Generated_Source\PSoC5/CapSense_1.c ****                 break;
 774:.\Generated_Source\PSoC5/CapSense_1.c ****             }
 775:.\Generated_Source\PSoC5/CapSense_1.c ****             
 776:.\Generated_Source\PSoC5/CapSense_1.c ****             posCh = (indexCh1 >> 3u);
 777:.\Generated_Source\PSoC5/CapSense_1.c ****             enMaskCh = 0x01u << (indexCh1 & 0x07u);
 778:.\Generated_Source\PSoC5/CapSense_1.c ****         } 
 779:.\Generated_Source\PSoC5/CapSense_1.c ****         while((CapSense_1_sensorEnableMask[posCh] & enMaskCh) == 0u);
 780:.\Generated_Source\PSoC5/CapSense_1.c ****         
 781:.\Generated_Source\PSoC5/CapSense_1.c ****         indexCh1 -= CapSense_1_TOTAL_SENSOR_COUNT__CH0;
 782:.\Generated_Source\PSoC5/CapSense_1.c ****         
 783:.\Generated_Source\PSoC5/CapSense_1.c ****         /* Find the pair to scan */
 784:.\Generated_Source\PSoC5/CapSense_1.c ****         if(indexCh0 == indexCh1)
 785:.\Generated_Source\PSoC5/CapSense_1.c ****         {
 786:.\Generated_Source\PSoC5/CapSense_1.c ****             /* Scans TWO Channels */
 787:.\Generated_Source\PSoC5/CapSense_1.c ****             snsIndex = indexCh0;
 788:.\Generated_Source\PSoC5/CapSense_1.c ****             
 789:.\Generated_Source\PSoC5/CapSense_1.c ****             CapSense_1_CONTROL_REG |= (CapSense_1_CTRL_WINDOW_EN__CH0 | 
 790:.\Generated_Source\PSoC5/CapSense_1.c ****                                              CapSense_1_CTRL_WINDOW_EN__CH1);
 791:.\Generated_Source\PSoC5/CapSense_1.c ****         }
 792:.\Generated_Source\PSoC5/CapSense_1.c ****         else if(indexCh0 < indexCh1)
 793:.\Generated_Source\PSoC5/CapSense_1.c ****         {
 794:.\Generated_Source\PSoC5/CapSense_1.c ****            /* Scans Channel ONE only */
 795:.\Generated_Source\PSoC5/CapSense_1.c ****            snsIndex = indexCh0;
 796:.\Generated_Source\PSoC5/CapSense_1.c ****            
 797:.\Generated_Source\PSoC5/CapSense_1.c ****             newRegValue = CapSense_1_CONTROL_REG;
 798:.\Generated_Source\PSoC5/CapSense_1.c ****             newRegValue |= CapSense_1_CTRL_WINDOW_EN__CH0;
 799:.\Generated_Source\PSoC5/CapSense_1.c ****             newRegValue &= ~CapSense_1_CTRL_WINDOW_EN__CH1;
ARM GAS  C:\Users\Robert\AppData\Local\Temp\ccZodlkd.s 			page 26


 800:.\Generated_Source\PSoC5/CapSense_1.c ****             CapSense_1_CONTROL_REG = newRegValue;
 801:.\Generated_Source\PSoC5/CapSense_1.c ****         }
 802:.\Generated_Source\PSoC5/CapSense_1.c ****         else
 803:.\Generated_Source\PSoC5/CapSense_1.c ****         {
 804:.\Generated_Source\PSoC5/CapSense_1.c ****             /* Scans Channel TWO only */
 805:.\Generated_Source\PSoC5/CapSense_1.c ****             snsIndex = indexCh1;
 806:.\Generated_Source\PSoC5/CapSense_1.c ****             
 807:.\Generated_Source\PSoC5/CapSense_1.c ****             newRegValue = CapSense_1_CONTROL_REG;
 808:.\Generated_Source\PSoC5/CapSense_1.c ****             newRegValue |= CapSense_1_CTRL_WINDOW_EN__CH1;
 809:.\Generated_Source\PSoC5/CapSense_1.c ****             newRegValue &= ~CapSense_1_CTRL_WINDOW_EN__CH0;
 810:.\Generated_Source\PSoC5/CapSense_1.c ****             CapSense_1_CONTROL_REG = newRegValue;
 811:.\Generated_Source\PSoC5/CapSense_1.c ****         }
 812:.\Generated_Source\PSoC5/CapSense_1.c ****         
 813:.\Generated_Source\PSoC5/CapSense_1.c ****         return (snsIndex);
 814:.\Generated_Source\PSoC5/CapSense_1.c ****     }
 815:.\Generated_Source\PSoC5/CapSense_1.c **** #endif  /* CapSense_1_DESIGN_TYPE == CapSense_1_TWO_CHANNELS_DESIGN */
 816:.\Generated_Source\PSoC5/CapSense_1.c **** 
 817:.\Generated_Source\PSoC5/CapSense_1.c **** 
 818:.\Generated_Source\PSoC5/CapSense_1.c **** /*******************************************************************************
 819:.\Generated_Source\PSoC5/CapSense_1.c **** * Function Name: CapSense_1_SetScanSlotSettings
 820:.\Generated_Source\PSoC5/CapSense_1.c **** ********************************************************************************
 821:.\Generated_Source\PSoC5/CapSense_1.c **** *
 822:.\Generated_Source\PSoC5/CapSense_1.c **** * Summary:
 823:.\Generated_Source\PSoC5/CapSense_1.c **** *  Sets the scan settings of the selected scan slot (sensor or pair of sensors). 
 824:.\Generated_Source\PSoC5/CapSense_1.c **** *  The scan settings incorporate IDAC value (for IDAC configurations) for every 
 825:.\Generated_Source\PSoC5/CapSense_1.c **** *  sensor and resolution. The resolution is the same for all sensors within 
 826:.\Generated_Source\PSoC5/CapSense_1.c **** *  widget.
 827:.\Generated_Source\PSoC5/CapSense_1.c **** *
 828:.\Generated_Source\PSoC5/CapSense_1.c **** * Parameters:
 829:.\Generated_Source\PSoC5/CapSense_1.c **** *  slot:  Scan slot number (sensor or pair of sensors).
 830:.\Generated_Source\PSoC5/CapSense_1.c **** *
 831:.\Generated_Source\PSoC5/CapSense_1.c **** * Return:
 832:.\Generated_Source\PSoC5/CapSense_1.c **** *  None
 833:.\Generated_Source\PSoC5/CapSense_1.c **** *
 834:.\Generated_Source\PSoC5/CapSense_1.c **** * Global Variables:
 835:.\Generated_Source\PSoC5/CapSense_1.c **** *  CapSense_1_idacSettings[] - used to store idac value for every sensor.
 836:.\Generated_Source\PSoC5/CapSense_1.c **** *  CapSense_1_widgetResolution[] - used to store scan resolution of every 
 837:.\Generated_Source\PSoC5/CapSense_1.c **** *  widget.
 838:.\Generated_Source\PSoC5/CapSense_1.c **** *
 839:.\Generated_Source\PSoC5/CapSense_1.c **** *******************************************************************************/
 840:.\Generated_Source\PSoC5/CapSense_1.c **** void CapSense_1_SetScanSlotSettings(uint8 slot) CYREENTRANT
 841:.\Generated_Source\PSoC5/CapSense_1.c **** {
 626              		.loc 1 841 0
 627              		.cfi_startproc
 628              		@ args = 0, pretend = 0, frame = 16
 629              		@ frame_needed = 1, uses_anonymous_args = 0
 630 0000 80B5     		push	{r7, lr}
 631              		.cfi_def_cfa_offset 8
 632              		.cfi_offset 7, -8
 633              		.cfi_offset 14, -4
 634 0002 84B0     		sub	sp, sp, #16
 635              		.cfi_def_cfa_offset 24
 636 0004 00AF     		add	r7, sp, #0
 637              		.cfi_def_cfa_register 7
 638 0006 0346     		mov	r3, r0
 639 0008 FB71     		strb	r3, [r7, #7]
 842:.\Generated_Source\PSoC5/CapSense_1.c ****     uint8 widget;
ARM GAS  C:\Users\Robert\AppData\Local\Temp\ccZodlkd.s 			page 27


 843:.\Generated_Source\PSoC5/CapSense_1.c ****     
 844:.\Generated_Source\PSoC5/CapSense_1.c ****     #if (CapSense_1_DESIGN_TYPE == CapSense_1_ONE_CHANNEL_DESIGN)
 845:.\Generated_Source\PSoC5/CapSense_1.c ****         /* Define widget sensor belongs to */
 846:.\Generated_Source\PSoC5/CapSense_1.c ****         widget = CapSense_1_widgetNumber[slot];
 640              		.loc 1 846 0
 641 000a FB79     		ldrb	r3, [r7, #7]	@ zero_extendqisi2
 642 000c 0B4A     		ldr	r2, .L22
 643 000e D35C     		ldrb	r3, [r2, r3]
 644 0010 FB73     		strb	r3, [r7, #15]
 847:.\Generated_Source\PSoC5/CapSense_1.c ****         
 848:.\Generated_Source\PSoC5/CapSense_1.c ****         /* Set Idac Value */
 849:.\Generated_Source\PSoC5/CapSense_1.c ****         #if (CapSense_1_CURRENT_SOURCE)
 850:.\Generated_Source\PSoC5/CapSense_1.c ****             CapSense_1_IdacCH0_SetValue(CapSense_1_idacSettings[slot]);
 645              		.loc 1 850 0
 646 0012 FB79     		ldrb	r3, [r7, #7]	@ zero_extendqisi2
 647 0014 0A4A     		ldr	r2, .L22+4
 648 0016 D35C     		ldrb	r3, [r2, r3]	@ zero_extendqisi2
 649 0018 1846     		mov	r0, r3
 650 001a FFF7FEFF 		bl	CapSense_1_IdacCH0_SetValue
 851:.\Generated_Source\PSoC5/CapSense_1.c ****         #endif  /* CapSense_1_CURRENT_SOURCE */
 852:.\Generated_Source\PSoC5/CapSense_1.c ****         
 853:.\Generated_Source\PSoC5/CapSense_1.c ****         /* Window PWM */
 854:.\Generated_Source\PSoC5/CapSense_1.c ****         #if (CapSense_1_IMPLEMENTATION_CH0 == CapSense_1_MEASURE_IMPLEMENTATION_FF)
 855:.\Generated_Source\PSoC5/CapSense_1.c ****             CY_SET_REG16(CapSense_1_PWM_CH0_PERIOD_PTR,
 856:.\Generated_Source\PSoC5/CapSense_1.c ****                 ((uint16) CapSense_1_widgetResolution[widget] << 8u) | CapSense_1_MEASURE_FULL_RANG
 857:.\Generated_Source\PSoC5/CapSense_1.c ****         #else
 858:.\Generated_Source\PSoC5/CapSense_1.c ****             CapSense_1_PWM_CH0_PERIOD_HI_REG = CapSense_1_widgetResolution[widget];
 651              		.loc 1 858 0
 652 001e 094A     		ldr	r2, .L22+8
 653 0020 FB7B     		ldrb	r3, [r7, #15]	@ zero_extendqisi2
 654 0022 0949     		ldr	r1, .L22+12
 655 0024 CB5C     		ldrb	r3, [r1, r3]	@ zero_extendqisi2
 656 0026 1370     		strb	r3, [r2]
 859:.\Generated_Source\PSoC5/CapSense_1.c ****         #endif  /* (CapSense_1_IMPLEMENTATION_CH0 == CapSense_1_MEASURE_IMPLEMENTATION_FF) */ 
 860:.\Generated_Source\PSoC5/CapSense_1.c **** 
 861:.\Generated_Source\PSoC5/CapSense_1.c ****         #if ( (CapSense_1_MULTIPLE_PRESCALER_ENABLED) || \
 862:.\Generated_Source\PSoC5/CapSense_1.c ****               (CapSense_1_TUNING_METHOD == CapSense_1_AUTO_TUNING) )
 863:.\Generated_Source\PSoC5/CapSense_1.c ****             CapSense_1_SetPrescaler(CapSense_1_analogSwitchDivider[slot]);
 657              		.loc 1 863 0
 658 0028 FB79     		ldrb	r3, [r7, #7]	@ zero_extendqisi2
 659 002a 084A     		ldr	r2, .L22+16
 660 002c D35C     		ldrb	r3, [r2, r3]	@ zero_extendqisi2
 661 002e 1846     		mov	r0, r3
 662 0030 FFF7FEFF 		bl	CapSense_1_SetPrescaler
 864:.\Generated_Source\PSoC5/CapSense_1.c ****         #elif (CapSense_1_PRESCALER_OPTIONS)
 865:.\Generated_Source\PSoC5/CapSense_1.c ****             CapSense_1_SetPrescaler(CapSense_1_analogSwitchDivider);
 866:.\Generated_Source\PSoC5/CapSense_1.c ****         #endif /* ((CapSense_1_MULTIPLE_PRESCALER_ENABLED) || \
 867:.\Generated_Source\PSoC5/CapSense_1.c ****                *   (CapSense_1_TUNING_METHOD == CapSense_1_AUTO_TUNING))
 868:.\Generated_Source\PSoC5/CapSense_1.c ****                */
 869:.\Generated_Source\PSoC5/CapSense_1.c **** 
 870:.\Generated_Source\PSoC5/CapSense_1.c ****     #else
 871:.\Generated_Source\PSoC5/CapSense_1.c ****         if(slot < CapSense_1_TOTAL_SENSOR_COUNT__CH0)
 872:.\Generated_Source\PSoC5/CapSense_1.c ****         {
 873:.\Generated_Source\PSoC5/CapSense_1.c ****             /* Define widget sensor belongs to */
 874:.\Generated_Source\PSoC5/CapSense_1.c ****             widget = CapSense_1_widgetNumber[slot];
 875:.\Generated_Source\PSoC5/CapSense_1.c ****             
 876:.\Generated_Source\PSoC5/CapSense_1.c ****             /* Set Idac Value */
ARM GAS  C:\Users\Robert\AppData\Local\Temp\ccZodlkd.s 			page 28


 877:.\Generated_Source\PSoC5/CapSense_1.c ****             #if (CapSense_1_CURRENT_SOURCE)
 878:.\Generated_Source\PSoC5/CapSense_1.c ****                 CapSense_1_IdacCH0_SetValue(CapSense_1_idacSettings[slot]);
 879:.\Generated_Source\PSoC5/CapSense_1.c ****             #endif  /* CapSense_1_CURRENT_SOURCE */
 880:.\Generated_Source\PSoC5/CapSense_1.c ****             
 881:.\Generated_Source\PSoC5/CapSense_1.c ****             /* Set Pwm Resolution */
 882:.\Generated_Source\PSoC5/CapSense_1.c ****             #if (CapSense_1_IMPLEMENTATION_CH0 == CapSense_1_MEASURE_IMPLEMENTATION_FF)
 883:.\Generated_Source\PSoC5/CapSense_1.c ****                 CY_SET_REG16(CapSense_1_PWM_CH0_PERIOD_PTR,
 884:.\Generated_Source\PSoC5/CapSense_1.c ****                   ((uint16) CapSense_1_widgetResolution[widget] << 8u) | CapSense_1_MEASURE_FULL_RA
 885:.\Generated_Source\PSoC5/CapSense_1.c ****             #else
 886:.\Generated_Source\PSoC5/CapSense_1.c ****                 CapSense_1_PWM_CH0_PERIOD_HI_REG = CapSense_1_widgetResolution[widget];
 887:.\Generated_Source\PSoC5/CapSense_1.c ****             #endif  /* (CapSense_1_IMPLEMENTATION_CH0 == CapSense_1_MEASURE_IMPLEMENTATION_FF)*/ 
 888:.\Generated_Source\PSoC5/CapSense_1.c ****         }
 889:.\Generated_Source\PSoC5/CapSense_1.c ****         
 890:.\Generated_Source\PSoC5/CapSense_1.c ****         if(slot < CapSense_1_TOTAL_SENSOR_COUNT__CH1)
 891:.\Generated_Source\PSoC5/CapSense_1.c ****         {
 892:.\Generated_Source\PSoC5/CapSense_1.c ****             widget = CapSense_1_widgetNumber[slot+CapSense_1_TOTAL_SENSOR_COUNT__CH0];
 893:.\Generated_Source\PSoC5/CapSense_1.c ****         
 894:.\Generated_Source\PSoC5/CapSense_1.c ****             /* Set Idac Value */
 895:.\Generated_Source\PSoC5/CapSense_1.c ****             #if (CapSense_1_CURRENT_SOURCE)
 896:.\Generated_Source\PSoC5/CapSense_1.c ****                 CapSense_1_IdacCH1_SetValue(CapSense_1_idacSettings[slot+
 897:.\Generated_Source\PSoC5/CapSense_1.c ****                                                                              CapSense_1_TOTAL_SENSO
 898:.\Generated_Source\PSoC5/CapSense_1.c ****             #endif  /* CapSense_1_CURRENT_SOURCE */
 899:.\Generated_Source\PSoC5/CapSense_1.c ****             
 900:.\Generated_Source\PSoC5/CapSense_1.c ****             /* Set Pwm Resolution */
 901:.\Generated_Source\PSoC5/CapSense_1.c ****             #if (CapSense_1_IMPLEMENTATION_CH1 == CapSense_1_MEASURE_IMPLEMENTATION_FF)
 902:.\Generated_Source\PSoC5/CapSense_1.c ****                 CY_SET_REG16(CapSense_1_PWM_CH1_PERIOD_PTR,
 903:.\Generated_Source\PSoC5/CapSense_1.c ****                   ((uint16) CapSense_1_widgetResolution[widget] << 8u) | CapSense_1_MEASURE_FULL_RA
 904:.\Generated_Source\PSoC5/CapSense_1.c ****             #else
 905:.\Generated_Source\PSoC5/CapSense_1.c ****                 CapSense_1_PWM_CH1_PERIOD_HI_REG = CapSense_1_widgetResolution[widget];
 906:.\Generated_Source\PSoC5/CapSense_1.c ****             #endif  /* (CapSense_1_IMPLEMENTATION_CH1 == CapSense_1_MEASURE_IMPLEMENTATION_FF)*/ 
 907:.\Generated_Source\PSoC5/CapSense_1.c ****         }
 908:.\Generated_Source\PSoC5/CapSense_1.c **** 
 909:.\Generated_Source\PSoC5/CapSense_1.c ****         #if ( (CapSense_1_MULTIPLE_PRESCALER_ENABLED) || \
 910:.\Generated_Source\PSoC5/CapSense_1.c ****               (CapSense_1_TUNING_METHOD == CapSense_1_AUTO_TUNING) )
 911:.\Generated_Source\PSoC5/CapSense_1.c ****             CapSense_1_SetPrescaler(CapSense_1_analogSwitchDivider[slot]);
 912:.\Generated_Source\PSoC5/CapSense_1.c ****         #elif (CapSense_1_PRESCALER_OPTIONS)
 913:.\Generated_Source\PSoC5/CapSense_1.c ****             CapSense_1_SetPrescaler(CapSense_1_analogSwitchDivider);
 914:.\Generated_Source\PSoC5/CapSense_1.c ****         #endif /* ((CapSense_1_MULTIPLE_PRESCALER_ENABLED) || \
 915:.\Generated_Source\PSoC5/CapSense_1.c ****                *   (CapSense_1_TUNING_METHOD == CapSense_1_AUTO_TUNING))
 916:.\Generated_Source\PSoC5/CapSense_1.c ****                */
 917:.\Generated_Source\PSoC5/CapSense_1.c **** 
 918:.\Generated_Source\PSoC5/CapSense_1.c ****     #endif  /* CapSense_1_DESIGN_TYPE */
 919:.\Generated_Source\PSoC5/CapSense_1.c **** }
 663              		.loc 1 919 0
 664 0034 1037     		adds	r7, r7, #16
 665              		.cfi_def_cfa_offset 8
 666 0036 BD46     		mov	sp, r7
 667              		.cfi_def_cfa_register 13
 668              		@ sp needed
 669 0038 80BD     		pop	{r7, pc}
 670              	.L23:
 671 003a 00BF     		.align	2
 672              	.L22:
 673 003c 00000000 		.word	CapSense_1_widgetNumber
 674 0040 00000000 		.word	CapSense_1_idacSettings
 675 0044 57640040 		.word	1073767511
 676 0048 00000000 		.word	CapSense_1_widgetResolution
ARM GAS  C:\Users\Robert\AppData\Local\Temp\ccZodlkd.s 			page 29


 677 004c 00000000 		.word	CapSense_1_analogSwitchDivider
 678              		.cfi_endproc
 679              	.LFE5:
 680              		.size	CapSense_1_SetScanSlotSettings, .-CapSense_1_SetScanSlotSettings
 681              		.section	.text.CapSense_1_ScanSensor,"ax",%progbits
 682              		.align	2
 683              		.global	CapSense_1_ScanSensor
 684              		.thumb
 685              		.thumb_func
 686              		.type	CapSense_1_ScanSensor, %function
 687              	CapSense_1_ScanSensor:
 688              	.LFB6:
 920:.\Generated_Source\PSoC5/CapSense_1.c **** 
 921:.\Generated_Source\PSoC5/CapSense_1.c **** 
 922:.\Generated_Source\PSoC5/CapSense_1.c **** /*******************************************************************************
 923:.\Generated_Source\PSoC5/CapSense_1.c **** * Function Name: CapSense_1_ScanSensor
 924:.\Generated_Source\PSoC5/CapSense_1.c **** ********************************************************************************
 925:.\Generated_Source\PSoC5/CapSense_1.c **** *
 926:.\Generated_Source\PSoC5/CapSense_1.c **** * Summary:
 927:.\Generated_Source\PSoC5/CapSense_1.c **** *  Sets scan settings and starts scanning a sensor or pair of combined sensors
 928:.\Generated_Source\PSoC5/CapSense_1.c **** *  on each channel. If two channels are configured, two sensors may be scanned 
 929:.\Generated_Source\PSoC5/CapSense_1.c **** *  at the same time. After scanning is complete the isr copies the measured 
 930:.\Generated_Source\PSoC5/CapSense_1.c **** *  sensor raw data to the global array. Use of the isr ensures this function 
 931:.\Generated_Source\PSoC5/CapSense_1.c **** *  is non-blocking. Each sensor has a unique number within the sensor array. 
 932:.\Generated_Source\PSoC5/CapSense_1.c **** *  This number is assigned by the CapSense customizer in sequence.
 933:.\Generated_Source\PSoC5/CapSense_1.c **** *
 934:.\Generated_Source\PSoC5/CapSense_1.c **** * Parameters:
 935:.\Generated_Source\PSoC5/CapSense_1.c **** *  sensor:  Sensor number.
 936:.\Generated_Source\PSoC5/CapSense_1.c **** *
 937:.\Generated_Source\PSoC5/CapSense_1.c **** * Return:
 938:.\Generated_Source\PSoC5/CapSense_1.c **** *  None
 939:.\Generated_Source\PSoC5/CapSense_1.c **** *
 940:.\Generated_Source\PSoC5/CapSense_1.c **** * Global Variables:
 941:.\Generated_Source\PSoC5/CapSense_1.c **** *  CapSense_1_csv - used to provide status and mode of scanning process. 
 942:.\Generated_Source\PSoC5/CapSense_1.c **** *  Sets busy status(scan in progress) and mode of scan as single scan.
 943:.\Generated_Source\PSoC5/CapSense_1.c **** *  For two channel design the additional bits are set to define if scan a 
 944:.\Generated_Source\PSoC5/CapSense_1.c **** *  pair of sensors or single one.
 945:.\Generated_Source\PSoC5/CapSense_1.c **** *  CapSense_1_sensorIndex - used to store sensor scanning sensor number.
 946:.\Generated_Source\PSoC5/CapSense_1.c **** *  Sets to provided sensor argument.
 947:.\Generated_Source\PSoC5/CapSense_1.c **** *
 948:.\Generated_Source\PSoC5/CapSense_1.c **** * Reentrant:
 949:.\Generated_Source\PSoC5/CapSense_1.c **** *  No
 950:.\Generated_Source\PSoC5/CapSense_1.c **** *
 951:.\Generated_Source\PSoC5/CapSense_1.c **** *******************************************************************************/
 952:.\Generated_Source\PSoC5/CapSense_1.c **** void CapSense_1_ScanSensor(uint8 sensor)  
 953:.\Generated_Source\PSoC5/CapSense_1.c **** {
 689              		.loc 1 953 0
 690              		.cfi_startproc
 691              		@ args = 0, pretend = 0, frame = 8
 692              		@ frame_needed = 1, uses_anonymous_args = 0
 693 0000 80B5     		push	{r7, lr}
 694              		.cfi_def_cfa_offset 8
 695              		.cfi_offset 7, -8
 696              		.cfi_offset 14, -4
 697 0002 82B0     		sub	sp, sp, #8
 698              		.cfi_def_cfa_offset 16
 699 0004 00AF     		add	r7, sp, #0
ARM GAS  C:\Users\Robert\AppData\Local\Temp\ccZodlkd.s 			page 30


 700              		.cfi_def_cfa_register 7
 701 0006 0346     		mov	r3, r0
 702 0008 FB71     		strb	r3, [r7, #7]
 954:.\Generated_Source\PSoC5/CapSense_1.c ****     /* Clears status/control variable and set sensorIndex */
 955:.\Generated_Source\PSoC5/CapSense_1.c ****     CapSense_1_csv = 0u;
 703              		.loc 1 955 0
 704 000a 084B     		ldr	r3, .L25
 705 000c 0022     		movs	r2, #0
 706 000e 1A70     		strb	r2, [r3]
 956:.\Generated_Source\PSoC5/CapSense_1.c ****     CapSense_1_sensorIndex = sensor;
 707              		.loc 1 956 0
 708 0010 074A     		ldr	r2, .L25+4
 709 0012 FB79     		ldrb	r3, [r7, #7]
 710 0014 1370     		strb	r3, [r2]
 957:.\Generated_Source\PSoC5/CapSense_1.c ****     
 958:.\Generated_Source\PSoC5/CapSense_1.c ****     #if (CapSense_1_DESIGN_TYPE == CapSense_1_ONE_CHANNEL_DESIGN)
 959:.\Generated_Source\PSoC5/CapSense_1.c ****         /* Start of sensor scan */
 960:.\Generated_Source\PSoC5/CapSense_1.c ****         CapSense_1_csv = (CapSense_1_SW_STS_BUSY | CapSense_1_SW_CTRL_SINGLE_SCAN);
 711              		.loc 1 960 0
 712 0016 054B     		ldr	r3, .L25
 713 0018 8122     		movs	r2, #129
 714 001a 1A70     		strb	r2, [r3]
 961:.\Generated_Source\PSoC5/CapSense_1.c ****         CapSense_1_PreScan(sensor);
 715              		.loc 1 961 0
 716 001c FB79     		ldrb	r3, [r7, #7]	@ zero_extendqisi2
 717 001e 1846     		mov	r0, r3
 718 0020 FFF7FEFF 		bl	CapSense_1_PreScan
 962:.\Generated_Source\PSoC5/CapSense_1.c ****         
 963:.\Generated_Source\PSoC5/CapSense_1.c ****     #else
 964:.\Generated_Source\PSoC5/CapSense_1.c ****         /* CH0: check end of scan conditions */
 965:.\Generated_Source\PSoC5/CapSense_1.c ****         if(sensor < CapSense_1_TOTAL_SENSOR_COUNT__CH0)
 966:.\Generated_Source\PSoC5/CapSense_1.c ****         {
 967:.\Generated_Source\PSoC5/CapSense_1.c ****             CapSense_1_CONTROL_REG |= CapSense_1_CTRL_WINDOW_EN__CH0;
 968:.\Generated_Source\PSoC5/CapSense_1.c ****         }
 969:.\Generated_Source\PSoC5/CapSense_1.c ****         else
 970:.\Generated_Source\PSoC5/CapSense_1.c ****         {
 971:.\Generated_Source\PSoC5/CapSense_1.c ****             CapSense_1_CONTROL_REG &= ~CapSense_1_CTRL_WINDOW_EN__CH0;
 972:.\Generated_Source\PSoC5/CapSense_1.c ****         }
 973:.\Generated_Source\PSoC5/CapSense_1.c ****         
 974:.\Generated_Source\PSoC5/CapSense_1.c ****         /* CH1: check end of scan conditions */
 975:.\Generated_Source\PSoC5/CapSense_1.c ****         if(sensor < CapSense_1_TOTAL_SENSOR_COUNT__CH1)
 976:.\Generated_Source\PSoC5/CapSense_1.c ****         {
 977:.\Generated_Source\PSoC5/CapSense_1.c ****             CapSense_1_CONTROL_REG |= CapSense_1_CTRL_WINDOW_EN__CH1;
 978:.\Generated_Source\PSoC5/CapSense_1.c ****         }
 979:.\Generated_Source\PSoC5/CapSense_1.c ****         else
 980:.\Generated_Source\PSoC5/CapSense_1.c ****         {
 981:.\Generated_Source\PSoC5/CapSense_1.c ****             CapSense_1_CONTROL_REG &= ~CapSense_1_CTRL_WINDOW_EN__CH1;
 982:.\Generated_Source\PSoC5/CapSense_1.c ****         }
 983:.\Generated_Source\PSoC5/CapSense_1.c ****         
 984:.\Generated_Source\PSoC5/CapSense_1.c ****         /* Start sensor scan */
 985:.\Generated_Source\PSoC5/CapSense_1.c ****         if( ((CapSense_1_CONTROL_REG & CapSense_1_CTRL_WINDOW_EN__CH0) != 0u) || 
 986:.\Generated_Source\PSoC5/CapSense_1.c ****             ((CapSense_1_CONTROL_REG & CapSense_1_CTRL_WINDOW_EN__CH1) != 0u) )
 987:.\Generated_Source\PSoC5/CapSense_1.c ****         {
 988:.\Generated_Source\PSoC5/CapSense_1.c ****         
 989:.\Generated_Source\PSoC5/CapSense_1.c ****             CapSense_1_csv |= (CapSense_1_SW_STS_BUSY | CapSense_1_SW_CTRL_SINGLE_SCAN);
 990:.\Generated_Source\PSoC5/CapSense_1.c ****             CapSense_1_PreScan(sensor);
 991:.\Generated_Source\PSoC5/CapSense_1.c ****         }
ARM GAS  C:\Users\Robert\AppData\Local\Temp\ccZodlkd.s 			page 31


 992:.\Generated_Source\PSoC5/CapSense_1.c ****         
 993:.\Generated_Source\PSoC5/CapSense_1.c ****     #endif  /* CapSense_1_DESIGN_TYPE */
 994:.\Generated_Source\PSoC5/CapSense_1.c **** }
 719              		.loc 1 994 0
 720 0024 0837     		adds	r7, r7, #8
 721              		.cfi_def_cfa_offset 8
 722 0026 BD46     		mov	sp, r7
 723              		.cfi_def_cfa_register 13
 724              		@ sp needed
 725 0028 80BD     		pop	{r7, pc}
 726              	.L26:
 727 002a 00BF     		.align	2
 728              	.L25:
 729 002c 00000000 		.word	CapSense_1_csv
 730 0030 00000000 		.word	CapSense_1_sensorIndex
 731              		.cfi_endproc
 732              	.LFE6:
 733              		.size	CapSense_1_ScanSensor, .-CapSense_1_ScanSensor
 734              		.section	.text.CapSense_1_ScanEnabledWidgets,"ax",%progbits
 735              		.align	2
 736              		.global	CapSense_1_ScanEnabledWidgets
 737              		.thumb
 738              		.thumb_func
 739              		.type	CapSense_1_ScanEnabledWidgets, %function
 740              	CapSense_1_ScanEnabledWidgets:
 741              	.LFB7:
 995:.\Generated_Source\PSoC5/CapSense_1.c **** 
 996:.\Generated_Source\PSoC5/CapSense_1.c **** 
 997:.\Generated_Source\PSoC5/CapSense_1.c **** /*******************************************************************************
 998:.\Generated_Source\PSoC5/CapSense_1.c **** * Function Name: CapSense_1_ScanEnableWidgets
 999:.\Generated_Source\PSoC5/CapSense_1.c **** ********************************************************************************
1000:.\Generated_Source\PSoC5/CapSense_1.c **** *
1001:.\Generated_Source\PSoC5/CapSense_1.c **** * Summary:
1002:.\Generated_Source\PSoC5/CapSense_1.c **** *  Scans all of the enabled widgets. Starts scanning a sensor or pair of sensors 
1003:.\Generated_Source\PSoC5/CapSense_1.c **** *  within enabled widget. The isr proceeding scanning next sensor or pair till 
1004:.\Generated_Source\PSoC5/CapSense_1.c **** *  all enabled widgets will be scanned. Use of the isr ensures this function is 
1005:.\Generated_Source\PSoC5/CapSense_1.c **** *  non-blocking. All widgets are enabled by default except proximity widgets. 
1006:.\Generated_Source\PSoC5/CapSense_1.c **** *  Proximity widgets must be manually enabled as their long scan time is 
1007:.\Generated_Source\PSoC5/CapSense_1.c **** *  incompatible with fast response desired of other widget types.
1008:.\Generated_Source\PSoC5/CapSense_1.c **** *
1009:.\Generated_Source\PSoC5/CapSense_1.c **** * Parameters:
1010:.\Generated_Source\PSoC5/CapSense_1.c **** *  None
1011:.\Generated_Source\PSoC5/CapSense_1.c **** *
1012:.\Generated_Source\PSoC5/CapSense_1.c **** * Return:
1013:.\Generated_Source\PSoC5/CapSense_1.c **** *  None
1014:.\Generated_Source\PSoC5/CapSense_1.c **** *
1015:.\Generated_Source\PSoC5/CapSense_1.c **** * Global Variables:
1016:.\Generated_Source\PSoC5/CapSense_1.c **** *  CapSense_1_csv - used to provide status and mode of scanning process. 
1017:.\Generated_Source\PSoC5/CapSense_1.c **** *  Sets busy status(scan in progress) and clears single scan mode.
1018:.\Generated_Source\PSoC5/CapSense_1.c **** *  For two channel design the additional bits are set to define if scan a 
1019:.\Generated_Source\PSoC5/CapSense_1.c **** *  pair of sensors or single one. 
1020:.\Generated_Source\PSoC5/CapSense_1.c **** *  CapSense_1_sensorIndex - used to store sensor scanning sensor number.
1021:.\Generated_Source\PSoC5/CapSense_1.c **** *  Sets to 0xFF and provided to function CapSense_1_FindNextSensor or
1022:.\Generated_Source\PSoC5/CapSense_1.c **** *  CapSense_1_FindNextPair, these functions starts with sensor index
1023:.\Generated_Source\PSoC5/CapSense_1.c **** *  increment and overflow of uint8 gives desired index 0.
1024:.\Generated_Source\PSoC5/CapSense_1.c **** *
1025:.\Generated_Source\PSoC5/CapSense_1.c **** * Reentrant:
ARM GAS  C:\Users\Robert\AppData\Local\Temp\ccZodlkd.s 			page 32


1026:.\Generated_Source\PSoC5/CapSense_1.c **** *  No
1027:.\Generated_Source\PSoC5/CapSense_1.c **** *
1028:.\Generated_Source\PSoC5/CapSense_1.c **** *******************************************************************************/
1029:.\Generated_Source\PSoC5/CapSense_1.c **** void CapSense_1_ScanEnabledWidgets(void) 
1030:.\Generated_Source\PSoC5/CapSense_1.c **** {
 742              		.loc 1 1030 0
 743              		.cfi_startproc
 744              		@ args = 0, pretend = 0, frame = 0
 745              		@ frame_needed = 1, uses_anonymous_args = 0
 746 0000 80B5     		push	{r7, lr}
 747              		.cfi_def_cfa_offset 8
 748              		.cfi_offset 7, -8
 749              		.cfi_offset 14, -4
 750 0002 00AF     		add	r7, sp, #0
 751              		.cfi_def_cfa_register 7
1031:.\Generated_Source\PSoC5/CapSense_1.c ****     /* Clears status/control variable and set sensorIndex */
1032:.\Generated_Source\PSoC5/CapSense_1.c ****     CapSense_1_csv = 0u;
 752              		.loc 1 1032 0
 753 0004 114B     		ldr	r3, .L29
 754 0006 0022     		movs	r2, #0
 755 0008 1A70     		strb	r2, [r3]
1033:.\Generated_Source\PSoC5/CapSense_1.c ****     CapSense_1_sensorIndex = 0xFFu;
 756              		.loc 1 1033 0
 757 000a 114B     		ldr	r3, .L29+4
 758 000c FF22     		movs	r2, #255
 759 000e 1A70     		strb	r2, [r3]
1034:.\Generated_Source\PSoC5/CapSense_1.c ****     
1035:.\Generated_Source\PSoC5/CapSense_1.c ****     #if (CapSense_1_DESIGN_TYPE == CapSense_1_ONE_CHANNEL_DESIGN)
1036:.\Generated_Source\PSoC5/CapSense_1.c ****         /* Find next sensor */
1037:.\Generated_Source\PSoC5/CapSense_1.c ****         CapSense_1_sensorIndex = CapSense_1_FindNextSensor(CapSense_1_sensorIndex);
 760              		.loc 1 1037 0
 761 0010 0F4B     		ldr	r3, .L29+4
 762 0012 1B78     		ldrb	r3, [r3]
 763 0014 DBB2     		uxtb	r3, r3
 764 0016 1846     		mov	r0, r3
 765 0018 FFF7FEFF 		bl	CapSense_1_FindNextSensor
 766 001c 0346     		mov	r3, r0
 767 001e 1A46     		mov	r2, r3
 768 0020 0B4B     		ldr	r3, .L29+4
 769 0022 1A70     		strb	r2, [r3]
1038:.\Generated_Source\PSoC5/CapSense_1.c **** 
1039:.\Generated_Source\PSoC5/CapSense_1.c ****         /* Check end of scan condition */
1040:.\Generated_Source\PSoC5/CapSense_1.c ****         if(CapSense_1_sensorIndex < CapSense_1_TOTAL_SENSOR_COUNT)
 770              		.loc 1 1040 0
 771 0024 0A4B     		ldr	r3, .L29+4
 772 0026 1B78     		ldrb	r3, [r3]
 773 0028 DBB2     		uxtb	r3, r3
 774 002a 072B     		cmp	r3, #7
 775 002c 0DD8     		bhi	.L27
1041:.\Generated_Source\PSoC5/CapSense_1.c ****         {
1042:.\Generated_Source\PSoC5/CapSense_1.c ****             CapSense_1_csv |= CapSense_1_SW_STS_BUSY;
 776              		.loc 1 1042 0
 777 002e 074B     		ldr	r3, .L29
 778 0030 1B78     		ldrb	r3, [r3]
 779 0032 DBB2     		uxtb	r3, r3
 780 0034 43F00103 		orr	r3, r3, #1
 781 0038 DAB2     		uxtb	r2, r3
ARM GAS  C:\Users\Robert\AppData\Local\Temp\ccZodlkd.s 			page 33


 782 003a 044B     		ldr	r3, .L29
 783 003c 1A70     		strb	r2, [r3]
1043:.\Generated_Source\PSoC5/CapSense_1.c ****             CapSense_1_PreScan(CapSense_1_sensorIndex);
 784              		.loc 1 1043 0
 785 003e 044B     		ldr	r3, .L29+4
 786 0040 1B78     		ldrb	r3, [r3]
 787 0042 DBB2     		uxtb	r3, r3
 788 0044 1846     		mov	r0, r3
 789 0046 FFF7FEFF 		bl	CapSense_1_PreScan
 790              	.L27:
1044:.\Generated_Source\PSoC5/CapSense_1.c ****         }
1045:.\Generated_Source\PSoC5/CapSense_1.c ****         
1046:.\Generated_Source\PSoC5/CapSense_1.c ****     #else
1047:.\Generated_Source\PSoC5/CapSense_1.c ****         /* Find next sensor and set proper control register */
1048:.\Generated_Source\PSoC5/CapSense_1.c ****         CapSense_1_sensorIndex = CapSense_1_FindNextPair(CapSense_1_sensorIndex);
1049:.\Generated_Source\PSoC5/CapSense_1.c ****         
1050:.\Generated_Source\PSoC5/CapSense_1.c ****         /* Start sensor scan */
1051:.\Generated_Source\PSoC5/CapSense_1.c ****         if((CapSense_1_sensorIndex < CapSense_1_TOTAL_SENSOR_COUNT__CH0) || 
1052:.\Generated_Source\PSoC5/CapSense_1.c ****            (CapSense_1_sensorIndex < CapSense_1_TOTAL_SENSOR_COUNT__CH1))
1053:.\Generated_Source\PSoC5/CapSense_1.c ****         {
1054:.\Generated_Source\PSoC5/CapSense_1.c ****             CapSense_1_csv |= CapSense_1_SW_STS_BUSY;
1055:.\Generated_Source\PSoC5/CapSense_1.c ****             CapSense_1_PreScan(CapSense_1_sensorIndex);
1056:.\Generated_Source\PSoC5/CapSense_1.c ****         }
1057:.\Generated_Source\PSoC5/CapSense_1.c ****         
1058:.\Generated_Source\PSoC5/CapSense_1.c ****     #endif  /* CapSense_1_DESIGN_TYPE */
1059:.\Generated_Source\PSoC5/CapSense_1.c **** }
 791              		.loc 1 1059 0
 792 004a 80BD     		pop	{r7, pc}
 793              	.L30:
 794              		.align	2
 795              	.L29:
 796 004c 00000000 		.word	CapSense_1_csv
 797 0050 00000000 		.word	CapSense_1_sensorIndex
 798              		.cfi_endproc
 799              	.LFE7:
 800              		.size	CapSense_1_ScanEnabledWidgets, .-CapSense_1_ScanEnabledWidgets
 801              		.section	.text.CapSense_1_IsBusy,"ax",%progbits
 802              		.align	2
 803              		.global	CapSense_1_IsBusy
 804              		.thumb
 805              		.thumb_func
 806              		.type	CapSense_1_IsBusy, %function
 807              	CapSense_1_IsBusy:
 808              	.LFB8:
1060:.\Generated_Source\PSoC5/CapSense_1.c **** 
1061:.\Generated_Source\PSoC5/CapSense_1.c **** 
1062:.\Generated_Source\PSoC5/CapSense_1.c **** /*******************************************************************************
1063:.\Generated_Source\PSoC5/CapSense_1.c **** * Function Name: CapSense_1_IsBusy
1064:.\Generated_Source\PSoC5/CapSense_1.c **** ********************************************************************************
1065:.\Generated_Source\PSoC5/CapSense_1.c **** *
1066:.\Generated_Source\PSoC5/CapSense_1.c **** * Summary:
1067:.\Generated_Source\PSoC5/CapSense_1.c **** *  Returns the state of CapSense component. The 1 means that scanning in 
1068:.\Generated_Source\PSoC5/CapSense_1.c **** *  progress and 0 means that scanning is complete.
1069:.\Generated_Source\PSoC5/CapSense_1.c **** *
1070:.\Generated_Source\PSoC5/CapSense_1.c **** * Parameters:
1071:.\Generated_Source\PSoC5/CapSense_1.c **** *  None
1072:.\Generated_Source\PSoC5/CapSense_1.c **** *
ARM GAS  C:\Users\Robert\AppData\Local\Temp\ccZodlkd.s 			page 34


1073:.\Generated_Source\PSoC5/CapSense_1.c **** * Return:
1074:.\Generated_Source\PSoC5/CapSense_1.c **** *  Returns the state of scanning. 1 - scanning in progress, 0 - scanning 
1075:.\Generated_Source\PSoC5/CapSense_1.c **** *  completed.
1076:.\Generated_Source\PSoC5/CapSense_1.c **** *
1077:.\Generated_Source\PSoC5/CapSense_1.c **** * Global Variables:
1078:.\Generated_Source\PSoC5/CapSense_1.c **** *  CapSense_1_csv - used to provide status and mode of scanning process. 
1079:.\Generated_Source\PSoC5/CapSense_1.c **** *  Checks the busy status.
1080:.\Generated_Source\PSoC5/CapSense_1.c **** *
1081:.\Generated_Source\PSoC5/CapSense_1.c **** *******************************************************************************/
1082:.\Generated_Source\PSoC5/CapSense_1.c **** uint8 CapSense_1_IsBusy(void) 
1083:.\Generated_Source\PSoC5/CapSense_1.c **** {
 809              		.loc 1 1083 0
 810              		.cfi_startproc
 811              		@ args = 0, pretend = 0, frame = 0
 812              		@ frame_needed = 1, uses_anonymous_args = 0
 813              		@ link register save eliminated.
 814 0000 80B4     		push	{r7}
 815              		.cfi_def_cfa_offset 4
 816              		.cfi_offset 7, -4
 817 0002 00AF     		add	r7, sp, #0
 818              		.cfi_def_cfa_register 7
1084:.\Generated_Source\PSoC5/CapSense_1.c ****     return ((0u != (CapSense_1_csv & CapSense_1_SW_STS_BUSY)) ? 1u : 0u);
 819              		.loc 1 1084 0
 820 0004 054B     		ldr	r3, .L33
 821 0006 1B78     		ldrb	r3, [r3]
 822 0008 DBB2     		uxtb	r3, r3
 823 000a 03F00103 		and	r3, r3, #1
 824 000e DBB2     		uxtb	r3, r3
1085:.\Generated_Source\PSoC5/CapSense_1.c **** }
 825              		.loc 1 1085 0
 826 0010 1846     		mov	r0, r3
 827 0012 BD46     		mov	sp, r7
 828              		.cfi_def_cfa_register 13
 829              		@ sp needed
 830 0014 5DF8047B 		ldr	r7, [sp], #4
 831              		.cfi_restore 7
 832              		.cfi_def_cfa_offset 0
 833 0018 7047     		bx	lr
 834              	.L34:
 835 001a 00BF     		.align	2
 836              	.L33:
 837 001c 00000000 		.word	CapSense_1_csv
 838              		.cfi_endproc
 839              	.LFE8:
 840              		.size	CapSense_1_IsBusy, .-CapSense_1_IsBusy
 841              		.section	.text.CapSense_1_ReadSensorRaw,"ax",%progbits
 842              		.align	2
 843              		.global	CapSense_1_ReadSensorRaw
 844              		.thumb
 845              		.thumb_func
 846              		.type	CapSense_1_ReadSensorRaw, %function
 847              	CapSense_1_ReadSensorRaw:
 848              	.LFB9:
1086:.\Generated_Source\PSoC5/CapSense_1.c **** 
1087:.\Generated_Source\PSoC5/CapSense_1.c **** 
1088:.\Generated_Source\PSoC5/CapSense_1.c **** /*******************************************************************************
1089:.\Generated_Source\PSoC5/CapSense_1.c **** * Function Name: CapSense_1_ReadSensorRaw
ARM GAS  C:\Users\Robert\AppData\Local\Temp\ccZodlkd.s 			page 35


1090:.\Generated_Source\PSoC5/CapSense_1.c **** ********************************************************************************
1091:.\Generated_Source\PSoC5/CapSense_1.c **** *
1092:.\Generated_Source\PSoC5/CapSense_1.c **** * Summary:
1093:.\Generated_Source\PSoC5/CapSense_1.c **** *  Returns scan sensor raw data from the CapSense_1_sensorRaw[] array. 
1094:.\Generated_Source\PSoC5/CapSense_1.c **** *  Each scan sensor has a unique number within the sensor array. This number 
1095:.\Generated_Source\PSoC5/CapSense_1.c **** *  is assigned by the CapSense customizer in sequence.
1096:.\Generated_Source\PSoC5/CapSense_1.c **** *
1097:.\Generated_Source\PSoC5/CapSense_1.c **** * Parameters:
1098:.\Generated_Source\PSoC5/CapSense_1.c **** *  sensor:  Sensor number.
1099:.\Generated_Source\PSoC5/CapSense_1.c **** *
1100:.\Generated_Source\PSoC5/CapSense_1.c **** * Return:
1101:.\Generated_Source\PSoC5/CapSense_1.c **** *  Returns current raw data value for defined sensor number.
1102:.\Generated_Source\PSoC5/CapSense_1.c **** *
1103:.\Generated_Source\PSoC5/CapSense_1.c **** * Global Variables:
1104:.\Generated_Source\PSoC5/CapSense_1.c **** *  CapSense_1_sensorRaw[] - used to store sensors raw data.
1105:.\Generated_Source\PSoC5/CapSense_1.c **** *
1106:.\Generated_Source\PSoC5/CapSense_1.c **** *******************************************************************************/
1107:.\Generated_Source\PSoC5/CapSense_1.c **** uint16 CapSense_1_ReadSensorRaw(uint8 sensor) 
1108:.\Generated_Source\PSoC5/CapSense_1.c **** {
 849              		.loc 1 1108 0
 850              		.cfi_startproc
 851              		@ args = 0, pretend = 0, frame = 8
 852              		@ frame_needed = 1, uses_anonymous_args = 0
 853              		@ link register save eliminated.
 854 0000 80B4     		push	{r7}
 855              		.cfi_def_cfa_offset 4
 856              		.cfi_offset 7, -4
 857 0002 83B0     		sub	sp, sp, #12
 858              		.cfi_def_cfa_offset 16
 859 0004 00AF     		add	r7, sp, #0
 860              		.cfi_def_cfa_register 7
 861 0006 0346     		mov	r3, r0
 862 0008 FB71     		strb	r3, [r7, #7]
1109:.\Generated_Source\PSoC5/CapSense_1.c ****     return (CapSense_1_sensorRaw[sensor]);
 863              		.loc 1 1109 0
 864 000a FB79     		ldrb	r3, [r7, #7]	@ zero_extendqisi2
 865 000c 044A     		ldr	r2, .L37
 866 000e 32F81330 		ldrh	r3, [r2, r3, lsl #1]
1110:.\Generated_Source\PSoC5/CapSense_1.c **** }
 867              		.loc 1 1110 0
 868 0012 1846     		mov	r0, r3
 869 0014 0C37     		adds	r7, r7, #12
 870              		.cfi_def_cfa_offset 4
 871 0016 BD46     		mov	sp, r7
 872              		.cfi_def_cfa_register 13
 873              		@ sp needed
 874 0018 5DF8047B 		ldr	r7, [sp], #4
 875              		.cfi_restore 7
 876              		.cfi_def_cfa_offset 0
 877 001c 7047     		bx	lr
 878              	.L38:
 879 001e 00BF     		.align	2
 880              	.L37:
 881 0020 00000000 		.word	CapSense_1_sensorRaw
 882              		.cfi_endproc
 883              	.LFE9:
 884              		.size	CapSense_1_ReadSensorRaw, .-CapSense_1_ReadSensorRaw
ARM GAS  C:\Users\Robert\AppData\Local\Temp\ccZodlkd.s 			page 36


 885              		.section	.text.CapSense_1_ClearSensors,"ax",%progbits
 886              		.align	2
 887              		.global	CapSense_1_ClearSensors
 888              		.thumb
 889              		.thumb_func
 890              		.type	CapSense_1_ClearSensors, %function
 891              	CapSense_1_ClearSensors:
 892              	.LFB10:
1111:.\Generated_Source\PSoC5/CapSense_1.c **** 
1112:.\Generated_Source\PSoC5/CapSense_1.c **** 
1113:.\Generated_Source\PSoC5/CapSense_1.c **** /*******************************************************************************
1114:.\Generated_Source\PSoC5/CapSense_1.c **** * Function Name: CapSense_1_ClearSensors
1115:.\Generated_Source\PSoC5/CapSense_1.c **** ********************************************************************************
1116:.\Generated_Source\PSoC5/CapSense_1.c **** *
1117:.\Generated_Source\PSoC5/CapSense_1.c **** * Summary:
1118:.\Generated_Source\PSoC5/CapSense_1.c **** *  Resets all sensors to the non-sampling state by sequentially disconnecting
1119:.\Generated_Source\PSoC5/CapSense_1.c **** *  all sensors from Analog MUX Bus and putting them to inactive state.
1120:.\Generated_Source\PSoC5/CapSense_1.c **** *
1121:.\Generated_Source\PSoC5/CapSense_1.c **** * Parameters:
1122:.\Generated_Source\PSoC5/CapSense_1.c **** *  None
1123:.\Generated_Source\PSoC5/CapSense_1.c **** *
1124:.\Generated_Source\PSoC5/CapSense_1.c **** * Return:
1125:.\Generated_Source\PSoC5/CapSense_1.c **** *  None
1126:.\Generated_Source\PSoC5/CapSense_1.c **** *
1127:.\Generated_Source\PSoC5/CapSense_1.c **** *******************************************************************************/
1128:.\Generated_Source\PSoC5/CapSense_1.c **** void CapSense_1_ClearSensors(void) 
1129:.\Generated_Source\PSoC5/CapSense_1.c **** {
 893              		.loc 1 1129 0
 894              		.cfi_startproc
 895              		@ args = 0, pretend = 0, frame = 8
 896              		@ frame_needed = 1, uses_anonymous_args = 0
 897 0000 80B5     		push	{r7, lr}
 898              		.cfi_def_cfa_offset 8
 899              		.cfi_offset 7, -8
 900              		.cfi_offset 14, -4
 901 0002 82B0     		sub	sp, sp, #8
 902              		.cfi_def_cfa_offset 16
 903 0004 00AF     		add	r7, sp, #0
 904              		.cfi_def_cfa_register 7
1130:.\Generated_Source\PSoC5/CapSense_1.c ****     uint8 i;
1131:.\Generated_Source\PSoC5/CapSense_1.c ****    
1132:.\Generated_Source\PSoC5/CapSense_1.c ****     for (i = 0u; i < CapSense_1_TOTAL_SENSOR_COUNT; i++)
 905              		.loc 1 1132 0
 906 0006 0023     		movs	r3, #0
 907 0008 FB71     		strb	r3, [r7, #7]
 908 000a 06E0     		b	.L40
 909              	.L41:
1133:.\Generated_Source\PSoC5/CapSense_1.c ****     {
1134:.\Generated_Source\PSoC5/CapSense_1.c ****         CapSense_1_DisableScanSlot(i);
 910              		.loc 1 1134 0 discriminator 3
 911 000c FB79     		ldrb	r3, [r7, #7]	@ zero_extendqisi2
 912 000e 1846     		mov	r0, r3
 913 0010 FFF7FEFF 		bl	CapSense_1_DisableSensor
1132:.\Generated_Source\PSoC5/CapSense_1.c ****     {
 914              		.loc 1 1132 0 discriminator 3
 915 0014 FB79     		ldrb	r3, [r7, #7]	@ zero_extendqisi2
 916 0016 0133     		adds	r3, r3, #1
ARM GAS  C:\Users\Robert\AppData\Local\Temp\ccZodlkd.s 			page 37


 917 0018 FB71     		strb	r3, [r7, #7]
 918              	.L40:
1132:.\Generated_Source\PSoC5/CapSense_1.c ****     {
 919              		.loc 1 1132 0 is_stmt 0 discriminator 1
 920 001a FB79     		ldrb	r3, [r7, #7]	@ zero_extendqisi2
 921 001c 072B     		cmp	r3, #7
 922 001e F5D9     		bls	.L41
1135:.\Generated_Source\PSoC5/CapSense_1.c ****     }
1136:.\Generated_Source\PSoC5/CapSense_1.c **** }
 923              		.loc 1 1136 0 is_stmt 1
 924 0020 0837     		adds	r7, r7, #8
 925              		.cfi_def_cfa_offset 8
 926 0022 BD46     		mov	sp, r7
 927              		.cfi_def_cfa_register 13
 928              		@ sp needed
 929 0024 80BD     		pop	{r7, pc}
 930              		.cfi_endproc
 931              	.LFE10:
 932              		.size	CapSense_1_ClearSensors, .-CapSense_1_ClearSensors
 933 0026 00BF     		.section	.text.CapSense_1_EnableSensor,"ax",%progbits
 934              		.align	2
 935              		.global	CapSense_1_EnableSensor
 936              		.thumb
 937              		.thumb_func
 938              		.type	CapSense_1_EnableSensor, %function
 939              	CapSense_1_EnableSensor:
 940              	.LFB11:
1137:.\Generated_Source\PSoC5/CapSense_1.c **** 
1138:.\Generated_Source\PSoC5/CapSense_1.c **** 
1139:.\Generated_Source\PSoC5/CapSense_1.c **** #if (CapSense_1_IS_COMPLEX_SCANSLOTS)
1140:.\Generated_Source\PSoC5/CapSense_1.c ****     /*******************************************************************************
1141:.\Generated_Source\PSoC5/CapSense_1.c ****     * Function Name: CapSense_1_EnableScanSlot
1142:.\Generated_Source\PSoC5/CapSense_1.c ****     ********************************************************************************
1143:.\Generated_Source\PSoC5/CapSense_1.c ****     *
1144:.\Generated_Source\PSoC5/CapSense_1.c ****     * Summary:
1145:.\Generated_Source\PSoC5/CapSense_1.c ****     *  Configures the selected slot to measure during the next measurement 
1146:.\Generated_Source\PSoC5/CapSense_1.c ****     *  cycle. The corresponding pin/pins are set to Analog High-Z mode and 
1147:.\Generated_Source\PSoC5/CapSense_1.c ****     *  connected to the Analog Mux Bus. This also enables the comparator function.
1148:.\Generated_Source\PSoC5/CapSense_1.c ****     *
1149:.\Generated_Source\PSoC5/CapSense_1.c ****     * Parameters:
1150:.\Generated_Source\PSoC5/CapSense_1.c ****     *  slot:  Slot number.
1151:.\Generated_Source\PSoC5/CapSense_1.c ****     *
1152:.\Generated_Source\PSoC5/CapSense_1.c ****     * Return:
1153:.\Generated_Source\PSoC5/CapSense_1.c ****     *  None
1154:.\Generated_Source\PSoC5/CapSense_1.c ****     *
1155:.\Generated_Source\PSoC5/CapSense_1.c ****     * Global Constants:
1156:.\Generated_Source\PSoC5/CapSense_1.c ****     *  CapSense_1_portTable[]  - used to store the port number that pin 
1157:.\Generated_Source\PSoC5/CapSense_1.c ****     *  belongs to for every sensor.
1158:.\Generated_Source\PSoC5/CapSense_1.c ****     *  CapSense_1_maskTable[]  - used to store the pin within the port for 
1159:.\Generated_Source\PSoC5/CapSense_1.c ****     *  every sensor.
1160:.\Generated_Source\PSoC5/CapSense_1.c ****     *  CapSense_1_indexTable[] - used to store indexes of complex sensors.
1161:.\Generated_Source\PSoC5/CapSense_1.c ****     *  The offset and position in this array are stored in port and mask table for 
1162:.\Generated_Source\PSoC5/CapSense_1.c ****     *  complex sensors.
1163:.\Generated_Source\PSoC5/CapSense_1.c ****     *  The bit 7 (msb) is used to define the sensor type: single or complex.
1164:.\Generated_Source\PSoC5/CapSense_1.c ****     *
1165:.\Generated_Source\PSoC5/CapSense_1.c ****     *******************************************************************************/
1166:.\Generated_Source\PSoC5/CapSense_1.c ****     void CapSense_1_EnableScanSlot(uint8 slot) CYREENTRANT
ARM GAS  C:\Users\Robert\AppData\Local\Temp\ccZodlkd.s 			page 38


1167:.\Generated_Source\PSoC5/CapSense_1.c ****     {
1168:.\Generated_Source\PSoC5/CapSense_1.c ****         uint8 j;
1169:.\Generated_Source\PSoC5/CapSense_1.c ****         uint8 snsNumber;
1170:.\Generated_Source\PSoC5/CapSense_1.c ****         const uint8 CYCODE *index;
1171:.\Generated_Source\PSoC5/CapSense_1.c ****         /* Read the sensor type: single or complex */
1172:.\Generated_Source\PSoC5/CapSense_1.c ****         uint8 snsType = CapSense_1_portTable[slot];
1173:.\Generated_Source\PSoC5/CapSense_1.c ****         
1174:.\Generated_Source\PSoC5/CapSense_1.c ****         /* Check if sensor is complex */
1175:.\Generated_Source\PSoC5/CapSense_1.c ****         if ((snsType & CapSense_1_COMPLEX_SS_FLAG) == 0u)
1176:.\Generated_Source\PSoC5/CapSense_1.c ****         {
1177:.\Generated_Source\PSoC5/CapSense_1.c ****             /* Enable sensor (signle) */
1178:.\Generated_Source\PSoC5/CapSense_1.c ****             CapSense_1_EnableSensor(slot);
1179:.\Generated_Source\PSoC5/CapSense_1.c ****         }
1180:.\Generated_Source\PSoC5/CapSense_1.c ****         else
1181:.\Generated_Source\PSoC5/CapSense_1.c ****         {
1182:.\Generated_Source\PSoC5/CapSense_1.c ****             /* Enable complex sensor */
1183:.\Generated_Source\PSoC5/CapSense_1.c ****             snsType &= ~CapSense_1_COMPLEX_SS_FLAG;
1184:.\Generated_Source\PSoC5/CapSense_1.c ****             index = &CapSense_1_indexTable[snsType];
1185:.\Generated_Source\PSoC5/CapSense_1.c ****             snsNumber = CapSense_1_maskTable[slot];
1186:.\Generated_Source\PSoC5/CapSense_1.c ****                         
1187:.\Generated_Source\PSoC5/CapSense_1.c ****             for (j=0u; j < snsNumber; j++)
1188:.\Generated_Source\PSoC5/CapSense_1.c ****             {
1189:.\Generated_Source\PSoC5/CapSense_1.c ****                 CapSense_1_EnableSensor(index[j]);
1190:.\Generated_Source\PSoC5/CapSense_1.c ****             }
1191:.\Generated_Source\PSoC5/CapSense_1.c ****         } 
1192:.\Generated_Source\PSoC5/CapSense_1.c ****     }
1193:.\Generated_Source\PSoC5/CapSense_1.c ****     
1194:.\Generated_Source\PSoC5/CapSense_1.c ****     
1195:.\Generated_Source\PSoC5/CapSense_1.c ****     /*******************************************************************************
1196:.\Generated_Source\PSoC5/CapSense_1.c ****     * Function Name: CapSense_1_DisableScanSlot
1197:.\Generated_Source\PSoC5/CapSense_1.c ****     ********************************************************************************
1198:.\Generated_Source\PSoC5/CapSense_1.c ****     *
1199:.\Generated_Source\PSoC5/CapSense_1.c ****     * Summary:
1200:.\Generated_Source\PSoC5/CapSense_1.c ****     *  Disables the selected slot. The corresponding pin/pis is/are disconnected 
1201:.\Generated_Source\PSoC5/CapSense_1.c ****     *  from the Analog Mux Bus and connected to GND, High_Z or Shield electrode.
1202:.\Generated_Source\PSoC5/CapSense_1.c ****     *
1203:.\Generated_Source\PSoC5/CapSense_1.c ****     * Parameters:
1204:.\Generated_Source\PSoC5/CapSense_1.c ****     *  slot:  Slot number.
1205:.\Generated_Source\PSoC5/CapSense_1.c ****     *
1206:.\Generated_Source\PSoC5/CapSense_1.c ****     * Return:
1207:.\Generated_Source\PSoC5/CapSense_1.c ****     *  None
1208:.\Generated_Source\PSoC5/CapSense_1.c ****     *
1209:.\Generated_Source\PSoC5/CapSense_1.c ****     * Global Variables:
1210:.\Generated_Source\PSoC5/CapSense_1.c ****     *  CapSense_1_portTable[]  - used to store the port number that pin 
1211:.\Generated_Source\PSoC5/CapSense_1.c ****     *  belongs to for every sensor.
1212:.\Generated_Source\PSoC5/CapSense_1.c ****     *  CapSense_1_maskTable[]  - used to store the pin within the port for 
1213:.\Generated_Source\PSoC5/CapSense_1.c ****     *  every sensor.
1214:.\Generated_Source\PSoC5/CapSense_1.c ****     *  CapSense_1_indexTable[] - used to store indexes of complex sensors.
1215:.\Generated_Source\PSoC5/CapSense_1.c ****     *  The offset and position in this array are stored in port and mask table for 
1216:.\Generated_Source\PSoC5/CapSense_1.c ****     *  complex sensors.
1217:.\Generated_Source\PSoC5/CapSense_1.c ****     *  The 7bit(msb) is used to define the sensor type: single or complex.
1218:.\Generated_Source\PSoC5/CapSense_1.c ****     *
1219:.\Generated_Source\PSoC5/CapSense_1.c ****     *******************************************************************************/
1220:.\Generated_Source\PSoC5/CapSense_1.c ****     void CapSense_1_DisableScanSlot(uint8 slot) CYREENTRANT
1221:.\Generated_Source\PSoC5/CapSense_1.c ****     {
1222:.\Generated_Source\PSoC5/CapSense_1.c ****         uint8 j;
1223:.\Generated_Source\PSoC5/CapSense_1.c ****         uint8 snsNumber;
ARM GAS  C:\Users\Robert\AppData\Local\Temp\ccZodlkd.s 			page 39


1224:.\Generated_Source\PSoC5/CapSense_1.c ****         const uint8 CYCODE *index;
1225:.\Generated_Source\PSoC5/CapSense_1.c ****         /* Read the sensor type: single or complex */
1226:.\Generated_Source\PSoC5/CapSense_1.c ****         uint8 snsType = CapSense_1_portTable[slot];
1227:.\Generated_Source\PSoC5/CapSense_1.c ****         
1228:.\Generated_Source\PSoC5/CapSense_1.c ****         /* Check if sensor is complex */
1229:.\Generated_Source\PSoC5/CapSense_1.c ****         if ((snsType & CapSense_1_COMPLEX_SS_FLAG) == 0u)
1230:.\Generated_Source\PSoC5/CapSense_1.c ****         {
1231:.\Generated_Source\PSoC5/CapSense_1.c ****             /* Disable sensor (signle) */
1232:.\Generated_Source\PSoC5/CapSense_1.c ****             CapSense_1_DisableSensor(slot);
1233:.\Generated_Source\PSoC5/CapSense_1.c ****         }
1234:.\Generated_Source\PSoC5/CapSense_1.c ****         else
1235:.\Generated_Source\PSoC5/CapSense_1.c ****         {
1236:.\Generated_Source\PSoC5/CapSense_1.c ****             /* Disable complex sensor */
1237:.\Generated_Source\PSoC5/CapSense_1.c ****             snsType &= ~CapSense_1_COMPLEX_SS_FLAG;
1238:.\Generated_Source\PSoC5/CapSense_1.c ****             index = &CapSense_1_indexTable[snsType];
1239:.\Generated_Source\PSoC5/CapSense_1.c ****             snsNumber = CapSense_1_maskTable[slot];
1240:.\Generated_Source\PSoC5/CapSense_1.c ****                         
1241:.\Generated_Source\PSoC5/CapSense_1.c ****             for (j=0u; j < snsNumber; j++)
1242:.\Generated_Source\PSoC5/CapSense_1.c ****             {
1243:.\Generated_Source\PSoC5/CapSense_1.c ****                 CapSense_1_DisableSensor(index[j]);
1244:.\Generated_Source\PSoC5/CapSense_1.c ****             }
1245:.\Generated_Source\PSoC5/CapSense_1.c ****         } 
1246:.\Generated_Source\PSoC5/CapSense_1.c ****     }
1247:.\Generated_Source\PSoC5/CapSense_1.c **** #endif  /* CapSense_1_IS_COMPLEX_SCANSLOTS */
1248:.\Generated_Source\PSoC5/CapSense_1.c **** 
1249:.\Generated_Source\PSoC5/CapSense_1.c **** 
1250:.\Generated_Source\PSoC5/CapSense_1.c **** /*******************************************************************************
1251:.\Generated_Source\PSoC5/CapSense_1.c **** * Function Name: CapSense_1_EnableSensor
1252:.\Generated_Source\PSoC5/CapSense_1.c **** ********************************************************************************
1253:.\Generated_Source\PSoC5/CapSense_1.c **** *
1254:.\Generated_Source\PSoC5/CapSense_1.c **** * Summary:
1255:.\Generated_Source\PSoC5/CapSense_1.c **** *  Configures the selected sensor to measure during the next measurement cycle.
1256:.\Generated_Source\PSoC5/CapSense_1.c **** *  The corresponding pins are set to Analog High-Z mode and connected to the
1257:.\Generated_Source\PSoC5/CapSense_1.c **** *  Analog Mux Bus. This also enables the comparator function.
1258:.\Generated_Source\PSoC5/CapSense_1.c **** *
1259:.\Generated_Source\PSoC5/CapSense_1.c **** * Parameters:
1260:.\Generated_Source\PSoC5/CapSense_1.c **** *  sensor:  Sensor number.
1261:.\Generated_Source\PSoC5/CapSense_1.c **** *
1262:.\Generated_Source\PSoC5/CapSense_1.c **** * Return:
1263:.\Generated_Source\PSoC5/CapSense_1.c **** *  None
1264:.\Generated_Source\PSoC5/CapSense_1.c **** *
1265:.\Generated_Source\PSoC5/CapSense_1.c **** * Global Variables:
1266:.\Generated_Source\PSoC5/CapSense_1.c **** *  CapSense_1_portTable[] - used to store the port number that pin 
1267:.\Generated_Source\PSoC5/CapSense_1.c **** *  belongs to for every sensor.
1268:.\Generated_Source\PSoC5/CapSense_1.c **** *  CapSense_1_maskTable[] - used to store the pin within the port for 
1269:.\Generated_Source\PSoC5/CapSense_1.c **** *  every sensor.
1270:.\Generated_Source\PSoC5/CapSense_1.c **** *  CapSense_1_csTable[]   - used to store the pointers to CAPS_SEL 
1271:.\Generated_Source\PSoC5/CapSense_1.c **** *  registers for every port.
1272:.\Generated_Source\PSoC5/CapSense_1.c **** *  CapSense_1_pcTable[]   - used to store the pointers to PC pin 
1273:.\Generated_Source\PSoC5/CapSense_1.c **** *  register for every sensor.
1274:.\Generated_Source\PSoC5/CapSense_1.c **** *  CapSense_1_amuxIndex[] - used to store corrected AMUX index when 
1275:.\Generated_Source\PSoC5/CapSense_1.c **** *  complex sensors are defeined.
1276:.\Generated_Source\PSoC5/CapSense_1.c **** *
1277:.\Generated_Source\PSoC5/CapSense_1.c **** *******************************************************************************/
1278:.\Generated_Source\PSoC5/CapSense_1.c **** void CapSense_1_EnableSensor(uint8 sensor) CYREENTRANT
1279:.\Generated_Source\PSoC5/CapSense_1.c **** {
 941              		.loc 1 1279 0
ARM GAS  C:\Users\Robert\AppData\Local\Temp\ccZodlkd.s 			page 40


 942              		.cfi_startproc
 943              		@ args = 0, pretend = 0, frame = 16
 944              		@ frame_needed = 1, uses_anonymous_args = 0
 945 0000 80B5     		push	{r7, lr}
 946              		.cfi_def_cfa_offset 8
 947              		.cfi_offset 7, -8
 948              		.cfi_offset 14, -4
 949 0002 84B0     		sub	sp, sp, #16
 950              		.cfi_def_cfa_offset 24
 951 0004 00AF     		add	r7, sp, #0
 952              		.cfi_def_cfa_register 7
 953 0006 0346     		mov	r3, r0
 954 0008 FB71     		strb	r3, [r7, #7]
1280:.\Generated_Source\PSoC5/CapSense_1.c ****     uint8 port = CapSense_1_portTable[sensor];
 955              		.loc 1 1280 0
 956 000a FB79     		ldrb	r3, [r7, #7]	@ zero_extendqisi2
 957 000c 124A     		ldr	r2, .L44
 958 000e D35C     		ldrb	r3, [r2, r3]
 959 0010 FB73     		strb	r3, [r7, #15]
1281:.\Generated_Source\PSoC5/CapSense_1.c ****     uint8 mask = CapSense_1_maskTable[sensor];
 960              		.loc 1 1281 0
 961 0012 FB79     		ldrb	r3, [r7, #7]	@ zero_extendqisi2
 962 0014 114A     		ldr	r2, .L44+4
 963 0016 D35C     		ldrb	r3, [r2, r3]
 964 0018 BB73     		strb	r3, [r7, #14]
1282:.\Generated_Source\PSoC5/CapSense_1.c ****     
1283:.\Generated_Source\PSoC5/CapSense_1.c ****     #if ((CapSense_1_DESIGN_TYPE == CapSense_1_TWO_CHANNELS_DESIGN) && \
1284:.\Generated_Source\PSoC5/CapSense_1.c ****          (CapSense_1_IS_COMPLEX_SCANSLOTS))
1285:.\Generated_Source\PSoC5/CapSense_1.c ****         uint8 amuxCh = CapSense_1_amuxIndex[sensor];
1286:.\Generated_Source\PSoC5/CapSense_1.c ****     #endif  /* ((CapSense_1_DESIGN_TYPE == CapSense_1_TWO_CHANNELS_DESIGN) && \
1287:.\Generated_Source\PSoC5/CapSense_1.c ****             *   (CapSense_1_IS_COMPLEX_SCANSLOTS))
1288:.\Generated_Source\PSoC5/CapSense_1.c ****             */
1289:.\Generated_Source\PSoC5/CapSense_1.c ****     
1290:.\Generated_Source\PSoC5/CapSense_1.c ****     /* Make sensor High-Z */
1291:.\Generated_Source\PSoC5/CapSense_1.c ****     *CapSense_1_pcTable[sensor] = CapSense_1_PRT_PC_HIGHZ;
 965              		.loc 1 1291 0
 966 001a FB79     		ldrb	r3, [r7, #7]	@ zero_extendqisi2
 967 001c 104A     		ldr	r2, .L44+8
 968 001e 52F82330 		ldr	r3, [r2, r3, lsl #2]
 969 0022 0922     		movs	r2, #9
 970 0024 1A70     		strb	r2, [r3]
1292:.\Generated_Source\PSoC5/CapSense_1.c ****     
1293:.\Generated_Source\PSoC5/CapSense_1.c ****     /* Connect to DSI output */
1294:.\Generated_Source\PSoC5/CapSense_1.c **** 	if(port == 15u)
 971              		.loc 1 1294 0
 972 0026 FB7B     		ldrb	r3, [r7, #15]	@ zero_extendqisi2
 973 0028 0F2B     		cmp	r3, #15
 974 002a 01D1     		bne	.L43
1295:.\Generated_Source\PSoC5/CapSense_1.c **** 	{
1296:.\Generated_Source\PSoC5/CapSense_1.c **** 		port = 7u;
 975              		.loc 1 1296 0
 976 002c 0723     		movs	r3, #7
 977 002e FB73     		strb	r3, [r7, #15]
 978              	.L43:
1297:.\Generated_Source\PSoC5/CapSense_1.c **** 	}
1298:.\Generated_Source\PSoC5/CapSense_1.c ****     *CapSense_1_csTable[port] |= mask;
 979              		.loc 1 1298 0
ARM GAS  C:\Users\Robert\AppData\Local\Temp\ccZodlkd.s 			page 41


 980 0030 FB7B     		ldrb	r3, [r7, #15]	@ zero_extendqisi2
 981 0032 0C4A     		ldr	r2, .L44+12
 982 0034 52F82330 		ldr	r3, [r2, r3, lsl #2]
 983 0038 FA7B     		ldrb	r2, [r7, #15]	@ zero_extendqisi2
 984 003a 0A49     		ldr	r1, .L44+12
 985 003c 51F82220 		ldr	r2, [r1, r2, lsl #2]
 986 0040 1178     		ldrb	r1, [r2]	@ zero_extendqisi2
 987 0042 BA7B     		ldrb	r2, [r7, #14]
 988 0044 0A43     		orrs	r2, r2, r1
 989 0046 D2B2     		uxtb	r2, r2
 990 0048 1A70     		strb	r2, [r3]
1299:.\Generated_Source\PSoC5/CapSense_1.c ****     
1300:.\Generated_Source\PSoC5/CapSense_1.c ****     /* Connect to AMUX */
1301:.\Generated_Source\PSoC5/CapSense_1.c ****     #if (CapSense_1_DESIGN_TYPE == CapSense_1_ONE_CHANNEL_DESIGN)
1302:.\Generated_Source\PSoC5/CapSense_1.c ****         #if (CapSense_1_IS_COMPLEX_SCANSLOTS)
1303:.\Generated_Source\PSoC5/CapSense_1.c ****             CapSense_1_AMuxCH0_Connect(CapSense_1_amuxIndex[sensor]);
1304:.\Generated_Source\PSoC5/CapSense_1.c ****         #else
1305:.\Generated_Source\PSoC5/CapSense_1.c ****             CapSense_1_AMuxCH0_Connect(sensor);
 991              		.loc 1 1305 0
 992 004a FB79     		ldrb	r3, [r7, #7]	@ zero_extendqisi2
 993 004c 1846     		mov	r0, r3
 994 004e FFF7FEFF 		bl	CapSense_1_AMuxCH0_Set
1306:.\Generated_Source\PSoC5/CapSense_1.c ****         #endif  /* CapSense_1_IS_COMPLEX_SCANSLOTS */
1307:.\Generated_Source\PSoC5/CapSense_1.c ****                 
1308:.\Generated_Source\PSoC5/CapSense_1.c ****     #else
1309:.\Generated_Source\PSoC5/CapSense_1.c ****         #if (CapSense_1_IS_COMPLEX_SCANSLOTS)
1310:.\Generated_Source\PSoC5/CapSense_1.c ****             if ((amuxCh & CapSense_1_CHANNEL1_FLAG) == 0u)
1311:.\Generated_Source\PSoC5/CapSense_1.c ****             {
1312:.\Generated_Source\PSoC5/CapSense_1.c ****                 CapSense_1_AMuxCH0_Connect(amuxCh);
1313:.\Generated_Source\PSoC5/CapSense_1.c ****             } 
1314:.\Generated_Source\PSoC5/CapSense_1.c ****             else
1315:.\Generated_Source\PSoC5/CapSense_1.c ****             {
1316:.\Generated_Source\PSoC5/CapSense_1.c ****                 amuxCh &= ~ CapSense_1_CHANNEL1_FLAG;
1317:.\Generated_Source\PSoC5/CapSense_1.c ****                 CapSense_1_AMuxCH1_Connect(amuxCh);
1318:.\Generated_Source\PSoC5/CapSense_1.c ****             }
1319:.\Generated_Source\PSoC5/CapSense_1.c ****             
1320:.\Generated_Source\PSoC5/CapSense_1.c ****         #else
1321:.\Generated_Source\PSoC5/CapSense_1.c ****             if (sensor < CapSense_1_TOTAL_SENSOR_COUNT__CH0) 
1322:.\Generated_Source\PSoC5/CapSense_1.c ****             {
1323:.\Generated_Source\PSoC5/CapSense_1.c ****                 CapSense_1_AMuxCH0_Connect(sensor);
1324:.\Generated_Source\PSoC5/CapSense_1.c ****             } 
1325:.\Generated_Source\PSoC5/CapSense_1.c ****             else
1326:.\Generated_Source\PSoC5/CapSense_1.c ****             {
1327:.\Generated_Source\PSoC5/CapSense_1.c ****                 CapSense_1_AMuxCH1_Connect(sensor - CapSense_1_TOTAL_SENSOR_COUNT__CH0);
1328:.\Generated_Source\PSoC5/CapSense_1.c ****             }
1329:.\Generated_Source\PSoC5/CapSense_1.c ****             
1330:.\Generated_Source\PSoC5/CapSense_1.c ****         #endif  /* CapSense_1_IS_COMPLEX_SCANSLOTS */
1331:.\Generated_Source\PSoC5/CapSense_1.c ****         
1332:.\Generated_Source\PSoC5/CapSense_1.c ****     #endif  /* CapSense_1_DESIGN_TYPE == CapSense_1_ONE_CHANNEL_DESIGN */
1333:.\Generated_Source\PSoC5/CapSense_1.c **** }
 995              		.loc 1 1333 0
 996 0052 1037     		adds	r7, r7, #16
 997              		.cfi_def_cfa_offset 8
 998 0054 BD46     		mov	sp, r7
 999              		.cfi_def_cfa_register 13
 1000              		@ sp needed
 1001 0056 80BD     		pop	{r7, pc}
ARM GAS  C:\Users\Robert\AppData\Local\Temp\ccZodlkd.s 			page 42


 1002              	.L45:
 1003              		.align	2
 1004              	.L44:
 1005 0058 00000000 		.word	CapSense_1_portTable
 1006 005c 00000000 		.word	CapSense_1_maskTable
 1007 0060 00000000 		.word	CapSense_1_pcTable
 1008 0064 00000000 		.word	CapSense_1_csTable
 1009              		.cfi_endproc
 1010              	.LFE11:
 1011              		.size	CapSense_1_EnableSensor, .-CapSense_1_EnableSensor
 1012              		.section	.text.CapSense_1_DisableSensor,"ax",%progbits
 1013              		.align	2
 1014              		.global	CapSense_1_DisableSensor
 1015              		.thumb
 1016              		.thumb_func
 1017              		.type	CapSense_1_DisableSensor, %function
 1018              	CapSense_1_DisableSensor:
 1019              	.LFB12:
1334:.\Generated_Source\PSoC5/CapSense_1.c **** 
1335:.\Generated_Source\PSoC5/CapSense_1.c **** 
1336:.\Generated_Source\PSoC5/CapSense_1.c **** /*******************************************************************************
1337:.\Generated_Source\PSoC5/CapSense_1.c **** * Function Name: CapSense_1_DisableSensor
1338:.\Generated_Source\PSoC5/CapSense_1.c **** ********************************************************************************
1339:.\Generated_Source\PSoC5/CapSense_1.c **** *
1340:.\Generated_Source\PSoC5/CapSense_1.c **** * Summary:
1341:.\Generated_Source\PSoC5/CapSense_1.c **** *  Disables the selected sensor. The corresponding pin is disconnected from the
1342:.\Generated_Source\PSoC5/CapSense_1.c **** *  Analog Mux Bus and connected to GND, High_Z or Shield electrode.
1343:.\Generated_Source\PSoC5/CapSense_1.c **** *
1344:.\Generated_Source\PSoC5/CapSense_1.c **** * Parameters:
1345:.\Generated_Source\PSoC5/CapSense_1.c **** *  sensor:  Sensor number
1346:.\Generated_Source\PSoC5/CapSense_1.c **** *
1347:.\Generated_Source\PSoC5/CapSense_1.c **** * Return:
1348:.\Generated_Source\PSoC5/CapSense_1.c **** *  None
1349:.\Generated_Source\PSoC5/CapSense_1.c **** *
1350:.\Generated_Source\PSoC5/CapSense_1.c **** * Global Variables:
1351:.\Generated_Source\PSoC5/CapSense_1.c **** *  CapSense_1_portTable[] - used to store the port number that pin 
1352:.\Generated_Source\PSoC5/CapSense_1.c **** *  belongs to for every sensor.
1353:.\Generated_Source\PSoC5/CapSense_1.c **** *  CapSense_1_maskTable[] - used to store the pin within the port for 
1354:.\Generated_Source\PSoC5/CapSense_1.c **** *  every sensor.
1355:.\Generated_Source\PSoC5/CapSense_1.c **** *  CapSense_1_csTable[]   - used to store the pointers to CAPS_SEL 
1356:.\Generated_Source\PSoC5/CapSense_1.c **** *  registers for every port.
1357:.\Generated_Source\PSoC5/CapSense_1.c **** *  CapSense_1_pcTable[]   - used to store the pointers to PC pin 
1358:.\Generated_Source\PSoC5/CapSense_1.c **** *  register for every sensor.
1359:.\Generated_Source\PSoC5/CapSense_1.c **** *  CapSense_1_amuxIndex[] - used to store corrected AMUX index when 
1360:.\Generated_Source\PSoC5/CapSense_1.c **** *  complex sensors are defeined.
1361:.\Generated_Source\PSoC5/CapSense_1.c **** *
1362:.\Generated_Source\PSoC5/CapSense_1.c **** *******************************************************************************/
1363:.\Generated_Source\PSoC5/CapSense_1.c **** void CapSense_1_DisableSensor(uint8 sensor) CYREENTRANT
1364:.\Generated_Source\PSoC5/CapSense_1.c **** {
 1020              		.loc 1 1364 0
 1021              		.cfi_startproc
 1022              		@ args = 0, pretend = 0, frame = 16
 1023              		@ frame_needed = 1, uses_anonymous_args = 0
 1024 0000 80B5     		push	{r7, lr}
 1025              		.cfi_def_cfa_offset 8
 1026              		.cfi_offset 7, -8
 1027              		.cfi_offset 14, -4
ARM GAS  C:\Users\Robert\AppData\Local\Temp\ccZodlkd.s 			page 43


 1028 0002 84B0     		sub	sp, sp, #16
 1029              		.cfi_def_cfa_offset 24
 1030 0004 00AF     		add	r7, sp, #0
 1031              		.cfi_def_cfa_register 7
 1032 0006 0346     		mov	r3, r0
 1033 0008 FB71     		strb	r3, [r7, #7]
1365:.\Generated_Source\PSoC5/CapSense_1.c ****     uint8 port = CapSense_1_portTable[sensor];
 1034              		.loc 1 1365 0
 1035 000a FB79     		ldrb	r3, [r7, #7]	@ zero_extendqisi2
 1036 000c 134A     		ldr	r2, .L48
 1037 000e D35C     		ldrb	r3, [r2, r3]
 1038 0010 FB73     		strb	r3, [r7, #15]
1366:.\Generated_Source\PSoC5/CapSense_1.c ****     uint8 mask = CapSense_1_maskTable[sensor];
 1039              		.loc 1 1366 0
 1040 0012 FB79     		ldrb	r3, [r7, #7]	@ zero_extendqisi2
 1041 0014 124A     		ldr	r2, .L48+4
 1042 0016 D35C     		ldrb	r3, [r2, r3]
 1043 0018 BB73     		strb	r3, [r7, #14]
1367:.\Generated_Source\PSoC5/CapSense_1.c ****     
1368:.\Generated_Source\PSoC5/CapSense_1.c ****     #if ((CapSense_1_DESIGN_TYPE == CapSense_1_TWO_CHANNELS_DESIGN) && \
1369:.\Generated_Source\PSoC5/CapSense_1.c ****          (CapSense_1_IS_COMPLEX_SCANSLOTS))
1370:.\Generated_Source\PSoC5/CapSense_1.c ****         uint8 amuxCh = CapSense_1_amuxIndex[sensor];
1371:.\Generated_Source\PSoC5/CapSense_1.c ****     #endif  /* ((CapSense_1_DESIGN_TYPE == CapSense_1_TWO_CHANNELS_DESIGN) && \
1372:.\Generated_Source\PSoC5/CapSense_1.c ****             *   (CapSense_1_IS_COMPLEX_SCANSLOTS))
1373:.\Generated_Source\PSoC5/CapSense_1.c ****             */
1374:.\Generated_Source\PSoC5/CapSense_1.c ****     
1375:.\Generated_Source\PSoC5/CapSense_1.c ****     /* Disconnect from AMUX */
1376:.\Generated_Source\PSoC5/CapSense_1.c ****     #if (CapSense_1_DESIGN_TYPE == CapSense_1_ONE_CHANNEL_DESIGN)
1377:.\Generated_Source\PSoC5/CapSense_1.c ****         #if (CapSense_1_IS_COMPLEX_SCANSLOTS)
1378:.\Generated_Source\PSoC5/CapSense_1.c ****             CapSense_1_AMuxCH0_Disconnect(CapSense_1_amuxIndex[sensor]);
1379:.\Generated_Source\PSoC5/CapSense_1.c ****         #else
1380:.\Generated_Source\PSoC5/CapSense_1.c ****             CapSense_1_AMuxCH0_Disconnect(sensor);
 1044              		.loc 1 1380 0
 1045 001a FB79     		ldrb	r3, [r7, #7]	@ zero_extendqisi2
 1046 001c 1846     		mov	r0, r3
 1047 001e FFF7FEFF 		bl	CapSense_1_AMuxCH0_Unset
1381:.\Generated_Source\PSoC5/CapSense_1.c ****         #endif  /* CapSense_1_IS_COMPLEX_SCANSLOTS */
1382:.\Generated_Source\PSoC5/CapSense_1.c ****                 
1383:.\Generated_Source\PSoC5/CapSense_1.c ****     #else
1384:.\Generated_Source\PSoC5/CapSense_1.c ****         #if (CapSense_1_IS_COMPLEX_SCANSLOTS)
1385:.\Generated_Source\PSoC5/CapSense_1.c ****             if ((amuxCh & CapSense_1_CHANNEL1_FLAG) == 0u)
1386:.\Generated_Source\PSoC5/CapSense_1.c ****             {
1387:.\Generated_Source\PSoC5/CapSense_1.c ****                 CapSense_1_AMuxCH0_Disconnect(amuxCh);
1388:.\Generated_Source\PSoC5/CapSense_1.c ****             } 
1389:.\Generated_Source\PSoC5/CapSense_1.c ****             else
1390:.\Generated_Source\PSoC5/CapSense_1.c ****             {
1391:.\Generated_Source\PSoC5/CapSense_1.c ****                 amuxCh &= ~ CapSense_1_CHANNEL1_FLAG;
1392:.\Generated_Source\PSoC5/CapSense_1.c ****                 CapSense_1_AMuxCH1_Disconnect(amuxCh);
1393:.\Generated_Source\PSoC5/CapSense_1.c ****             }
1394:.\Generated_Source\PSoC5/CapSense_1.c ****             
1395:.\Generated_Source\PSoC5/CapSense_1.c ****         #else
1396:.\Generated_Source\PSoC5/CapSense_1.c ****             if (sensor < CapSense_1_TOTAL_SENSOR_COUNT__CH0) 
1397:.\Generated_Source\PSoC5/CapSense_1.c ****             {
1398:.\Generated_Source\PSoC5/CapSense_1.c ****                 CapSense_1_AMuxCH0_Disconnect(sensor);
1399:.\Generated_Source\PSoC5/CapSense_1.c ****             } 
1400:.\Generated_Source\PSoC5/CapSense_1.c ****             else
1401:.\Generated_Source\PSoC5/CapSense_1.c ****             {
ARM GAS  C:\Users\Robert\AppData\Local\Temp\ccZodlkd.s 			page 44


1402:.\Generated_Source\PSoC5/CapSense_1.c ****                 CapSense_1_AMuxCH1_Disconnect(sensor - CapSense_1_TOTAL_SENSOR_COUNT__CH0);
1403:.\Generated_Source\PSoC5/CapSense_1.c ****             }
1404:.\Generated_Source\PSoC5/CapSense_1.c ****             
1405:.\Generated_Source\PSoC5/CapSense_1.c ****         #endif  /* CapSense_1_IS_COMPLEX_SCANSLOTS */
1406:.\Generated_Source\PSoC5/CapSense_1.c ****         
1407:.\Generated_Source\PSoC5/CapSense_1.c ****     #endif  /* CapSense_1_DESIGN_TYPE */
1408:.\Generated_Source\PSoC5/CapSense_1.c ****     
1409:.\Generated_Source\PSoC5/CapSense_1.c ****     /* Disconnect from DSI output */
1410:.\Generated_Source\PSoC5/CapSense_1.c **** 	if(port == 15u)
 1048              		.loc 1 1410 0
 1049 0022 FB7B     		ldrb	r3, [r7, #15]	@ zero_extendqisi2
 1050 0024 0F2B     		cmp	r3, #15
 1051 0026 01D1     		bne	.L47
1411:.\Generated_Source\PSoC5/CapSense_1.c **** 	{
1412:.\Generated_Source\PSoC5/CapSense_1.c **** 		port = 7u;
 1052              		.loc 1 1412 0
 1053 0028 0723     		movs	r3, #7
 1054 002a FB73     		strb	r3, [r7, #15]
 1055              	.L47:
1413:.\Generated_Source\PSoC5/CapSense_1.c **** 	}
1414:.\Generated_Source\PSoC5/CapSense_1.c ****     *CapSense_1_csTable[port] &= (uint8)~mask;
 1056              		.loc 1 1414 0
 1057 002c FB7B     		ldrb	r3, [r7, #15]	@ zero_extendqisi2
 1058 002e 0D4A     		ldr	r2, .L48+8
 1059 0030 52F82330 		ldr	r3, [r2, r3, lsl #2]
 1060 0034 FA7B     		ldrb	r2, [r7, #15]	@ zero_extendqisi2
 1061 0036 0B49     		ldr	r1, .L48+8
 1062 0038 51F82220 		ldr	r2, [r1, r2, lsl #2]
 1063 003c 1178     		ldrb	r1, [r2]	@ zero_extendqisi2
 1064 003e BA7B     		ldrb	r2, [r7, #14]
 1065 0040 D243     		mvns	r2, r2
 1066 0042 D2B2     		uxtb	r2, r2
 1067 0044 0A40     		ands	r2, r2, r1
 1068 0046 D2B2     		uxtb	r2, r2
 1069 0048 1A70     		strb	r2, [r3]
1415:.\Generated_Source\PSoC5/CapSense_1.c ****     
1416:.\Generated_Source\PSoC5/CapSense_1.c ****     /* Set sensor to inactive state */
1417:.\Generated_Source\PSoC5/CapSense_1.c ****     #if (CapSense_1_CONNECT_INACTIVE_SNS == CapSense_1_CIS_GND)
1418:.\Generated_Source\PSoC5/CapSense_1.c ****         *CapSense_1_pcTable[sensor] = CapSense_1_PRT_PC_GND;
 1070              		.loc 1 1418 0
 1071 004a FB79     		ldrb	r3, [r7, #7]	@ zero_extendqisi2
 1072 004c 064A     		ldr	r2, .L48+12
 1073 004e 52F82330 		ldr	r3, [r2, r3, lsl #2]
 1074 0052 0822     		movs	r2, #8
 1075 0054 1A70     		strb	r2, [r3]
1419:.\Generated_Source\PSoC5/CapSense_1.c ****     #elif (CapSense_1_CONNECT_INACTIVE_SNS == CapSense_1_CIS_HIGHZ)
1420:.\Generated_Source\PSoC5/CapSense_1.c ****         *CapSense_1_pcTable[sensor] = CapSense_1_PRT_PC_HIGHZ;
1421:.\Generated_Source\PSoC5/CapSense_1.c ****     #else
1422:.\Generated_Source\PSoC5/CapSense_1.c ****         *CapSense_1_pcTable[sensor] = CapSense_1_PRT_PC_SHIELD;
1423:.\Generated_Source\PSoC5/CapSense_1.c ****     #endif  /* (CapSense_1_CONNECT_INACTIVE_SNS == CapSense_1_CIS_GND) */
1424:.\Generated_Source\PSoC5/CapSense_1.c **** }
 1076              		.loc 1 1424 0
 1077 0056 1037     		adds	r7, r7, #16
 1078              		.cfi_def_cfa_offset 8
 1079 0058 BD46     		mov	sp, r7
 1080              		.cfi_def_cfa_register 13
 1081              		@ sp needed
ARM GAS  C:\Users\Robert\AppData\Local\Temp\ccZodlkd.s 			page 45


 1082 005a 80BD     		pop	{r7, pc}
 1083              	.L49:
 1084              		.align	2
 1085              	.L48:
 1086 005c 00000000 		.word	CapSense_1_portTable
 1087 0060 00000000 		.word	CapSense_1_maskTable
 1088 0064 00000000 		.word	CapSense_1_csTable
 1089 0068 00000000 		.word	CapSense_1_pcTable
 1090              		.cfi_endproc
 1091              	.LFE12:
 1092              		.size	CapSense_1_DisableSensor, .-CapSense_1_DisableSensor
 1093              		.section	.text.CapSense_1_PreScan,"ax",%progbits
 1094              		.align	2
 1095              		.global	CapSense_1_PreScan
 1096              		.thumb
 1097              		.thumb_func
 1098              		.type	CapSense_1_PreScan, %function
 1099              	CapSense_1_PreScan:
 1100              	.LFB13:
1425:.\Generated_Source\PSoC5/CapSense_1.c **** 
1426:.\Generated_Source\PSoC5/CapSense_1.c **** 
1427:.\Generated_Source\PSoC5/CapSense_1.c **** /*******************************************************************************
1428:.\Generated_Source\PSoC5/CapSense_1.c **** * Function Name: CapSense_1_PreScan
1429:.\Generated_Source\PSoC5/CapSense_1.c **** ********************************************************************************
1430:.\Generated_Source\PSoC5/CapSense_1.c **** *
1431:.\Generated_Source\PSoC5/CapSense_1.c **** * Summary:
1432:.\Generated_Source\PSoC5/CapSense_1.c **** *  Set required settings, enable sensor, remove Vref from AMUX and start the 
1433:.\Generated_Source\PSoC5/CapSense_1.c **** *  scanning process of the sensor.
1434:.\Generated_Source\PSoC5/CapSense_1.c **** *
1435:.\Generated_Source\PSoC5/CapSense_1.c **** * Parameters:
1436:.\Generated_Source\PSoC5/CapSense_1.c **** *  sensor:  Sensor number.
1437:.\Generated_Source\PSoC5/CapSense_1.c **** *
1438:.\Generated_Source\PSoC5/CapSense_1.c **** * Return:
1439:.\Generated_Source\PSoC5/CapSense_1.c **** *  None
1440:.\Generated_Source\PSoC5/CapSense_1.c **** *
1441:.\Generated_Source\PSoC5/CapSense_1.c **** * Global Variables:
1442:.\Generated_Source\PSoC5/CapSense_1.c **** *  CapSense_1_rbTable[] - used to store pointers to PC pin registers for 
1443:.\Generated_Source\PSoC5/CapSense_1.c **** *  every bleed resistor (Rb). Only available when Current Source is External 
1444:.\Generated_Source\PSoC5/CapSense_1.c **** *  resistor.
1445:.\Generated_Source\PSoC5/CapSense_1.c **** *
1446:.\Generated_Source\PSoC5/CapSense_1.c **** *******************************************************************************/
1447:.\Generated_Source\PSoC5/CapSense_1.c **** void CapSense_1_PreScan(uint8 sensor) CYREENTRANT
1448:.\Generated_Source\PSoC5/CapSense_1.c **** {
 1101              		.loc 1 1448 0
 1102              		.cfi_startproc
 1103              		@ args = 0, pretend = 0, frame = 8
 1104              		@ frame_needed = 1, uses_anonymous_args = 0
 1105 0000 80B5     		push	{r7, lr}
 1106              		.cfi_def_cfa_offset 8
 1107              		.cfi_offset 7, -8
 1108              		.cfi_offset 14, -4
 1109 0002 82B0     		sub	sp, sp, #8
 1110              		.cfi_def_cfa_offset 16
 1111 0004 00AF     		add	r7, sp, #0
 1112              		.cfi_def_cfa_register 7
 1113 0006 0346     		mov	r3, r0
 1114 0008 FB71     		strb	r3, [r7, #7]
ARM GAS  C:\Users\Robert\AppData\Local\Temp\ccZodlkd.s 			page 46


1449:.\Generated_Source\PSoC5/CapSense_1.c ****     /* Set Sensor Settings */
1450:.\Generated_Source\PSoC5/CapSense_1.c ****     CapSense_1_SetScanSlotSettings(sensor);
 1115              		.loc 1 1450 0
 1116 000a FB79     		ldrb	r3, [r7, #7]	@ zero_extendqisi2
 1117 000c 1846     		mov	r0, r3
 1118 000e FFF7FEFF 		bl	CapSense_1_SetScanSlotSettings
1451:.\Generated_Source\PSoC5/CapSense_1.c ****     
1452:.\Generated_Source\PSoC5/CapSense_1.c ****     /* Place disable interrupts here to eliminate influence on start of scanning */
1453:.\Generated_Source\PSoC5/CapSense_1.c ****     /* `#START CapSense_1_PreScan_DisableInt` */
1454:.\Generated_Source\PSoC5/CapSense_1.c **** 
1455:.\Generated_Source\PSoC5/CapSense_1.c ****     /* `#END` */
1456:.\Generated_Source\PSoC5/CapSense_1.c ****     
1457:.\Generated_Source\PSoC5/CapSense_1.c ****     /* Resets digital and pre-charge clocks */
1458:.\Generated_Source\PSoC5/CapSense_1.c ****     CapSense_1_CONTROL_REG |= CapSense_1_CTRL_SYNC_EN;
 1119              		.loc 1 1458 0
 1120 0012 0F4A     		ldr	r2, .L51
 1121 0014 0E4B     		ldr	r3, .L51
 1122 0016 1B78     		ldrb	r3, [r3]
 1123 0018 DBB2     		uxtb	r3, r3
 1124 001a 43F00103 		orr	r3, r3, #1
 1125 001e DBB2     		uxtb	r3, r3
 1126 0020 1370     		strb	r3, [r2]
1459:.\Generated_Source\PSoC5/CapSense_1.c ****         
1460:.\Generated_Source\PSoC5/CapSense_1.c ****     #if (CapSense_1_DESIGN_TYPE == CapSense_1_ONE_CHANNEL_DESIGN)
1461:.\Generated_Source\PSoC5/CapSense_1.c ****         #if (CapSense_1_CURRENT_SOURCE == CapSense_1_IDAC_SOURCE)
1462:.\Generated_Source\PSoC5/CapSense_1.c ****             /* Disable Vref from AMux */
1463:.\Generated_Source\PSoC5/CapSense_1.c ****             #if (CapSense_1_VREF_VDAC == CapSense_1_VREF_OPTIONS)
1464:.\Generated_Source\PSoC5/CapSense_1.c ****                 CapSense_1_AMuxCH0_Disconnect(CapSense_1_AMuxCH0_VREF_CHANNEL);
1465:.\Generated_Source\PSoC5/CapSense_1.c ****             #else
1466:.\Generated_Source\PSoC5/CapSense_1.c ****                 CapSense_1_BufCH0_CAPS_CFG0_REG &= ~CapSense_1_CSBUF_ENABLE;
 1127              		.loc 1 1466 0
 1128 0022 0C4A     		ldr	r2, .L51+4
 1129 0024 0B4B     		ldr	r3, .L51+4
 1130 0026 1B78     		ldrb	r3, [r3]
 1131 0028 DBB2     		uxtb	r3, r3
 1132 002a 23F00103 		bic	r3, r3, #1
 1133 002e DBB2     		uxtb	r3, r3
 1134 0030 1370     		strb	r3, [r2]
1467:.\Generated_Source\PSoC5/CapSense_1.c ****             #endif  /* (CapSense_1_VREF_VDAC != CapSense_1_VREF_OPTIONS) */
1468:.\Generated_Source\PSoC5/CapSense_1.c **** 
1469:.\Generated_Source\PSoC5/CapSense_1.c ****             /* Enable Sensor */
1470:.\Generated_Source\PSoC5/CapSense_1.c ****             CapSense_1_EnableScanSlot(sensor);
 1135              		.loc 1 1470 0
 1136 0032 FB79     		ldrb	r3, [r7, #7]	@ zero_extendqisi2
 1137 0034 1846     		mov	r0, r3
 1138 0036 FFF7FEFF 		bl	CapSense_1_EnableSensor
1471:.\Generated_Source\PSoC5/CapSense_1.c ****             
1472:.\Generated_Source\PSoC5/CapSense_1.c ****         #elif (CapSense_1_CURRENT_SOURCE == CapSense_1_IDAC_SINK)
1473:.\Generated_Source\PSoC5/CapSense_1.c ****             /* Connect IDAC */
1474:.\Generated_Source\PSoC5/CapSense_1.c ****             CapSense_1_AMuxCH0_Connect(CapSense_1_AMuxCH0_IDAC_CHANNEL);
1475:.\Generated_Source\PSoC5/CapSense_1.c ****             
1476:.\Generated_Source\PSoC5/CapSense_1.c ****             /* Enable Sensor */
1477:.\Generated_Source\PSoC5/CapSense_1.c ****             CapSense_1_EnableScanSlot(sensor);
1478:.\Generated_Source\PSoC5/CapSense_1.c ****                 
1479:.\Generated_Source\PSoC5/CapSense_1.c ****             /* Disable CapSense Buffer */
1480:.\Generated_Source\PSoC5/CapSense_1.c ****             CapSense_1_BufCH0_CAPS_CFG0_REG &= (uint8)~CapSense_1_CSBUF_ENABLE;
1481:.\Generated_Source\PSoC5/CapSense_1.c ****             
ARM GAS  C:\Users\Robert\AppData\Local\Temp\ccZodlkd.s 			page 47


1482:.\Generated_Source\PSoC5/CapSense_1.c ****         #else
1483:.\Generated_Source\PSoC5/CapSense_1.c ****             /* Connect DSI output to Rb */
1484:.\Generated_Source\PSoC5/CapSense_1.c ****             *CapSense_1_rbTable[CapSense_1_extRbCh0Cur] |= CapSense_1_BYP_MASK;
1485:.\Generated_Source\PSoC5/CapSense_1.c ****             
1486:.\Generated_Source\PSoC5/CapSense_1.c ****             /* Enable Sensor */
1487:.\Generated_Source\PSoC5/CapSense_1.c ****             CapSense_1_EnableScanSlot(sensor);
1488:.\Generated_Source\PSoC5/CapSense_1.c ****              
1489:.\Generated_Source\PSoC5/CapSense_1.c ****             /* Disable CapSense Buffer */
1490:.\Generated_Source\PSoC5/CapSense_1.c ****             CapSense_1_BufCH0_CAPS_CFG0_REG &= ~CapSense_1_CSBUF_ENABLE;
1491:.\Generated_Source\PSoC5/CapSense_1.c ****         
1492:.\Generated_Source\PSoC5/CapSense_1.c ****         #endif  /* (CapSense_1_CURRENT_SOURCE == CapSense_1_IDAC_SOURCE) */
1493:.\Generated_Source\PSoC5/CapSense_1.c ****         
1494:.\Generated_Source\PSoC5/CapSense_1.c ****     #else
1495:.\Generated_Source\PSoC5/CapSense_1.c **** 
1496:.\Generated_Source\PSoC5/CapSense_1.c ****         if((CapSense_1_CONTROL_REG & CapSense_1_CTRL_WINDOW_EN__CH0) != 0u)
1497:.\Generated_Source\PSoC5/CapSense_1.c ****         {
1498:.\Generated_Source\PSoC5/CapSense_1.c ****             #if (CapSense_1_CURRENT_SOURCE == CapSense_1_IDAC_SOURCE)
1499:.\Generated_Source\PSoC5/CapSense_1.c ****                 /* Disable Vref from AMux */
1500:.\Generated_Source\PSoC5/CapSense_1.c ****                 #if (CapSense_1_VREF_VDAC == CapSense_1_VREF_OPTIONS)
1501:.\Generated_Source\PSoC5/CapSense_1.c ****                     CapSense_1_AMuxCH0_Disconnect(CapSense_1_AMuxCH0_VREF_CHANNEL);
1502:.\Generated_Source\PSoC5/CapSense_1.c ****                 #else
1503:.\Generated_Source\PSoC5/CapSense_1.c ****                     CapSense_1_BufCH0_CAPS_CFG0_REG &= ~CapSense_1_CSBUF_ENABLE;
1504:.\Generated_Source\PSoC5/CapSense_1.c ****                 #endif  /* (CapSense_1_VREF_VDAC != CapSense_1_VREF_OPTIONS) */
1505:.\Generated_Source\PSoC5/CapSense_1.c ****                 
1506:.\Generated_Source\PSoC5/CapSense_1.c ****                 /* Enable Sensor */
1507:.\Generated_Source\PSoC5/CapSense_1.c ****                 CapSense_1_EnableScanSlot(sensor);
1508:.\Generated_Source\PSoC5/CapSense_1.c ****                 
1509:.\Generated_Source\PSoC5/CapSense_1.c ****             #elif (CapSense_1_CURRENT_SOURCE == CapSense_1_IDAC_SINK)
1510:.\Generated_Source\PSoC5/CapSense_1.c ****                 /* Connect IDAC */
1511:.\Generated_Source\PSoC5/CapSense_1.c ****                 CapSense_1_AMuxCH0_Connect(CapSense_1_AMuxCH0_IDAC_CHANNEL);
1512:.\Generated_Source\PSoC5/CapSense_1.c ****                 
1513:.\Generated_Source\PSoC5/CapSense_1.c ****                 /* Enable Sensor */
1514:.\Generated_Source\PSoC5/CapSense_1.c ****                 CapSense_1_EnableScanSlot(sensor);
1515:.\Generated_Source\PSoC5/CapSense_1.c ****                     
1516:.\Generated_Source\PSoC5/CapSense_1.c ****                 /* Disable Vref from AMux */
1517:.\Generated_Source\PSoC5/CapSense_1.c ****                 CapSense_1_BufCH0_CAPS_CFG0_REG &= ~CapSense_1_CSBUF_ENABLE;
1518:.\Generated_Source\PSoC5/CapSense_1.c ****                 
1519:.\Generated_Source\PSoC5/CapSense_1.c ****             #else
1520:.\Generated_Source\PSoC5/CapSense_1.c ****                 /* Connect DSI output to Rb */
1521:.\Generated_Source\PSoC5/CapSense_1.c ****                 *CapSense_1_rbTable[CapSense_1_extRbCh0Cur] |= CapSense_1_BYP_MASK;
1522:.\Generated_Source\PSoC5/CapSense_1.c ****                 
1523:.\Generated_Source\PSoC5/CapSense_1.c ****                 /* Enable Sensor */
1524:.\Generated_Source\PSoC5/CapSense_1.c ****                 CapSense_1_EnableScanSlot(sensor);
1525:.\Generated_Source\PSoC5/CapSense_1.c ****                     
1526:.\Generated_Source\PSoC5/CapSense_1.c ****                 /* Disable Vref from AMux */
1527:.\Generated_Source\PSoC5/CapSense_1.c ****                 CapSense_1_BufCH0_CAPS_CFG0_REG &= ~CapSense_1_CSBUF_ENABLE;
1528:.\Generated_Source\PSoC5/CapSense_1.c ****             
1529:.\Generated_Source\PSoC5/CapSense_1.c ****             #endif  /* (CapSense_1_CURRENT_SOURCE == CapSense_1_IDAC_SOURCE) */
1530:.\Generated_Source\PSoC5/CapSense_1.c ****             
1531:.\Generated_Source\PSoC5/CapSense_1.c ****         }
1532:.\Generated_Source\PSoC5/CapSense_1.c ****         
1533:.\Generated_Source\PSoC5/CapSense_1.c ****         if((CapSense_1_CONTROL_REG & CapSense_1_CTRL_WINDOW_EN__CH1) != 0u)
1534:.\Generated_Source\PSoC5/CapSense_1.c ****         {
1535:.\Generated_Source\PSoC5/CapSense_1.c ****             sensor += CapSense_1_TOTAL_SENSOR_COUNT__CH0;
1536:.\Generated_Source\PSoC5/CapSense_1.c ****             
1537:.\Generated_Source\PSoC5/CapSense_1.c ****             #if (CapSense_1_CURRENT_SOURCE == CapSense_1_IDAC_SOURCE)
1538:.\Generated_Source\PSoC5/CapSense_1.c ****                 /* Disable Vref from AMux */
ARM GAS  C:\Users\Robert\AppData\Local\Temp\ccZodlkd.s 			page 48


1539:.\Generated_Source\PSoC5/CapSense_1.c ****                 #if (CapSense_1_VREF_VDAC == CapSense_1_VREF_OPTIONS)
1540:.\Generated_Source\PSoC5/CapSense_1.c ****                    CapSense_1_AMuxCH1_Disconnect(CapSense_1_AMuxCH1_VREF_CHANNEL);
1541:.\Generated_Source\PSoC5/CapSense_1.c ****                 #else 
1542:.\Generated_Source\PSoC5/CapSense_1.c ****                     CapSense_1_BufCH1_CAPS_CFG0_REG &= ~CapSense_1_CSBUF_ENABLE;
1543:.\Generated_Source\PSoC5/CapSense_1.c ****                 #endif  /* (CapSense_1_VREF_VDAC == CapSense_1_VREF_OPTIONS) */
1544:.\Generated_Source\PSoC5/CapSense_1.c ****                 
1545:.\Generated_Source\PSoC5/CapSense_1.c ****                 /* Enable Sensor */
1546:.\Generated_Source\PSoC5/CapSense_1.c ****                 CapSense_1_EnableScanSlot(sensor);
1547:.\Generated_Source\PSoC5/CapSense_1.c ****                 
1548:.\Generated_Source\PSoC5/CapSense_1.c ****             #elif (CapSense_1_CURRENT_SOURCE == CapSense_1_IDAC_SINK)
1549:.\Generated_Source\PSoC5/CapSense_1.c ****                 /* Connect IDAC */
1550:.\Generated_Source\PSoC5/CapSense_1.c ****                 CapSense_1_AMuxCH1_Connect(CapSense_1_AMuxCH1_IDAC_CHANNEL);
1551:.\Generated_Source\PSoC5/CapSense_1.c ****                 
1552:.\Generated_Source\PSoC5/CapSense_1.c ****                 /* Enable Sensor */
1553:.\Generated_Source\PSoC5/CapSense_1.c ****                 CapSense_1_EnableScanSlot(sensor);
1554:.\Generated_Source\PSoC5/CapSense_1.c ****                     
1555:.\Generated_Source\PSoC5/CapSense_1.c ****                 /* Disable Vref from AMux */
1556:.\Generated_Source\PSoC5/CapSense_1.c ****                 CapSense_1_BufCH1_CAPS_CFG0_REG &= ~CapSense_1_CSBUF_ENABLE;
1557:.\Generated_Source\PSoC5/CapSense_1.c ****                 
1558:.\Generated_Source\PSoC5/CapSense_1.c ****             #else
1559:.\Generated_Source\PSoC5/CapSense_1.c ****                 /* Connect DSI output to Rb */
1560:.\Generated_Source\PSoC5/CapSense_1.c ****                 *CapSense_1_rbTable[CapSense_1_extRbCh1Cur] |= CapSense_1_BYP_MASK;
1561:.\Generated_Source\PSoC5/CapSense_1.c ****                 
1562:.\Generated_Source\PSoC5/CapSense_1.c ****                 /* Enable Sensor */
1563:.\Generated_Source\PSoC5/CapSense_1.c ****                 CapSense_1_EnableScanSlot(sensor);
1564:.\Generated_Source\PSoC5/CapSense_1.c ****                 
1565:.\Generated_Source\PSoC5/CapSense_1.c ****                 /* Disable Vref from AMux */
1566:.\Generated_Source\PSoC5/CapSense_1.c ****                 CapSense_1_BufCH1_CAPS_CFG0_REG &= ~CapSense_1_CSBUF_ENABLE;
1567:.\Generated_Source\PSoC5/CapSense_1.c ****             
1568:.\Generated_Source\PSoC5/CapSense_1.c ****             #endif  /* (CapSense_1_CURRENT_SOURCE == CapSense_1_IDAC_SOURCE) */
1569:.\Generated_Source\PSoC5/CapSense_1.c ****         }
1570:.\Generated_Source\PSoC5/CapSense_1.c ****     
1571:.\Generated_Source\PSoC5/CapSense_1.c ****     #endif  /* (CapSense_1_DESIGN_TYPE == CapSense_1_ONE_CHANNEL_DESIGN) */
1572:.\Generated_Source\PSoC5/CapSense_1.c ****     
1573:.\Generated_Source\PSoC5/CapSense_1.c ****     /* Start measurament, pre-charge clocks are running and PRS as well */
1574:.\Generated_Source\PSoC5/CapSense_1.c ****     CapSense_1_CONTROL_REG |= CapSense_1_CTRL_START;
 1139              		.loc 1 1574 0
 1140 003a 054A     		ldr	r2, .L51
 1141 003c 044B     		ldr	r3, .L51
 1142 003e 1B78     		ldrb	r3, [r3]
 1143 0040 DBB2     		uxtb	r3, r3
 1144 0042 43F00203 		orr	r3, r3, #2
 1145 0046 DBB2     		uxtb	r3, r3
 1146 0048 1370     		strb	r3, [r2]
1575:.\Generated_Source\PSoC5/CapSense_1.c ****     
1576:.\Generated_Source\PSoC5/CapSense_1.c ****     /* Place enable interrupts here to eliminate influence on start of scanning */
1577:.\Generated_Source\PSoC5/CapSense_1.c ****     /* `#START CapSense_1_PreScan_EnableInt` */
1578:.\Generated_Source\PSoC5/CapSense_1.c **** 
1579:.\Generated_Source\PSoC5/CapSense_1.c ****     /* `#END` */
1580:.\Generated_Source\PSoC5/CapSense_1.c **** }
 1147              		.loc 1 1580 0
 1148 004a 0837     		adds	r7, r7, #8
 1149              		.cfi_def_cfa_offset 8
 1150 004c BD46     		mov	sp, r7
 1151              		.cfi_def_cfa_register 13
 1152              		@ sp needed
 1153 004e 80BD     		pop	{r7, pc}
ARM GAS  C:\Users\Robert\AppData\Local\Temp\ccZodlkd.s 			page 49


 1154              	.L52:
 1155              		.align	2
 1156              	.L51:
 1157 0050 74650040 		.word	1073767796
 1158 0054 70580040 		.word	1073764464
 1159              		.cfi_endproc
 1160              	.LFE13:
 1161              		.size	CapSense_1_PreScan, .-CapSense_1_PreScan
 1162              		.section	.text.CapSense_1_PostScan,"ax",%progbits
 1163              		.align	2
 1164              		.global	CapSense_1_PostScan
 1165              		.thumb
 1166              		.thumb_func
 1167              		.type	CapSense_1_PostScan, %function
 1168              	CapSense_1_PostScan:
 1169              	.LFB14:
1581:.\Generated_Source\PSoC5/CapSense_1.c **** 
1582:.\Generated_Source\PSoC5/CapSense_1.c **** 
1583:.\Generated_Source\PSoC5/CapSense_1.c **** #if (CapSense_1_DESIGN_TYPE == CapSense_1_ONE_CHANNEL_DESIGN)
1584:.\Generated_Source\PSoC5/CapSense_1.c ****     /*******************************************************************************
1585:.\Generated_Source\PSoC5/CapSense_1.c ****     * Function Name: CapSense_1_PostScan
1586:.\Generated_Source\PSoC5/CapSense_1.c ****     ********************************************************************************
1587:.\Generated_Source\PSoC5/CapSense_1.c ****     *
1588:.\Generated_Source\PSoC5/CapSense_1.c ****     * Summary:
1589:.\Generated_Source\PSoC5/CapSense_1.c ****     *  Store results of measurament in CapSense_1_SensorResult[] array,
1590:.\Generated_Source\PSoC5/CapSense_1.c ****     *  sets scan sensor in none sampling state, turn off Idac(Current Source IDAC),
1591:.\Generated_Source\PSoC5/CapSense_1.c ****     *  disconnect IDAC(Sink mode) or bleed resistor (Rb) and apply Vref on AMUX.
1592:.\Generated_Source\PSoC5/CapSense_1.c ****     *  Only one channel designs.
1593:.\Generated_Source\PSoC5/CapSense_1.c ****     *
1594:.\Generated_Source\PSoC5/CapSense_1.c ****     * Parameters:
1595:.\Generated_Source\PSoC5/CapSense_1.c ****     *  sensor:  Sensor number.
1596:.\Generated_Source\PSoC5/CapSense_1.c ****     *
1597:.\Generated_Source\PSoC5/CapSense_1.c ****     * Return:
1598:.\Generated_Source\PSoC5/CapSense_1.c ****     *  None
1599:.\Generated_Source\PSoC5/CapSense_1.c ****     *
1600:.\Generated_Source\PSoC5/CapSense_1.c ****     * Global Variables:
1601:.\Generated_Source\PSoC5/CapSense_1.c ****     *  CapSense_1_sensorRaw[] - used to store sensors raw data.
1602:.\Generated_Source\PSoC5/CapSense_1.c ****     *
1603:.\Generated_Source\PSoC5/CapSense_1.c ****     * Reentrant:
1604:.\Generated_Source\PSoC5/CapSense_1.c ****     *  No
1605:.\Generated_Source\PSoC5/CapSense_1.c ****     *
1606:.\Generated_Source\PSoC5/CapSense_1.c ****     *******************************************************************************/
1607:.\Generated_Source\PSoC5/CapSense_1.c ****     void CapSense_1_PostScan(uint8 sensor) CYREENTRANT
1608:.\Generated_Source\PSoC5/CapSense_1.c ****     {
 1170              		.loc 1 1608 0
 1171              		.cfi_startproc
 1172              		@ args = 0, pretend = 0, frame = 8
 1173              		@ frame_needed = 1, uses_anonymous_args = 0
 1174 0000 80B5     		push	{r7, lr}
 1175              		.cfi_def_cfa_offset 8
 1176              		.cfi_offset 7, -8
 1177              		.cfi_offset 14, -4
 1178 0002 82B0     		sub	sp, sp, #8
 1179              		.cfi_def_cfa_offset 16
 1180 0004 00AF     		add	r7, sp, #0
 1181              		.cfi_def_cfa_register 7
 1182 0006 0346     		mov	r3, r0
ARM GAS  C:\Users\Robert\AppData\Local\Temp\ccZodlkd.s 			page 50


 1183 0008 FB71     		strb	r3, [r7, #7]
1609:.\Generated_Source\PSoC5/CapSense_1.c ****         /* Stop Capsensing and rearm sync */
1610:.\Generated_Source\PSoC5/CapSense_1.c ****         CapSense_1_CONTROL_REG &= (uint8)~(CapSense_1_CTRL_START | CapSense_1_CTRL_SYNC_EN);
 1184              		.loc 1 1610 0
 1185 000a 1E4A     		ldr	r2, .L54
 1186 000c 1D4B     		ldr	r3, .L54
 1187 000e 1B78     		ldrb	r3, [r3]
 1188 0010 DBB2     		uxtb	r3, r3
 1189 0012 23F00303 		bic	r3, r3, #3
 1190 0016 DBB2     		uxtb	r3, r3
 1191 0018 1370     		strb	r3, [r2]
1611:.\Generated_Source\PSoC5/CapSense_1.c ****         
1612:.\Generated_Source\PSoC5/CapSense_1.c ****         /* Read SlotResult from Raw Counter */
1613:.\Generated_Source\PSoC5/CapSense_1.c ****         #if (CapSense_1_IMPLEMENTATION_CH0 == CapSense_1_MEASURE_IMPLEMENTATION_FF)
1614:.\Generated_Source\PSoC5/CapSense_1.c ****             CapSense_1_sensorRaw[sensor]  = CapSense_1_MEASURE_FULL_RANGE - 
1615:.\Generated_Source\PSoC5/CapSense_1.c ****                                                       CY_GET_REG16(CapSense_1_RAW_CH0_COUNTER_PTR);
1616:.\Generated_Source\PSoC5/CapSense_1.c ****         #else
1617:.\Generated_Source\PSoC5/CapSense_1.c ****             CapSense_1_sensorRaw[sensor]  = ((uint16) CapSense_1_RAW_CH0_COUNTER_HI_REG << 8u);
 1192              		.loc 1 1617 0
 1193 001a FB79     		ldrb	r3, [r7, #7]	@ zero_extendqisi2
 1194 001c 1A4A     		ldr	r2, .L54+4
 1195 001e 1278     		ldrb	r2, [r2]
 1196 0020 D2B2     		uxtb	r2, r2
 1197 0022 92B2     		uxth	r2, r2
 1198 0024 1202     		lsls	r2, r2, #8
 1199 0026 91B2     		uxth	r1, r2
 1200 0028 184A     		ldr	r2, .L54+8
 1201 002a 22F81310 		strh	r1, [r2, r3, lsl #1]	@ movhi
1618:.\Generated_Source\PSoC5/CapSense_1.c ****             CapSense_1_sensorRaw[sensor] |= (uint16) CapSense_1_RAW_CH0_COUNTER_LO_REG;
 1202              		.loc 1 1618 0
 1203 002e 184B     		ldr	r3, .L54+12
 1204 0030 1B78     		ldrb	r3, [r3]
 1205 0032 DBB2     		uxtb	r3, r3
 1206 0034 9AB2     		uxth	r2, r3
 1207 0036 FB79     		ldrb	r3, [r7, #7]	@ zero_extendqisi2
 1208 0038 F979     		ldrb	r1, [r7, #7]	@ zero_extendqisi2
 1209 003a 1448     		ldr	r0, .L54+8
 1210 003c 30F81110 		ldrh	r1, [r0, r1, lsl #1]
 1211 0040 0A43     		orrs	r2, r2, r1
 1212 0042 91B2     		uxth	r1, r2
 1213 0044 114A     		ldr	r2, .L54+8
 1214 0046 22F81310 		strh	r1, [r2, r3, lsl #1]	@ movhi
1619:.\Generated_Source\PSoC5/CapSense_1.c ****             CapSense_1_sensorRaw[sensor]  = CapSense_1_MEASURE_FULL_RANGE -
 1215              		.loc 1 1619 0
 1216 004a FB79     		ldrb	r3, [r7, #7]	@ zero_extendqisi2
1620:.\Generated_Source\PSoC5/CapSense_1.c ****                                                       CapSense_1_sensorRaw[sensor];
 1217              		.loc 1 1620 0
 1218 004c FA79     		ldrb	r2, [r7, #7]	@ zero_extendqisi2
 1219 004e 0F49     		ldr	r1, .L54+8
 1220 0050 31F81220 		ldrh	r2, [r1, r2, lsl #1]
1619:.\Generated_Source\PSoC5/CapSense_1.c ****             CapSense_1_sensorRaw[sensor]  = CapSense_1_MEASURE_FULL_RANGE -
 1221              		.loc 1 1619 0
 1222 0054 D243     		mvns	r2, r2
 1223 0056 91B2     		uxth	r1, r2
 1224 0058 0C4A     		ldr	r2, .L54+8
 1225 005a 22F81310 		strh	r1, [r2, r3, lsl #1]	@ movhi
1621:.\Generated_Source\PSoC5/CapSense_1.c ****         #endif  /* (CapSense_1_IMPLEMENTATION == CapSense_1_MEASURE_IMPLEMENTATION_FF) */
ARM GAS  C:\Users\Robert\AppData\Local\Temp\ccZodlkd.s 			page 51


1622:.\Generated_Source\PSoC5/CapSense_1.c ****         
1623:.\Generated_Source\PSoC5/CapSense_1.c ****         /* Disable Sensor */
1624:.\Generated_Source\PSoC5/CapSense_1.c ****         CapSense_1_DisableScanSlot(sensor);
 1226              		.loc 1 1624 0
 1227 005e FB79     		ldrb	r3, [r7, #7]	@ zero_extendqisi2
 1228 0060 1846     		mov	r0, r3
 1229 0062 FFF7FEFF 		bl	CapSense_1_DisableSensor
1625:.\Generated_Source\PSoC5/CapSense_1.c ****         
1626:.\Generated_Source\PSoC5/CapSense_1.c ****         #if(CapSense_1_CURRENT_SOURCE)
1627:.\Generated_Source\PSoC5/CapSense_1.c ****             /* Turn off IDAC */
1628:.\Generated_Source\PSoC5/CapSense_1.c ****             CapSense_1_IdacCH0_SetValue(CapSense_1_TURN_OFF_IDAC);
 1230              		.loc 1 1628 0
 1231 0066 0020     		movs	r0, #0
 1232 0068 FFF7FEFF 		bl	CapSense_1_IdacCH0_SetValue
1629:.\Generated_Source\PSoC5/CapSense_1.c ****             #if (CapSense_1_CURRENT_SOURCE == CapSense_1_IDAC_SINK)
1630:.\Generated_Source\PSoC5/CapSense_1.c ****                 /* Disconnect IDAC */
1631:.\Generated_Source\PSoC5/CapSense_1.c ****                 CapSense_1_AMuxCH0_Disconnect(CapSense_1_AMuxCH0_IDAC_CHANNEL);
1632:.\Generated_Source\PSoC5/CapSense_1.c ****             #endif  /* (CapSense_1_CURRENT_SOURCE == CapSense_1_IDAC_SINK) */
1633:.\Generated_Source\PSoC5/CapSense_1.c ****         #else
1634:.\Generated_Source\PSoC5/CapSense_1.c ****             /* Disconnect DSI output from Rb */
1635:.\Generated_Source\PSoC5/CapSense_1.c ****             *CapSense_1_rbTable[CapSense_1_extRbCh0Cur] &= ~CapSense_1_BYP_MASK; 
1636:.\Generated_Source\PSoC5/CapSense_1.c ****         #endif  /* (CapSense_1_CURRENT_SOURCE)*/
1637:.\Generated_Source\PSoC5/CapSense_1.c ****             
1638:.\Generated_Source\PSoC5/CapSense_1.c ****         /* Enable Vref on AMUX */
1639:.\Generated_Source\PSoC5/CapSense_1.c ****         #if (CapSense_1_VREF_OPTIONS == CapSense_1_VREF_VDAC)
1640:.\Generated_Source\PSoC5/CapSense_1.c ****             CapSense_1_AMuxCH0_Connect(CapSense_1_AMuxCH0_VREF_CHANNEL);
1641:.\Generated_Source\PSoC5/CapSense_1.c ****         #else
1642:.\Generated_Source\PSoC5/CapSense_1.c ****             CapSense_1_BufCH0_CAPS_CFG0_REG |= CapSense_1_CSBUF_ENABLE;
 1233              		.loc 1 1642 0
 1234 006c 094A     		ldr	r2, .L54+16
 1235 006e 094B     		ldr	r3, .L54+16
 1236 0070 1B78     		ldrb	r3, [r3]
 1237 0072 DBB2     		uxtb	r3, r3
 1238 0074 43F00103 		orr	r3, r3, #1
 1239 0078 DBB2     		uxtb	r3, r3
 1240 007a 1370     		strb	r3, [r2]
1643:.\Generated_Source\PSoC5/CapSense_1.c ****         #endif  /* (CapSense_1_VREF_VDAC == CapSense_1_VREF_OPTIONS) */
1644:.\Generated_Source\PSoC5/CapSense_1.c ****     }
 1241              		.loc 1 1644 0
 1242 007c 0837     		adds	r7, r7, #8
 1243              		.cfi_def_cfa_offset 8
 1244 007e BD46     		mov	sp, r7
 1245              		.cfi_def_cfa_register 13
 1246              		@ sp needed
 1247 0080 80BD     		pop	{r7, pc}
 1248              	.L55:
 1249 0082 00BF     		.align	2
 1250              	.L54:
 1251 0084 74650040 		.word	1073767796
 1252 0088 16640040 		.word	1073767446
 1253 008c 00000000 		.word	CapSense_1_sensorRaw
 1254 0090 06640040 		.word	1073767430
 1255 0094 70580040 		.word	1073764464
 1256              		.cfi_endproc
 1257              	.LFE14:
 1258              		.size	CapSense_1_PostScan, .-CapSense_1_PostScan
 1259              		.section	.text.CapSense_1_SetPrescaler,"ax",%progbits
ARM GAS  C:\Users\Robert\AppData\Local\Temp\ccZodlkd.s 			page 52


 1260              		.align	2
 1261              		.global	CapSense_1_SetPrescaler
 1262              		.thumb
 1263              		.thumb_func
 1264              		.type	CapSense_1_SetPrescaler, %function
 1265              	CapSense_1_SetPrescaler:
 1266              	.LFB15:
1645:.\Generated_Source\PSoC5/CapSense_1.c ****     
1646:.\Generated_Source\PSoC5/CapSense_1.c **** #else
1647:.\Generated_Source\PSoC5/CapSense_1.c **** 
1648:.\Generated_Source\PSoC5/CapSense_1.c ****     /*******************************************************************************
1649:.\Generated_Source\PSoC5/CapSense_1.c ****     * Function Name: CapSense_1_PostScan
1650:.\Generated_Source\PSoC5/CapSense_1.c ****     ********************************************************************************
1651:.\Generated_Source\PSoC5/CapSense_1.c ****     *
1652:.\Generated_Source\PSoC5/CapSense_1.c ****     * Summary:
1653:.\Generated_Source\PSoC5/CapSense_1.c ****     *  Store results of measurament in CapSense_1_SensorResult[] array,
1654:.\Generated_Source\PSoC5/CapSense_1.c ****     *  sets scan sensor in none sampling state, turn off Idac(Current Source IDAC),
1655:.\Generated_Source\PSoC5/CapSense_1.c ****     *  disconnect IDAC(Sink mode) or bleed resistor (Rb) and apply Vref on AMUX.
1656:.\Generated_Source\PSoC5/CapSense_1.c ****     *  Only used for channel 0 in two channes designs.
1657:.\Generated_Source\PSoC5/CapSense_1.c ****     *
1658:.\Generated_Source\PSoC5/CapSense_1.c ****     * Parameters:
1659:.\Generated_Source\PSoC5/CapSense_1.c ****     *  sensor:  Sensor number.
1660:.\Generated_Source\PSoC5/CapSense_1.c ****     *
1661:.\Generated_Source\PSoC5/CapSense_1.c ****     * Return:
1662:.\Generated_Source\PSoC5/CapSense_1.c ****     *  None
1663:.\Generated_Source\PSoC5/CapSense_1.c ****     *
1664:.\Generated_Source\PSoC5/CapSense_1.c ****     * Global Variables:
1665:.\Generated_Source\PSoC5/CapSense_1.c ****     *  CapSense_1_sensorRaw[] - used to store sensors raw data.
1666:.\Generated_Source\PSoC5/CapSense_1.c ****     *
1667:.\Generated_Source\PSoC5/CapSense_1.c ****     * Reentrant:
1668:.\Generated_Source\PSoC5/CapSense_1.c ****     *  No
1669:.\Generated_Source\PSoC5/CapSense_1.c ****     *
1670:.\Generated_Source\PSoC5/CapSense_1.c ****     *******************************************************************************/
1671:.\Generated_Source\PSoC5/CapSense_1.c ****     void CapSense_1_PostScanCh0(uint8 sensor) CYREENTRANT
1672:.\Generated_Source\PSoC5/CapSense_1.c ****     {
1673:.\Generated_Source\PSoC5/CapSense_1.c ****         if (((CapSense_1_CONTROL_REG & CapSense_1_CTRL_WINDOW_EN__CH0) == 0u) && 
1674:.\Generated_Source\PSoC5/CapSense_1.c ****             ((CapSense_1_CONTROL_REG & CapSense_1_CTRL_WINDOW_EN__CH1) == 0u)) 
1675:.\Generated_Source\PSoC5/CapSense_1.c ****         {
1676:.\Generated_Source\PSoC5/CapSense_1.c ****             /* Stop Capsensing and rearm sync */
1677:.\Generated_Source\PSoC5/CapSense_1.c ****             CapSense_1_CONTROL_REG &= ~(CapSense_1_CTRL_START | CapSense_1_CTRL_SYNC_EN);
1678:.\Generated_Source\PSoC5/CapSense_1.c ****         }
1679:.\Generated_Source\PSoC5/CapSense_1.c ****         
1680:.\Generated_Source\PSoC5/CapSense_1.c ****         /* Read SlotResult from Raw Counter */
1681:.\Generated_Source\PSoC5/CapSense_1.c ****         #if (CapSense_1_IMPLEMENTATION_CH0 == CapSense_1_MEASURE_IMPLEMENTATION_FF)
1682:.\Generated_Source\PSoC5/CapSense_1.c ****             CapSense_1_sensorRaw[sensor]  = CapSense_1_MEASURE_FULL_RANGE - 
1683:.\Generated_Source\PSoC5/CapSense_1.c ****                                                       CY_GET_REG16(CapSense_1_RAW_CH0_COUNTER_PTR);
1684:.\Generated_Source\PSoC5/CapSense_1.c ****         #else
1685:.\Generated_Source\PSoC5/CapSense_1.c ****             CapSense_1_sensorRaw[sensor]  = ((uint16) CapSense_1_RAW_CH0_COUNTER_HI_REG << 8u);
1686:.\Generated_Source\PSoC5/CapSense_1.c ****             CapSense_1_sensorRaw[sensor] |= (uint16) CapSense_1_RAW_CH0_COUNTER_LO_REG;
1687:.\Generated_Source\PSoC5/CapSense_1.c ****             CapSense_1_sensorRaw[sensor]  = CapSense_1_MEASURE_FULL_RANGE - 
1688:.\Generated_Source\PSoC5/CapSense_1.c ****                                                       CapSense_1_sensorRaw[sensor];
1689:.\Generated_Source\PSoC5/CapSense_1.c ****         #endif  /* (CapSense_1_IMPLEMENTATION_CH0 == CapSense_1_MEASURE_IMPLEMENTATION_FF)*/
1690:.\Generated_Source\PSoC5/CapSense_1.c ****         
1691:.\Generated_Source\PSoC5/CapSense_1.c ****         /* Disable Sensor */
1692:.\Generated_Source\PSoC5/CapSense_1.c ****         CapSense_1_DisableScanSlot(sensor);
1693:.\Generated_Source\PSoC5/CapSense_1.c ****         
1694:.\Generated_Source\PSoC5/CapSense_1.c ****         #if (CapSense_1_CURRENT_SOURCE)
ARM GAS  C:\Users\Robert\AppData\Local\Temp\ccZodlkd.s 			page 53


1695:.\Generated_Source\PSoC5/CapSense_1.c ****             /* Turn off IDAC */
1696:.\Generated_Source\PSoC5/CapSense_1.c ****             CapSense_1_IdacCH0_SetValue(CapSense_1_TURN_OFF_IDAC);
1697:.\Generated_Source\PSoC5/CapSense_1.c ****             #if (CapSense_1_CURRENT_SOURCE == CapSense_1_IDAC_SINK)
1698:.\Generated_Source\PSoC5/CapSense_1.c ****                 /* Disconnect IDAC */
1699:.\Generated_Source\PSoC5/CapSense_1.c ****                 CapSense_1_AMuxCH0_Disconnect(CapSense_1_AMuxCH0_IDAC_CHANNEL);
1700:.\Generated_Source\PSoC5/CapSense_1.c ****             #endif  /* (CapSense_1_CURRENT_SOURCE == CapSense_1_IDAC_SINK) */
1701:.\Generated_Source\PSoC5/CapSense_1.c ****         #else
1702:.\Generated_Source\PSoC5/CapSense_1.c ****             /* Disconnect DSI output from Rb */
1703:.\Generated_Source\PSoC5/CapSense_1.c ****             *CapSense_1_rbTable[CapSense_1_extRbCh0Cur] &= ~CapSense_1_BYP_MASK; 
1704:.\Generated_Source\PSoC5/CapSense_1.c ****         #endif  /* (CapSense_1_CURRENT_SOURCE)*/
1705:.\Generated_Source\PSoC5/CapSense_1.c ****         
1706:.\Generated_Source\PSoC5/CapSense_1.c ****         /* Enable Vref on AMUX */
1707:.\Generated_Source\PSoC5/CapSense_1.c ****         #if (CapSense_1_VREF_OPTIONS == CapSense_1_VREF_VDAC)
1708:.\Generated_Source\PSoC5/CapSense_1.c ****             CapSense_1_AMuxCH0_Connect(CapSense_1_AMuxCH0_VREF_CHANNEL);
1709:.\Generated_Source\PSoC5/CapSense_1.c ****         #else
1710:.\Generated_Source\PSoC5/CapSense_1.c ****             CapSense_1_BufCH0_CAPS_CFG0_REG |= CapSense_1_CSBUF_ENABLE;
1711:.\Generated_Source\PSoC5/CapSense_1.c ****         #endif  /* (CapSense_1_VREF_VDAC == CapSense_1_VREF_OPTIONS) */
1712:.\Generated_Source\PSoC5/CapSense_1.c ****     }
1713:.\Generated_Source\PSoC5/CapSense_1.c ****     
1714:.\Generated_Source\PSoC5/CapSense_1.c ****     
1715:.\Generated_Source\PSoC5/CapSense_1.c ****     /*******************************************************************************
1716:.\Generated_Source\PSoC5/CapSense_1.c ****     * Function Name: CapSense_1_PostScanCh1
1717:.\Generated_Source\PSoC5/CapSense_1.c ****     ********************************************************************************
1718:.\Generated_Source\PSoC5/CapSense_1.c ****     *
1719:.\Generated_Source\PSoC5/CapSense_1.c ****     * Summary:
1720:.\Generated_Source\PSoC5/CapSense_1.c ****     *  Store results of measurament in CapSense_1_SensorResult[] array,
1721:.\Generated_Source\PSoC5/CapSense_1.c ****     *  sets scan sensor in none sampling state, turn off Idac(Current Source IDAC), 
1722:.\Generated_Source\PSoC5/CapSense_1.c ****     *  disconnect IDAC(Sink mode) or bleed resistor (Rb) and apply Vref on AMUX.
1723:.\Generated_Source\PSoC5/CapSense_1.c ****     *  Only used for channel 1 in two channes designs.
1724:.\Generated_Source\PSoC5/CapSense_1.c ****     *
1725:.\Generated_Source\PSoC5/CapSense_1.c ****     * Parameters:
1726:.\Generated_Source\PSoC5/CapSense_1.c ****     *  sensor:  Sensor number.
1727:.\Generated_Source\PSoC5/CapSense_1.c ****     *
1728:.\Generated_Source\PSoC5/CapSense_1.c ****     * Return:
1729:.\Generated_Source\PSoC5/CapSense_1.c ****     *  None
1730:.\Generated_Source\PSoC5/CapSense_1.c ****     *
1731:.\Generated_Source\PSoC5/CapSense_1.c ****     * Global Variables:
1732:.\Generated_Source\PSoC5/CapSense_1.c ****     *  CapSense_1_sensorRaw[] - used to store sensors raw data.
1733:.\Generated_Source\PSoC5/CapSense_1.c ****     *
1734:.\Generated_Source\PSoC5/CapSense_1.c ****     * Reentrant:
1735:.\Generated_Source\PSoC5/CapSense_1.c ****     *  No
1736:.\Generated_Source\PSoC5/CapSense_1.c ****     *
1737:.\Generated_Source\PSoC5/CapSense_1.c ****     *******************************************************************************/
1738:.\Generated_Source\PSoC5/CapSense_1.c ****     void CapSense_1_PostScanCh1(uint8 sensor) CYREENTRANT
1739:.\Generated_Source\PSoC5/CapSense_1.c ****     {
1740:.\Generated_Source\PSoC5/CapSense_1.c ****         if (((CapSense_1_CONTROL_REG & CapSense_1_CTRL_WINDOW_EN__CH0) == 0u) && 
1741:.\Generated_Source\PSoC5/CapSense_1.c ****             ((CapSense_1_CONTROL_REG & CapSense_1_CTRL_WINDOW_EN__CH1) == 0u))
1742:.\Generated_Source\PSoC5/CapSense_1.c ****         {
1743:.\Generated_Source\PSoC5/CapSense_1.c ****             /* Stop Capsensing and rearm sync */
1744:.\Generated_Source\PSoC5/CapSense_1.c ****             CapSense_1_CONTROL_REG &= ~(CapSense_1_CTRL_START | CapSense_1_CTRL_SYNC_EN);
1745:.\Generated_Source\PSoC5/CapSense_1.c ****         }
1746:.\Generated_Source\PSoC5/CapSense_1.c ****         
1747:.\Generated_Source\PSoC5/CapSense_1.c ****         /* Read SlotResult from Raw Counter */
1748:.\Generated_Source\PSoC5/CapSense_1.c ****         #if (CapSense_1_IMPLEMENTATION_CH1 == CapSense_1_MEASURE_IMPLEMENTATION_FF)
1749:.\Generated_Source\PSoC5/CapSense_1.c ****             CapSense_1_sensorRaw[sensor]  = CapSense_1_MEASURE_FULL_RANGE - 
1750:.\Generated_Source\PSoC5/CapSense_1.c ****                                                       CY_GET_REG16(CapSense_1_RAW_CH1_COUNTER_PTR);
1751:.\Generated_Source\PSoC5/CapSense_1.c ****         #else
ARM GAS  C:\Users\Robert\AppData\Local\Temp\ccZodlkd.s 			page 54


1752:.\Generated_Source\PSoC5/CapSense_1.c ****             CapSense_1_sensorRaw[sensor]  = ((uint16) CapSense_1_RAW_CH1_COUNTER_HI_REG << 8u);
1753:.\Generated_Source\PSoC5/CapSense_1.c ****             CapSense_1_sensorRaw[sensor] |= (uint16) CapSense_1_RAW_CH1_COUNTER_LO_REG;
1754:.\Generated_Source\PSoC5/CapSense_1.c ****             CapSense_1_sensorRaw[sensor]  = CapSense_1_MEASURE_FULL_RANGE - 
1755:.\Generated_Source\PSoC5/CapSense_1.c ****                                                       CapSense_1_sensorRaw[sensor];
1756:.\Generated_Source\PSoC5/CapSense_1.c ****         #endif  /* (CapSense_1_IMPLEMENTATION_CH1 == CapSense_1_MEASURE_IMPLEMENTATION_FF)*/
1757:.\Generated_Source\PSoC5/CapSense_1.c ****         
1758:.\Generated_Source\PSoC5/CapSense_1.c ****         /* Disable Sensor */
1759:.\Generated_Source\PSoC5/CapSense_1.c ****         CapSense_1_DisableScanSlot(sensor);
1760:.\Generated_Source\PSoC5/CapSense_1.c ****         
1761:.\Generated_Source\PSoC5/CapSense_1.c ****         #if (CapSense_1_CURRENT_SOURCE)
1762:.\Generated_Source\PSoC5/CapSense_1.c ****             /* Turn off IDAC */
1763:.\Generated_Source\PSoC5/CapSense_1.c ****             CapSense_1_IdacCH1_SetValue(CapSense_1_TURN_OFF_IDAC);
1764:.\Generated_Source\PSoC5/CapSense_1.c ****             #if (CapSense_1_CURRENT_SOURCE == CapSense_1_IDAC_SINK)
1765:.\Generated_Source\PSoC5/CapSense_1.c ****                 /* Disconnect IDAC */
1766:.\Generated_Source\PSoC5/CapSense_1.c ****                 CapSense_1_AMuxCH1_Disconnect(CapSense_1_AMuxCH1_IDAC_CHANNEL);
1767:.\Generated_Source\PSoC5/CapSense_1.c ****             #endif  /* (CapSense_1_CURRENT_SOURCE == CapSense_1_IDAC_SINK) */
1768:.\Generated_Source\PSoC5/CapSense_1.c ****         #else
1769:.\Generated_Source\PSoC5/CapSense_1.c ****             /* Disconnect DSI output from Rb */
1770:.\Generated_Source\PSoC5/CapSense_1.c ****             *CapSense_1_rbTable[CapSense_1_extRbCh1Cur] &= ~CapSense_1_BYP_MASK; 
1771:.\Generated_Source\PSoC5/CapSense_1.c ****         #endif  /* (CapSense_1_CURRENT_SOURCE)*/
1772:.\Generated_Source\PSoC5/CapSense_1.c **** 
1773:.\Generated_Source\PSoC5/CapSense_1.c ****         /* Enable Vref on AMUX */
1774:.\Generated_Source\PSoC5/CapSense_1.c ****         #if (CapSense_1_VREF_OPTIONS == CapSense_1_VREF_VDAC)
1775:.\Generated_Source\PSoC5/CapSense_1.c ****             CapSense_1_AMuxCH1_Connect(CapSense_1_AMuxCH1_VREF_CHANNEL);
1776:.\Generated_Source\PSoC5/CapSense_1.c ****         #else
1777:.\Generated_Source\PSoC5/CapSense_1.c ****             CapSense_1_BufCH1_CAPS_CFG0_REG |= CapSense_1_CSBUF_ENABLE;
1778:.\Generated_Source\PSoC5/CapSense_1.c ****         #endif  /* (CapSense_1_VREF_VDAC == CapSense_1_VREF_OPTIONS) */
1779:.\Generated_Source\PSoC5/CapSense_1.c ****     }
1780:.\Generated_Source\PSoC5/CapSense_1.c ****     
1781:.\Generated_Source\PSoC5/CapSense_1.c **** #endif  /* CapSense_1_DESIGN_TYPE */
1782:.\Generated_Source\PSoC5/CapSense_1.c **** 
1783:.\Generated_Source\PSoC5/CapSense_1.c **** 
1784:.\Generated_Source\PSoC5/CapSense_1.c **** #if (CapSense_1_CURRENT_SOURCE == CapSense_1_EXTERNAL_RB)
1785:.\Generated_Source\PSoC5/CapSense_1.c ****     /*******************************************************************************
1786:.\Generated_Source\PSoC5/CapSense_1.c ****     * Function Name:  CapSense_1_InitRb
1787:.\Generated_Source\PSoC5/CapSense_1.c ****     ********************************************************************************
1788:.\Generated_Source\PSoC5/CapSense_1.c ****     *
1789:.\Generated_Source\PSoC5/CapSense_1.c ****     * Summary:
1790:.\Generated_Source\PSoC5/CapSense_1.c ****     *  Sets all Rbleed resistor to High-Z mode. The first Rbleed resistor is active
1791:.\Generated_Source\PSoC5/CapSense_1.c ****     *  while next measure.
1792:.\Generated_Source\PSoC5/CapSense_1.c ****     *  This function is available only if Current Source is External Resistor.
1793:.\Generated_Source\PSoC5/CapSense_1.c ****     *
1794:.\Generated_Source\PSoC5/CapSense_1.c ****     * Parameters:
1795:.\Generated_Source\PSoC5/CapSense_1.c ****     *  None
1796:.\Generated_Source\PSoC5/CapSense_1.c ****     *
1797:.\Generated_Source\PSoC5/CapSense_1.c ****     * Return:
1798:.\Generated_Source\PSoC5/CapSense_1.c ****     *  None
1799:.\Generated_Source\PSoC5/CapSense_1.c ****     *
1800:.\Generated_Source\PSoC5/CapSense_1.c ****     ********************************************************************************/
1801:.\Generated_Source\PSoC5/CapSense_1.c ****     void CapSense_1_InitRb(void) 
1802:.\Generated_Source\PSoC5/CapSense_1.c ****     {
1803:.\Generated_Source\PSoC5/CapSense_1.c ****         uint8 i;
1804:.\Generated_Source\PSoC5/CapSense_1.c ****         
1805:.\Generated_Source\PSoC5/CapSense_1.c ****         /* Disable all Rb */
1806:.\Generated_Source\PSoC5/CapSense_1.c ****         for(i = 0u; i < CapSense_1_TOTAL_RB_NUMBER; i++)
1807:.\Generated_Source\PSoC5/CapSense_1.c ****         {
1808:.\Generated_Source\PSoC5/CapSense_1.c ****             /* Make High-Z */
ARM GAS  C:\Users\Robert\AppData\Local\Temp\ccZodlkd.s 			page 55


1809:.\Generated_Source\PSoC5/CapSense_1.c ****             *CapSense_1_rbTable[i] = CapSense_1_PRT_PC_HIGHZ;
1810:.\Generated_Source\PSoC5/CapSense_1.c ****         }
1811:.\Generated_Source\PSoC5/CapSense_1.c ****     }
1812:.\Generated_Source\PSoC5/CapSense_1.c ****     
1813:.\Generated_Source\PSoC5/CapSense_1.c ****     
1814:.\Generated_Source\PSoC5/CapSense_1.c ****     /*******************************************************************************
1815:.\Generated_Source\PSoC5/CapSense_1.c ****     * Function Name: CapSense_1_SetRBleed
1816:.\Generated_Source\PSoC5/CapSense_1.c ****     ********************************************************************************
1817:.\Generated_Source\PSoC5/CapSense_1.c ****     *
1818:.\Generated_Source\PSoC5/CapSense_1.c ****     * Summary:
1819:.\Generated_Source\PSoC5/CapSense_1.c ****     *  Sets the pin to use for the bleed resistor (Rb) connection. This function
1820:.\Generated_Source\PSoC5/CapSense_1.c ****     *  can be called at runtime to select the current Rb pin setting from those 
1821:.\Generated_Source\PSoC5/CapSense_1.c ****     *  defined customizer. The function overwrites the component parameter setting. 
1822:.\Generated_Source\PSoC5/CapSense_1.c ****     *  This function is available only if Current Source is External Resistor.
1823:.\Generated_Source\PSoC5/CapSense_1.c ****     * 
1824:.\Generated_Source\PSoC5/CapSense_1.c ****     * Parameters:
1825:.\Generated_Source\PSoC5/CapSense_1.c ****     *  rbleed:  Ordering number for bleed resistor terminal defined in CapSense
1826:.\Generated_Source\PSoC5/CapSense_1.c ****     *  customizer.
1827:.\Generated_Source\PSoC5/CapSense_1.c ****     *
1828:.\Generated_Source\PSoC5/CapSense_1.c ****     * Return:
1829:.\Generated_Source\PSoC5/CapSense_1.c ****     *  None
1830:.\Generated_Source\PSoC5/CapSense_1.c ****     *
1831:.\Generated_Source\PSoC5/CapSense_1.c ****     * Global Variables:
1832:.\Generated_Source\PSoC5/CapSense_1.c ****     *  CapSense_1_extRbCh0Cur - used to store current number of active 
1833:.\Generated_Source\PSoC5/CapSense_1.c ****     *  bleed resistor (Rb) of channel 0.
1834:.\Generated_Source\PSoC5/CapSense_1.c ****     *  CapSense_1_extRbCh1Cur - used to store current number of active 
1835:.\Generated_Source\PSoC5/CapSense_1.c ****     *  bleed resistor (Rb) of channel 1.
1836:.\Generated_Source\PSoC5/CapSense_1.c ****     *  The active bleed resistor (Rb) pin will be used while next measurement  
1837:.\Generated_Source\PSoC5/CapSense_1.c ****     *  cycle.
1838:.\Generated_Source\PSoC5/CapSense_1.c ****     *
1839:.\Generated_Source\PSoC5/CapSense_1.c ****     * Reentrant:
1840:.\Generated_Source\PSoC5/CapSense_1.c ****     *  No
1841:.\Generated_Source\PSoC5/CapSense_1.c ****     *
1842:.\Generated_Source\PSoC5/CapSense_1.c ****     *******************************************************************************/
1843:.\Generated_Source\PSoC5/CapSense_1.c ****     void CapSense_1_SetRBleed(uint8 rbleed) 
1844:.\Generated_Source\PSoC5/CapSense_1.c ****     {
1845:.\Generated_Source\PSoC5/CapSense_1.c ****         #if (CapSense_1_DESIGN_TYPE == CapSense_1_ONE_CHANNEL_DESIGN)
1846:.\Generated_Source\PSoC5/CapSense_1.c ****             CapSense_1_extRbCh0Cur = rbleed;
1847:.\Generated_Source\PSoC5/CapSense_1.c ****             
1848:.\Generated_Source\PSoC5/CapSense_1.c ****         #else
1849:.\Generated_Source\PSoC5/CapSense_1.c ****             if(rbleed < CapSense_1_TOTAL_RB_NUMBER__CH0)
1850:.\Generated_Source\PSoC5/CapSense_1.c ****             {
1851:.\Generated_Source\PSoC5/CapSense_1.c ****                 CapSense_1_extRbCh0Cur = rbleed;
1852:.\Generated_Source\PSoC5/CapSense_1.c ****             }
1853:.\Generated_Source\PSoC5/CapSense_1.c ****             else
1854:.\Generated_Source\PSoC5/CapSense_1.c ****             {
1855:.\Generated_Source\PSoC5/CapSense_1.c ****                 CapSense_1_extRbCh1Cur = (rbleed - CapSense_1_TOTAL_RB_NUMBER__CH0);   
1856:.\Generated_Source\PSoC5/CapSense_1.c ****             }
1857:.\Generated_Source\PSoC5/CapSense_1.c ****     
1858:.\Generated_Source\PSoC5/CapSense_1.c ****         #endif  /* CapSense_1_DESIGN_TYPE == CapSense_1_ONE_CHANNEL_DESIGN */ 
1859:.\Generated_Source\PSoC5/CapSense_1.c ****     }
1860:.\Generated_Source\PSoC5/CapSense_1.c **** #endif /* CapSense_1_CURRENT_SOURCE == CapSense_1_EXTERNAL_RB */ 
1861:.\Generated_Source\PSoC5/CapSense_1.c **** 
1862:.\Generated_Source\PSoC5/CapSense_1.c **** #if (CapSense_1_PRESCALER_OPTIONS)
1863:.\Generated_Source\PSoC5/CapSense_1.c ****     /*******************************************************************************
1864:.\Generated_Source\PSoC5/CapSense_1.c ****     * Function Name: CapSense_1_SetPrescaler
1865:.\Generated_Source\PSoC5/CapSense_1.c ****     ********************************************************************************
ARM GAS  C:\Users\Robert\AppData\Local\Temp\ccZodlkd.s 			page 56


1866:.\Generated_Source\PSoC5/CapSense_1.c ****     *
1867:.\Generated_Source\PSoC5/CapSense_1.c ****     * Summary:
1868:.\Generated_Source\PSoC5/CapSense_1.c ****     *  Sets analog switch divider.
1869:.\Generated_Source\PSoC5/CapSense_1.c ****     *
1870:.\Generated_Source\PSoC5/CapSense_1.c ****     * Parameters:
1871:.\Generated_Source\PSoC5/CapSense_1.c ****     *  prescaler:  Sets prescaler divider values.
1872:.\Generated_Source\PSoC5/CapSense_1.c ****     *
1873:.\Generated_Source\PSoC5/CapSense_1.c ****     * Return:
1874:.\Generated_Source\PSoC5/CapSense_1.c ****     *  None
1875:.\Generated_Source\PSoC5/CapSense_1.c ****     *
1876:.\Generated_Source\PSoC5/CapSense_1.c ****     *******************************************************************************/
1877:.\Generated_Source\PSoC5/CapSense_1.c ****     void CapSense_1_SetPrescaler(uint8 prescaler) CYREENTRANT
1878:.\Generated_Source\PSoC5/CapSense_1.c ****     {
 1267              		.loc 1 1878 0
 1268              		.cfi_startproc
 1269              		@ args = 0, pretend = 0, frame = 8
 1270              		@ frame_needed = 1, uses_anonymous_args = 0
 1271              		@ link register save eliminated.
 1272 0000 80B4     		push	{r7}
 1273              		.cfi_def_cfa_offset 4
 1274              		.cfi_offset 7, -4
 1275 0002 83B0     		sub	sp, sp, #12
 1276              		.cfi_def_cfa_offset 16
 1277 0004 00AF     		add	r7, sp, #0
 1278              		.cfi_def_cfa_register 7
 1279 0006 0346     		mov	r3, r0
 1280 0008 FB71     		strb	r3, [r7, #7]
1879:.\Generated_Source\PSoC5/CapSense_1.c ****         /* Set Prescaler */
1880:.\Generated_Source\PSoC5/CapSense_1.c ****         #if (CapSense_1_PRESCALER_OPTIONS == CapSense_1_PRESCALER_UDB)
1881:.\Generated_Source\PSoC5/CapSense_1.c ****             CapSense_1_PRESCALER_PERIOD_REG = prescaler;
 1281              		.loc 1 1881 0
 1282 000a 064A     		ldr	r2, .L57
 1283 000c FB79     		ldrb	r3, [r7, #7]
 1284 000e 1370     		strb	r3, [r2]
1882:.\Generated_Source\PSoC5/CapSense_1.c ****             CapSense_1_PRESCALER_COMPARE_REG = (prescaler >> 1u);
 1285              		.loc 1 1882 0
 1286 0010 054A     		ldr	r2, .L57+4
 1287 0012 FB79     		ldrb	r3, [r7, #7]	@ zero_extendqisi2
 1288 0014 5B08     		lsrs	r3, r3, #1
 1289 0016 DBB2     		uxtb	r3, r3
 1290 0018 1370     		strb	r3, [r2]
1883:.\Generated_Source\PSoC5/CapSense_1.c ****         #elif (CapSense_1_PRESCALER_OPTIONS == CapSense_1_PRESCALER_FF)
1884:.\Generated_Source\PSoC5/CapSense_1.c ****             CY_SET_REG16(CapSense_1_PRESCALER_PERIOD_PTR, (uint16) prescaler);
1885:.\Generated_Source\PSoC5/CapSense_1.c ****             CY_SET_REG16(CapSense_1_PRESCALER_COMPARE_PTR, (uint16) (prescaler >> 1u));
1886:.\Generated_Source\PSoC5/CapSense_1.c ****         #else
1887:.\Generated_Source\PSoC5/CapSense_1.c ****             /* Do nothing = config without prescaler */
1888:.\Generated_Source\PSoC5/CapSense_1.c ****         #endif  /* (CapSense_1_PRESCALER_OPTIONS == CapSense_1_PRESCALER_UDB) */
1889:.\Generated_Source\PSoC5/CapSense_1.c ****     }
 1291              		.loc 1 1889 0
 1292 001a 0C37     		adds	r7, r7, #12
 1293              		.cfi_def_cfa_offset 4
 1294 001c BD46     		mov	sp, r7
 1295              		.cfi_def_cfa_register 13
 1296              		@ sp needed
 1297 001e 5DF8047B 		ldr	r7, [sp], #4
 1298              		.cfi_restore 7
 1299              		.cfi_def_cfa_offset 0
ARM GAS  C:\Users\Robert\AppData\Local\Temp\ccZodlkd.s 			page 57


 1300 0022 7047     		bx	lr
 1301              	.L58:
 1302              		.align	2
 1303              	.L57:
 1304 0024 22640040 		.word	1073767458
 1305 0028 32640040 		.word	1073767474
 1306              		.cfi_endproc
 1307              	.LFE15:
 1308              		.size	CapSense_1_SetPrescaler, .-CapSense_1_SetPrescaler
 1309              		.section	.text.CapSense_1_GetPrescaler,"ax",%progbits
 1310              		.align	2
 1311              		.global	CapSense_1_GetPrescaler
 1312              		.thumb
 1313              		.thumb_func
 1314              		.type	CapSense_1_GetPrescaler, %function
 1315              	CapSense_1_GetPrescaler:
 1316              	.LFB16:
1890:.\Generated_Source\PSoC5/CapSense_1.c **** 
1891:.\Generated_Source\PSoC5/CapSense_1.c **** 
1892:.\Generated_Source\PSoC5/CapSense_1.c ****     /*******************************************************************************
1893:.\Generated_Source\PSoC5/CapSense_1.c ****     * Function Name: CapSense_1_GetPrescaler
1894:.\Generated_Source\PSoC5/CapSense_1.c ****     ********************************************************************************
1895:.\Generated_Source\PSoC5/CapSense_1.c ****     *
1896:.\Generated_Source\PSoC5/CapSense_1.c ****     * Summary:
1897:.\Generated_Source\PSoC5/CapSense_1.c ****     *  Gets analog switch divider.
1898:.\Generated_Source\PSoC5/CapSense_1.c ****     *
1899:.\Generated_Source\PSoC5/CapSense_1.c ****     * Parameters:
1900:.\Generated_Source\PSoC5/CapSense_1.c ****     *  None
1901:.\Generated_Source\PSoC5/CapSense_1.c ****     *
1902:.\Generated_Source\PSoC5/CapSense_1.c ****     * Return:
1903:.\Generated_Source\PSoC5/CapSense_1.c ****     *   Returns the prescaler divider value.
1904:.\Generated_Source\PSoC5/CapSense_1.c ****     *
1905:.\Generated_Source\PSoC5/CapSense_1.c ****     *******************************************************************************/
1906:.\Generated_Source\PSoC5/CapSense_1.c ****     uint8 CapSense_1_GetPrescaler(void) 
1907:.\Generated_Source\PSoC5/CapSense_1.c ****     {
 1317              		.loc 1 1907 0
 1318              		.cfi_startproc
 1319              		@ args = 0, pretend = 0, frame = 8
 1320              		@ frame_needed = 1, uses_anonymous_args = 0
 1321              		@ link register save eliminated.
 1322 0000 80B4     		push	{r7}
 1323              		.cfi_def_cfa_offset 4
 1324              		.cfi_offset 7, -4
 1325 0002 83B0     		sub	sp, sp, #12
 1326              		.cfi_def_cfa_offset 16
 1327 0004 00AF     		add	r7, sp, #0
 1328              		.cfi_def_cfa_register 7
1908:.\Generated_Source\PSoC5/CapSense_1.c ****         uint8 prescaler = 0u;
 1329              		.loc 1 1908 0
 1330 0006 0023     		movs	r3, #0
 1331 0008 FB71     		strb	r3, [r7, #7]
1909:.\Generated_Source\PSoC5/CapSense_1.c **** 
1910:.\Generated_Source\PSoC5/CapSense_1.c ****         /* Get Prescaler */
1911:.\Generated_Source\PSoC5/CapSense_1.c ****         #if (CapSense_1_PRESCALER_OPTIONS == CapSense_1_PRESCALER_UDB)
1912:.\Generated_Source\PSoC5/CapSense_1.c ****             prescaler = CapSense_1_PRESCALER_PERIOD_REG;
 1332              		.loc 1 1912 0
 1333 000a 054B     		ldr	r3, .L61
ARM GAS  C:\Users\Robert\AppData\Local\Temp\ccZodlkd.s 			page 58


 1334 000c 1B78     		ldrb	r3, [r3]
 1335 000e FB71     		strb	r3, [r7, #7]
1913:.\Generated_Source\PSoC5/CapSense_1.c ****             
1914:.\Generated_Source\PSoC5/CapSense_1.c ****         #elif (CapSense_1_PRESCALER_OPTIONS == CapSense_1_PRESCALER_FF)
1915:.\Generated_Source\PSoC5/CapSense_1.c ****             prescaler = (uint8) CY_GET_REG16(CapSense_1_PRESCALER_PERIOD_PTR);
1916:.\Generated_Source\PSoC5/CapSense_1.c ****             
1917:.\Generated_Source\PSoC5/CapSense_1.c ****         #else
1918:.\Generated_Source\PSoC5/CapSense_1.c ****             /* Do nothing = config without prescaler */
1919:.\Generated_Source\PSoC5/CapSense_1.c ****         #endif  /* (CapSense_1_PRESCALER_OPTIONS == CapSense_1_PRESCALER_UDB) */
1920:.\Generated_Source\PSoC5/CapSense_1.c ****         
1921:.\Generated_Source\PSoC5/CapSense_1.c ****         return (prescaler);
 1336              		.loc 1 1921 0
 1337 0010 FB79     		ldrb	r3, [r7, #7]	@ zero_extendqisi2
1922:.\Generated_Source\PSoC5/CapSense_1.c ****     }
 1338              		.loc 1 1922 0
 1339 0012 1846     		mov	r0, r3
 1340 0014 0C37     		adds	r7, r7, #12
 1341              		.cfi_def_cfa_offset 4
 1342 0016 BD46     		mov	sp, r7
 1343              		.cfi_def_cfa_register 13
 1344              		@ sp needed
 1345 0018 5DF8047B 		ldr	r7, [sp], #4
 1346              		.cfi_restore 7
 1347              		.cfi_def_cfa_offset 0
 1348 001c 7047     		bx	lr
 1349              	.L62:
 1350 001e 00BF     		.align	2
 1351              	.L61:
 1352 0020 22640040 		.word	1073767458
 1353              		.cfi_endproc
 1354              	.LFE16:
 1355              		.size	CapSense_1_GetPrescaler, .-CapSense_1_GetPrescaler
 1356              		.section	.text.CapSense_1_SetScanSpeed,"ax",%progbits
 1357              		.align	2
 1358              		.global	CapSense_1_SetScanSpeed
 1359              		.thumb
 1360              		.thumb_func
 1361              		.type	CapSense_1_SetScanSpeed, %function
 1362              	CapSense_1_SetScanSpeed:
 1363              	.LFB17:
1923:.\Generated_Source\PSoC5/CapSense_1.c **** #endif  /* CapSense_1_PRESCALER_OPTIONS */
1924:.\Generated_Source\PSoC5/CapSense_1.c **** 
1925:.\Generated_Source\PSoC5/CapSense_1.c **** 
1926:.\Generated_Source\PSoC5/CapSense_1.c **** /*******************************************************************************
1927:.\Generated_Source\PSoC5/CapSense_1.c **** * Function Name: CapSense_1_SetScanSpeed
1928:.\Generated_Source\PSoC5/CapSense_1.c **** ********************************************************************************
1929:.\Generated_Source\PSoC5/CapSense_1.c **** *
1930:.\Generated_Source\PSoC5/CapSense_1.c **** * Summary:
1931:.\Generated_Source\PSoC5/CapSense_1.c **** *  Sets ScanSpeed divider.
1932:.\Generated_Source\PSoC5/CapSense_1.c **** *
1933:.\Generated_Source\PSoC5/CapSense_1.c **** * Parameters:
1934:.\Generated_Source\PSoC5/CapSense_1.c **** *  scanspeed:  Sets ScanSpeed divider.
1935:.\Generated_Source\PSoC5/CapSense_1.c **** *
1936:.\Generated_Source\PSoC5/CapSense_1.c **** * Return:
1937:.\Generated_Source\PSoC5/CapSense_1.c **** *  None
1938:.\Generated_Source\PSoC5/CapSense_1.c **** *
1939:.\Generated_Source\PSoC5/CapSense_1.c **** *******************************************************************************/
ARM GAS  C:\Users\Robert\AppData\Local\Temp\ccZodlkd.s 			page 59


1940:.\Generated_Source\PSoC5/CapSense_1.c **** void CapSense_1_SetScanSpeed(uint8 scanSpeed) 
1941:.\Generated_Source\PSoC5/CapSense_1.c **** {
 1364              		.loc 1 1941 0
 1365              		.cfi_startproc
 1366              		@ args = 0, pretend = 0, frame = 8
 1367              		@ frame_needed = 1, uses_anonymous_args = 0
 1368              		@ link register save eliminated.
 1369 0000 80B4     		push	{r7}
 1370              		.cfi_def_cfa_offset 4
 1371              		.cfi_offset 7, -4
 1372 0002 83B0     		sub	sp, sp, #12
 1373              		.cfi_def_cfa_offset 16
 1374 0004 00AF     		add	r7, sp, #0
 1375              		.cfi_def_cfa_register 7
 1376 0006 0346     		mov	r3, r0
 1377 0008 FB71     		strb	r3, [r7, #7]
1942:.\Generated_Source\PSoC5/CapSense_1.c ****     CapSense_1_SCANSPEED_PERIOD_REG = scanSpeed; 
 1378              		.loc 1 1942 0
 1379 000a 044A     		ldr	r2, .L64
 1380 000c FB79     		ldrb	r3, [r7, #7]
 1381 000e 1370     		strb	r3, [r2]
1943:.\Generated_Source\PSoC5/CapSense_1.c **** }
 1382              		.loc 1 1943 0
 1383 0010 0C37     		adds	r7, r7, #12
 1384              		.cfi_def_cfa_offset 4
 1385 0012 BD46     		mov	sp, r7
 1386              		.cfi_def_cfa_register 13
 1387              		@ sp needed
 1388 0014 5DF8047B 		ldr	r7, [sp], #4
 1389              		.cfi_restore 7
 1390              		.cfi_def_cfa_offset 0
 1391 0018 7047     		bx	lr
 1392              	.L65:
 1393 001a 00BF     		.align	2
 1394              	.L64:
 1395 001c 86640040 		.word	1073767558
 1396              		.cfi_endproc
 1397              	.LFE17:
 1398              		.size	CapSense_1_SetScanSpeed, .-CapSense_1_SetScanSpeed
 1399              		.section	.text.CapSense_1_SetAnalogSwitchesSource,"ax",%progbits
 1400              		.align	2
 1401              		.global	CapSense_1_SetAnalogSwitchesSource
 1402              		.thumb
 1403              		.thumb_func
 1404              		.type	CapSense_1_SetAnalogSwitchesSource, %function
 1405              	CapSense_1_SetAnalogSwitchesSource:
 1406              	.LFB18:
1944:.\Generated_Source\PSoC5/CapSense_1.c **** 
1945:.\Generated_Source\PSoC5/CapSense_1.c **** 
1946:.\Generated_Source\PSoC5/CapSense_1.c **** #if (CapSense_1_PRS_OPTIONS)
1947:.\Generated_Source\PSoC5/CapSense_1.c ****     /*******************************************************************************
1948:.\Generated_Source\PSoC5/CapSense_1.c ****     * Function Name: CapSense_1_SetAnalogSwitchesSource
1949:.\Generated_Source\PSoC5/CapSense_1.c ****     ********************************************************************************
1950:.\Generated_Source\PSoC5/CapSense_1.c ****     *
1951:.\Generated_Source\PSoC5/CapSense_1.c ****     * Summary:
1952:.\Generated_Source\PSoC5/CapSense_1.c ****     *  Selects the Analog switches source between PRS and prescaler. It is useful
1953:.\Generated_Source\PSoC5/CapSense_1.c ****     *  for sensor capacitance determination for sensors with low self-capacitance.
ARM GAS  C:\Users\Robert\AppData\Local\Temp\ccZodlkd.s 			page 60


1954:.\Generated_Source\PSoC5/CapSense_1.c ****     *  This function is used in auto-tuning procedure.
1955:.\Generated_Source\PSoC5/CapSense_1.c ****     *
1956:.\Generated_Source\PSoC5/CapSense_1.c ****     * Parameters:
1957:.\Generated_Source\PSoC5/CapSense_1.c ****     *  src:  analog switches source:
1958:.\Generated_Source\PSoC5/CapSense_1.c ****     *           CapSense_1_ANALOG_SWITCHES_SRC_PRESCALER - selects prescaler
1959:.\Generated_Source\PSoC5/CapSense_1.c ****     *           CapSense_1_ANALOG_SWITCHES_SRC_PRS - selects PRS
1960:.\Generated_Source\PSoC5/CapSense_1.c ****     *
1961:.\Generated_Source\PSoC5/CapSense_1.c ****     * Return:
1962:.\Generated_Source\PSoC5/CapSense_1.c ****     *  None
1963:.\Generated_Source\PSoC5/CapSense_1.c ****     *
1964:.\Generated_Source\PSoC5/CapSense_1.c ****     * Reentrant:
1965:.\Generated_Source\PSoC5/CapSense_1.c ****     *  No
1966:.\Generated_Source\PSoC5/CapSense_1.c ****     *******************************************************************************/
1967:.\Generated_Source\PSoC5/CapSense_1.c ****     void CapSense_1_SetAnalogSwitchesSource(uint8 src)
1968:.\Generated_Source\PSoC5/CapSense_1.c ****                       
1969:.\Generated_Source\PSoC5/CapSense_1.c ****     {
 1407              		.loc 1 1969 0
 1408              		.cfi_startproc
 1409              		@ args = 0, pretend = 0, frame = 8
 1410              		@ frame_needed = 1, uses_anonymous_args = 0
 1411              		@ link register save eliminated.
 1412 0000 80B4     		push	{r7}
 1413              		.cfi_def_cfa_offset 4
 1414              		.cfi_offset 7, -4
 1415 0002 83B0     		sub	sp, sp, #12
 1416              		.cfi_def_cfa_offset 16
 1417 0004 00AF     		add	r7, sp, #0
 1418              		.cfi_def_cfa_register 7
 1419 0006 0346     		mov	r3, r0
 1420 0008 FB71     		strb	r3, [r7, #7]
1970:.\Generated_Source\PSoC5/CapSense_1.c ****         if(src == CapSense_1_ANALOG_SWITCHES_SRC_PRESCALER)
 1421              		.loc 1 1970 0
 1422 000a FB79     		ldrb	r3, [r7, #7]	@ zero_extendqisi2
 1423 000c 012B     		cmp	r3, #1
 1424 000e 08D1     		bne	.L67
1971:.\Generated_Source\PSoC5/CapSense_1.c ****         {
1972:.\Generated_Source\PSoC5/CapSense_1.c ****             CapSense_1_CONTROL_REG &= (uint8)~0x10u;
 1425              		.loc 1 1972 0
 1426 0010 0A4A     		ldr	r2, .L69
 1427 0012 0A4B     		ldr	r3, .L69
 1428 0014 1B78     		ldrb	r3, [r3]
 1429 0016 DBB2     		uxtb	r3, r3
 1430 0018 23F01003 		bic	r3, r3, #16
 1431 001c DBB2     		uxtb	r3, r3
 1432 001e 1370     		strb	r3, [r2]
 1433 0020 07E0     		b	.L66
 1434              	.L67:
1973:.\Generated_Source\PSoC5/CapSense_1.c ****         }
1974:.\Generated_Source\PSoC5/CapSense_1.c ****         else
1975:.\Generated_Source\PSoC5/CapSense_1.c ****         {
1976:.\Generated_Source\PSoC5/CapSense_1.c ****             CapSense_1_CONTROL_REG |= 0x10u;
 1435              		.loc 1 1976 0
 1436 0022 064A     		ldr	r2, .L69
 1437 0024 054B     		ldr	r3, .L69
 1438 0026 1B78     		ldrb	r3, [r3]
 1439 0028 DBB2     		uxtb	r3, r3
 1440 002a 43F01003 		orr	r3, r3, #16
ARM GAS  C:\Users\Robert\AppData\Local\Temp\ccZodlkd.s 			page 61


 1441 002e DBB2     		uxtb	r3, r3
 1442 0030 1370     		strb	r3, [r2]
 1443              	.L66:
1977:.\Generated_Source\PSoC5/CapSense_1.c ****         }
1978:.\Generated_Source\PSoC5/CapSense_1.c ****     }
 1444              		.loc 1 1978 0
 1445 0032 0C37     		adds	r7, r7, #12
 1446              		.cfi_def_cfa_offset 4
 1447 0034 BD46     		mov	sp, r7
 1448              		.cfi_def_cfa_register 13
 1449              		@ sp needed
 1450 0036 5DF8047B 		ldr	r7, [sp], #4
 1451              		.cfi_restore 7
 1452              		.cfi_def_cfa_offset 0
 1453 003a 7047     		bx	lr
 1454              	.L70:
 1455              		.align	2
 1456              	.L69:
 1457 003c 74650040 		.word	1073767796
 1458              		.cfi_endproc
 1459              	.LFE18:
 1460              		.size	CapSense_1_SetAnalogSwitchesSource, .-CapSense_1_SetAnalogSwitchesSource
 1461              		.text
 1462              	.Letext0:
 1463              		.file 2 ".\\Generated_Source\\PSoC5\\cytypes.h"