ARM GAS  C:\Users\Robert\AppData\Local\Temp\cclbLtji.s 			page 1


   1              		.syntax unified
   2              		.cpu cortex-m3
   3              		.fpu softvfp
   4              		.eabi_attribute 20, 1
   5              		.eabi_attribute 21, 1
   6              		.eabi_attribute 23, 3
   7              		.eabi_attribute 24, 1
   8              		.eabi_attribute 25, 1
   9              		.eabi_attribute 26, 1
  10              		.eabi_attribute 30, 6
  11              		.eabi_attribute 34, 1
  12              		.eabi_attribute 18, 4
  13              		.thumb
  14              		.file	"cyfitter_cfg.c"
  15              		.text
  16              	.Ltext0:
  17              		.cfi_sections	.debug_frame
  18              		.section	.text.CYMEMZERO,"ax",%progbits
  19              		.align	2
  20              		.thumb
  21              		.thumb_func
  22              		.type	CYMEMZERO, %function
  23              	CYMEMZERO:
  24              	.LFB0:
  25              		.file 1 ".\\Generated_Source\\PSoC5\\cyfitter_cfg.c"
   1:.\Generated_Source\PSoC5/cyfitter_cfg.c **** /*******************************************************************************
   2:.\Generated_Source\PSoC5/cyfitter_cfg.c **** * File Name: cyfitter_cfg.c
   3:.\Generated_Source\PSoC5/cyfitter_cfg.c **** * 
   4:.\Generated_Source\PSoC5/cyfitter_cfg.c **** * PSoC Creator  3.3 CP1
   5:.\Generated_Source\PSoC5/cyfitter_cfg.c **** *
   6:.\Generated_Source\PSoC5/cyfitter_cfg.c **** * Description:
   7:.\Generated_Source\PSoC5/cyfitter_cfg.c **** * This file contains device initialization code.
   8:.\Generated_Source\PSoC5/cyfitter_cfg.c **** * Except for the user defined sections in CyClockStartupError(), this file should not be modified.
   9:.\Generated_Source\PSoC5/cyfitter_cfg.c **** * This file is automatically generated by PSoC Creator.
  10:.\Generated_Source\PSoC5/cyfitter_cfg.c **** *
  11:.\Generated_Source\PSoC5/cyfitter_cfg.c **** ********************************************************************************
  12:.\Generated_Source\PSoC5/cyfitter_cfg.c **** * Copyright (c) 2007-2015 Cypress Semiconductor.  All rights reserved.
  13:.\Generated_Source\PSoC5/cyfitter_cfg.c **** * You may use this file only in accordance with the license, terms, conditions, 
  14:.\Generated_Source\PSoC5/cyfitter_cfg.c **** * disclaimers, and limitations in the end user license agreement accompanying 
  15:.\Generated_Source\PSoC5/cyfitter_cfg.c **** * the software package with which this file was provided.
  16:.\Generated_Source\PSoC5/cyfitter_cfg.c **** ********************************************************************************/
  17:.\Generated_Source\PSoC5/cyfitter_cfg.c **** 
  18:.\Generated_Source\PSoC5/cyfitter_cfg.c **** #include <string.h>
  19:.\Generated_Source\PSoC5/cyfitter_cfg.c **** #include "cytypes.h"
  20:.\Generated_Source\PSoC5/cyfitter_cfg.c **** #include "cydevice_trm.h"
  21:.\Generated_Source\PSoC5/cyfitter_cfg.c **** #include "cyfitter.h"
  22:.\Generated_Source\PSoC5/cyfitter_cfg.c **** #include "CyLib.h"
  23:.\Generated_Source\PSoC5/cyfitter_cfg.c **** #include "cyfitter_cfg.h"
  24:.\Generated_Source\PSoC5/cyfitter_cfg.c **** 
  25:.\Generated_Source\PSoC5/cyfitter_cfg.c **** #define CY_NEED_CYCLOCKSTARTUPERROR 1
  26:.\Generated_Source\PSoC5/cyfitter_cfg.c **** 
  27:.\Generated_Source\PSoC5/cyfitter_cfg.c **** 
  28:.\Generated_Source\PSoC5/cyfitter_cfg.c **** #if defined(__GNUC__) || defined(__ARMCC_VERSION)
  29:.\Generated_Source\PSoC5/cyfitter_cfg.c ****     #define CYPACKED 
  30:.\Generated_Source\PSoC5/cyfitter_cfg.c ****     #define CYPACKED_ATTR __attribute__ ((packed))
  31:.\Generated_Source\PSoC5/cyfitter_cfg.c ****     #define CYALIGNED __attribute__ ((aligned))
  32:.\Generated_Source\PSoC5/cyfitter_cfg.c ****     #define CY_CFG_UNUSED __attribute__ ((unused))
ARM GAS  C:\Users\Robert\AppData\Local\Temp\cclbLtji.s 			page 2


  33:.\Generated_Source\PSoC5/cyfitter_cfg.c ****     #define CY_CFG_SECTION __attribute__ ((section(".psocinit")))
  34:.\Generated_Source\PSoC5/cyfitter_cfg.c ****     
  35:.\Generated_Source\PSoC5/cyfitter_cfg.c ****     #if defined(__ARMCC_VERSION)
  36:.\Generated_Source\PSoC5/cyfitter_cfg.c ****         #define CY_CFG_MEMORY_BARRIER() __memory_changed()
  37:.\Generated_Source\PSoC5/cyfitter_cfg.c ****     #else
  38:.\Generated_Source\PSoC5/cyfitter_cfg.c ****         #define CY_CFG_MEMORY_BARRIER() __sync_synchronize()
  39:.\Generated_Source\PSoC5/cyfitter_cfg.c ****     #endif
  40:.\Generated_Source\PSoC5/cyfitter_cfg.c ****     
  41:.\Generated_Source\PSoC5/cyfitter_cfg.c **** #elif defined(__ICCARM__)
  42:.\Generated_Source\PSoC5/cyfitter_cfg.c ****     #include <intrinsics.h>
  43:.\Generated_Source\PSoC5/cyfitter_cfg.c **** 
  44:.\Generated_Source\PSoC5/cyfitter_cfg.c ****     #define CYPACKED __packed
  45:.\Generated_Source\PSoC5/cyfitter_cfg.c ****     #define CYPACKED_ATTR 
  46:.\Generated_Source\PSoC5/cyfitter_cfg.c ****     #define CYALIGNED _Pragma("data_alignment=4")
  47:.\Generated_Source\PSoC5/cyfitter_cfg.c ****     #define CY_CFG_UNUSED _Pragma("diag_suppress=Pe177")
  48:.\Generated_Source\PSoC5/cyfitter_cfg.c ****     #define CY_CFG_SECTION _Pragma("location=\".psocinit\"")
  49:.\Generated_Source\PSoC5/cyfitter_cfg.c ****     
  50:.\Generated_Source\PSoC5/cyfitter_cfg.c ****     #define CY_CFG_MEMORY_BARRIER() __DMB()
  51:.\Generated_Source\PSoC5/cyfitter_cfg.c ****     
  52:.\Generated_Source\PSoC5/cyfitter_cfg.c **** #else
  53:.\Generated_Source\PSoC5/cyfitter_cfg.c ****     #error Unsupported toolchain
  54:.\Generated_Source\PSoC5/cyfitter_cfg.c **** #endif
  55:.\Generated_Source\PSoC5/cyfitter_cfg.c **** 
  56:.\Generated_Source\PSoC5/cyfitter_cfg.c **** #if defined(__ARMCC_VERSION)
  57:.\Generated_Source\PSoC5/cyfitter_cfg.c ****     extern unsigned int Load$$LR$$CYCONFIGECC$$Base;
  58:.\Generated_Source\PSoC5/cyfitter_cfg.c ****     #pragma diag_suppress 170,1296
  59:.\Generated_Source\PSoC5/cyfitter_cfg.c ****     #define CYDEV_ECC_VIRT_BASE 0x80000000
  60:.\Generated_Source\PSoC5/cyfitter_cfg.c ****     #define CYAPP_ECC_OFFSET ((uint32)&Load$$LR$$CYCONFIGECC$$Base - CYDEV_ECC_VIRT_BASE)
  61:.\Generated_Source\PSoC5/cyfitter_cfg.c **** #elif defined (__GNUC__) || defined (__ICCARM__)
  62:.\Generated_Source\PSoC5/cyfitter_cfg.c ****     extern int CY_ECC_OFFSET;
  63:.\Generated_Source\PSoC5/cyfitter_cfg.c ****     #define CYAPP_ECC_OFFSET ((uint32)&CY_ECC_OFFSET)
  64:.\Generated_Source\PSoC5/cyfitter_cfg.c **** #endif
  65:.\Generated_Source\PSoC5/cyfitter_cfg.c **** 
  66:.\Generated_Source\PSoC5/cyfitter_cfg.c **** CY_CFG_UNUSED
  67:.\Generated_Source\PSoC5/cyfitter_cfg.c **** static void CYMEMZERO(void *s, size_t n);
  68:.\Generated_Source\PSoC5/cyfitter_cfg.c **** CY_CFG_UNUSED
  69:.\Generated_Source\PSoC5/cyfitter_cfg.c **** static void CYMEMZERO(void *s, size_t n)
  70:.\Generated_Source\PSoC5/cyfitter_cfg.c **** {
  26              		.loc 1 70 0
  27              		.cfi_startproc
  28              		@ args = 0, pretend = 0, frame = 8
  29              		@ frame_needed = 1, uses_anonymous_args = 0
  30 0000 80B5     		push	{r7, lr}
  31              		.cfi_def_cfa_offset 8
  32              		.cfi_offset 7, -8
  33              		.cfi_offset 14, -4
  34 0002 82B0     		sub	sp, sp, #8
  35              		.cfi_def_cfa_offset 16
  36 0004 00AF     		add	r7, sp, #0
  37              		.cfi_def_cfa_register 7
  38 0006 7860     		str	r0, [r7, #4]
  39 0008 3960     		str	r1, [r7]
  71:.\Generated_Source\PSoC5/cyfitter_cfg.c **** 	(void)memset(s, 0, n);
  40              		.loc 1 71 0
  41 000a 7868     		ldr	r0, [r7, #4]
  42 000c 0021     		movs	r1, #0
  43 000e 3A68     		ldr	r2, [r7]
ARM GAS  C:\Users\Robert\AppData\Local\Temp\cclbLtji.s 			page 3


  44 0010 FFF7FEFF 		bl	memset
  72:.\Generated_Source\PSoC5/cyfitter_cfg.c **** }
  45              		.loc 1 72 0
  46 0014 0837     		adds	r7, r7, #8
  47              		.cfi_def_cfa_offset 8
  48 0016 BD46     		mov	sp, r7
  49              		.cfi_def_cfa_register 13
  50              		@ sp needed
  51 0018 80BD     		pop	{r7, pc}
  52              		.cfi_endproc
  53              	.LFE0:
  54              		.size	CYMEMZERO, .-CYMEMZERO
  55 001a 00BF     		.section	.text.CYCONFIGCPY,"ax",%progbits
  56              		.align	2
  57              		.thumb
  58              		.thumb_func
  59              		.type	CYCONFIGCPY, %function
  60              	CYCONFIGCPY:
  61              	.LFB1:
  73:.\Generated_Source\PSoC5/cyfitter_cfg.c **** CY_CFG_UNUSED
  74:.\Generated_Source\PSoC5/cyfitter_cfg.c **** static void CYCONFIGCPY(void *dest, const void *src, size_t n);
  75:.\Generated_Source\PSoC5/cyfitter_cfg.c **** CY_CFG_UNUSED
  76:.\Generated_Source\PSoC5/cyfitter_cfg.c **** static void CYCONFIGCPY(void *dest, const void *src, size_t n)
  77:.\Generated_Source\PSoC5/cyfitter_cfg.c **** {
  62              		.loc 1 77 0
  63              		.cfi_startproc
  64              		@ args = 0, pretend = 0, frame = 16
  65              		@ frame_needed = 1, uses_anonymous_args = 0
  66 0000 80B5     		push	{r7, lr}
  67              		.cfi_def_cfa_offset 8
  68              		.cfi_offset 7, -8
  69              		.cfi_offset 14, -4
  70 0002 84B0     		sub	sp, sp, #16
  71              		.cfi_def_cfa_offset 24
  72 0004 00AF     		add	r7, sp, #0
  73              		.cfi_def_cfa_register 7
  74 0006 F860     		str	r0, [r7, #12]
  75 0008 B960     		str	r1, [r7, #8]
  76 000a 7A60     		str	r2, [r7, #4]
  78:.\Generated_Source\PSoC5/cyfitter_cfg.c **** 	(void)memcpy(dest, src, n);
  77              		.loc 1 78 0
  78 000c F868     		ldr	r0, [r7, #12]
  79 000e B968     		ldr	r1, [r7, #8]
  80 0010 7A68     		ldr	r2, [r7, #4]
  81 0012 FFF7FEFF 		bl	memcpy
  79:.\Generated_Source\PSoC5/cyfitter_cfg.c **** }
  82              		.loc 1 79 0
  83 0016 1037     		adds	r7, r7, #16
  84              		.cfi_def_cfa_offset 8
  85 0018 BD46     		mov	sp, r7
  86              		.cfi_def_cfa_register 13
  87              		@ sp needed
  88 001a 80BD     		pop	{r7, pc}
  89              		.cfi_endproc
  90              	.LFE1:
  91              		.size	CYCONFIGCPY, .-CYCONFIGCPY
  92              		.section	.text.CYCONFIGCPYCODE,"ax",%progbits
ARM GAS  C:\Users\Robert\AppData\Local\Temp\cclbLtji.s 			page 4


  93              		.align	2
  94              		.thumb
  95              		.thumb_func
  96              		.type	CYCONFIGCPYCODE, %function
  97              	CYCONFIGCPYCODE:
  98              	.LFB2:
  80:.\Generated_Source\PSoC5/cyfitter_cfg.c **** CY_CFG_UNUSED
  81:.\Generated_Source\PSoC5/cyfitter_cfg.c **** static void CYCONFIGCPYCODE(void *dest, const void *src, size_t n);
  82:.\Generated_Source\PSoC5/cyfitter_cfg.c **** CY_CFG_UNUSED
  83:.\Generated_Source\PSoC5/cyfitter_cfg.c **** static void CYCONFIGCPYCODE(void *dest, const void *src, size_t n)
  84:.\Generated_Source\PSoC5/cyfitter_cfg.c **** {
  99              		.loc 1 84 0
 100              		.cfi_startproc
 101              		@ args = 0, pretend = 0, frame = 16
 102              		@ frame_needed = 1, uses_anonymous_args = 0
 103 0000 80B5     		push	{r7, lr}
 104              		.cfi_def_cfa_offset 8
 105              		.cfi_offset 7, -8
 106              		.cfi_offset 14, -4
 107 0002 84B0     		sub	sp, sp, #16
 108              		.cfi_def_cfa_offset 24
 109 0004 00AF     		add	r7, sp, #0
 110              		.cfi_def_cfa_register 7
 111 0006 F860     		str	r0, [r7, #12]
 112 0008 B960     		str	r1, [r7, #8]
 113 000a 7A60     		str	r2, [r7, #4]
  85:.\Generated_Source\PSoC5/cyfitter_cfg.c **** 	(void)memcpy(dest, src, n);
 114              		.loc 1 85 0
 115 000c F868     		ldr	r0, [r7, #12]
 116 000e B968     		ldr	r1, [r7, #8]
 117 0010 7A68     		ldr	r2, [r7, #4]
 118 0012 FFF7FEFF 		bl	memcpy
  86:.\Generated_Source\PSoC5/cyfitter_cfg.c **** }
 119              		.loc 1 86 0
 120 0016 1037     		adds	r7, r7, #16
 121              		.cfi_def_cfa_offset 8
 122 0018 BD46     		mov	sp, r7
 123              		.cfi_def_cfa_register 13
 124              		@ sp needed
 125 001a 80BD     		pop	{r7, pc}
 126              		.cfi_endproc
 127              	.LFE2:
 128              		.size	CYCONFIGCPYCODE, .-CYCONFIGCPYCODE
 129              		.section	.text.CyClockStartupError,"ax",%progbits
 130              		.align	2
 131              		.thumb
 132              		.thumb_func
 133              		.type	CyClockStartupError, %function
 134              	CyClockStartupError:
 135              	.LFB3:
  87:.\Generated_Source\PSoC5/cyfitter_cfg.c **** 
  88:.\Generated_Source\PSoC5/cyfitter_cfg.c **** 
  89:.\Generated_Source\PSoC5/cyfitter_cfg.c **** 
  90:.\Generated_Source\PSoC5/cyfitter_cfg.c **** /* Clock startup error codes                                                   */
  91:.\Generated_Source\PSoC5/cyfitter_cfg.c **** #define CYCLOCKSTART_NO_ERROR    0u
  92:.\Generated_Source\PSoC5/cyfitter_cfg.c **** #define CYCLOCKSTART_XTAL_ERROR  1u
  93:.\Generated_Source\PSoC5/cyfitter_cfg.c **** #define CYCLOCKSTART_32KHZ_ERROR 2u
ARM GAS  C:\Users\Robert\AppData\Local\Temp\cclbLtji.s 			page 5


  94:.\Generated_Source\PSoC5/cyfitter_cfg.c **** #define CYCLOCKSTART_PLL_ERROR   3u
  95:.\Generated_Source\PSoC5/cyfitter_cfg.c **** 
  96:.\Generated_Source\PSoC5/cyfitter_cfg.c **** #ifdef CY_NEED_CYCLOCKSTARTUPERROR
  97:.\Generated_Source\PSoC5/cyfitter_cfg.c **** /*******************************************************************************
  98:.\Generated_Source\PSoC5/cyfitter_cfg.c **** * Function Name: CyClockStartupError
  99:.\Generated_Source\PSoC5/cyfitter_cfg.c **** ********************************************************************************
 100:.\Generated_Source\PSoC5/cyfitter_cfg.c **** * Summary:
 101:.\Generated_Source\PSoC5/cyfitter_cfg.c **** *  If an error is encountered during clock configuration (crystal startup error,
 102:.\Generated_Source\PSoC5/cyfitter_cfg.c **** *  PLL lock error, etc.), the system will end up here.  Unless reimplemented by
 103:.\Generated_Source\PSoC5/cyfitter_cfg.c **** *  the customer, this function will stop in an infinite loop.
 104:.\Generated_Source\PSoC5/cyfitter_cfg.c **** *
 105:.\Generated_Source\PSoC5/cyfitter_cfg.c **** * Parameters:
 106:.\Generated_Source\PSoC5/cyfitter_cfg.c **** *   void
 107:.\Generated_Source\PSoC5/cyfitter_cfg.c **** *
 108:.\Generated_Source\PSoC5/cyfitter_cfg.c **** * Return:
 109:.\Generated_Source\PSoC5/cyfitter_cfg.c **** *   void
 110:.\Generated_Source\PSoC5/cyfitter_cfg.c **** *
 111:.\Generated_Source\PSoC5/cyfitter_cfg.c **** *******************************************************************************/
 112:.\Generated_Source\PSoC5/cyfitter_cfg.c **** CY_CFG_UNUSED
 113:.\Generated_Source\PSoC5/cyfitter_cfg.c **** static void CyClockStartupError(uint8 errorCode);
 114:.\Generated_Source\PSoC5/cyfitter_cfg.c **** CY_CFG_UNUSED
 115:.\Generated_Source\PSoC5/cyfitter_cfg.c **** static void CyClockStartupError(uint8 errorCode)
 116:.\Generated_Source\PSoC5/cyfitter_cfg.c **** {
 136              		.loc 1 116 0
 137              		.cfi_startproc
 138              		@ args = 0, pretend = 0, frame = 8
 139              		@ frame_needed = 1, uses_anonymous_args = 0
 140              		@ link register save eliminated.
 141 0000 80B4     		push	{r7}
 142              		.cfi_def_cfa_offset 4
 143              		.cfi_offset 7, -4
 144 0002 83B0     		sub	sp, sp, #12
 145              		.cfi_def_cfa_offset 16
 146 0004 00AF     		add	r7, sp, #0
 147              		.cfi_def_cfa_register 7
 148 0006 0346     		mov	r3, r0
 149 0008 FB71     		strb	r3, [r7, #7]
 150              	.L5:
 117:.\Generated_Source\PSoC5/cyfitter_cfg.c ****     /* To remove the compiler warning if errorCode not used.                */
 118:.\Generated_Source\PSoC5/cyfitter_cfg.c ****     errorCode = errorCode;
 119:.\Generated_Source\PSoC5/cyfitter_cfg.c **** 
 120:.\Generated_Source\PSoC5/cyfitter_cfg.c ****     /* `#START CyClockStartupError` */
 121:.\Generated_Source\PSoC5/cyfitter_cfg.c **** 
 122:.\Generated_Source\PSoC5/cyfitter_cfg.c ****     /* If we have a clock startup error (bad MHz crystal, PLL lock, etc.),  */
 123:.\Generated_Source\PSoC5/cyfitter_cfg.c ****     /* we will end up here to allow the customer to implement something to  */
 124:.\Generated_Source\PSoC5/cyfitter_cfg.c ****     /* deal with the clock condition.                                       */
 125:.\Generated_Source\PSoC5/cyfitter_cfg.c **** 
 126:.\Generated_Source\PSoC5/cyfitter_cfg.c ****     /* `#END` */
 127:.\Generated_Source\PSoC5/cyfitter_cfg.c **** 
 128:.\Generated_Source\PSoC5/cyfitter_cfg.c ****     /* If nothing else, stop here since the clocks have not started         */
 129:.\Generated_Source\PSoC5/cyfitter_cfg.c ****     /* correctly.                                                           */
 130:.\Generated_Source\PSoC5/cyfitter_cfg.c ****     while(1) {}
 151              		.loc 1 130 0 discriminator 1
 152 000a FEE7     		b	.L5
 153              		.cfi_endproc
 154              	.LFE3:
 155              		.size	CyClockStartupError, .-CyClockStartupError
ARM GAS  C:\Users\Robert\AppData\Local\Temp\cclbLtji.s 			page 6


 156              		.section	.text.cfg_write_bytes32,"ax",%progbits
 157              		.align	2
 158              		.thumb
 159              		.thumb_func
 160              		.type	cfg_write_bytes32, %function
 161              	cfg_write_bytes32:
 162              	.LFB4:
 131:.\Generated_Source\PSoC5/cyfitter_cfg.c **** }
 132:.\Generated_Source\PSoC5/cyfitter_cfg.c **** #endif
 133:.\Generated_Source\PSoC5/cyfitter_cfg.c **** 
 134:.\Generated_Source\PSoC5/cyfitter_cfg.c **** #define CY_CFG_BASE_ADDR_COUNT 45u
 135:.\Generated_Source\PSoC5/cyfitter_cfg.c **** CYPACKED typedef struct
 136:.\Generated_Source\PSoC5/cyfitter_cfg.c **** {
 137:.\Generated_Source\PSoC5/cyfitter_cfg.c **** 	uint8 offset;
 138:.\Generated_Source\PSoC5/cyfitter_cfg.c **** 	uint8 value;
 139:.\Generated_Source\PSoC5/cyfitter_cfg.c **** } CYPACKED_ATTR cy_cfg_addrvalue_t;
 140:.\Generated_Source\PSoC5/cyfitter_cfg.c **** 
 141:.\Generated_Source\PSoC5/cyfitter_cfg.c **** #define cy_cfg_addr_table ((const uint32 CYFAR *)(0x48000000u + CYAPP_ECC_OFFSET))
 142:.\Generated_Source\PSoC5/cyfitter_cfg.c **** #define cy_cfg_data_table ((const cy_cfg_addrvalue_t CYFAR *)(0x480000B4u + CYAPP_ECC_OFFSET))
 143:.\Generated_Source\PSoC5/cyfitter_cfg.c **** 
 144:.\Generated_Source\PSoC5/cyfitter_cfg.c **** /* IOPINS0_0 Address: CYREG_PRT0_DM0 Size (bytes): 8 */
 145:.\Generated_Source\PSoC5/cyfitter_cfg.c **** #define BS_IOPINS0_0_VAL ((const uint8 CYFAR *)(0x48001060u + CYAPP_ECC_OFFSET))
 146:.\Generated_Source\PSoC5/cyfitter_cfg.c **** 
 147:.\Generated_Source\PSoC5/cyfitter_cfg.c **** /* IOPINS0_7 Address: CYREG_PRT12_DM0 Size (bytes): 8 */
 148:.\Generated_Source\PSoC5/cyfitter_cfg.c **** #define BS_IOPINS0_7_VAL ((const uint8 CYFAR *)(0x48001068u + CYAPP_ECC_OFFSET))
 149:.\Generated_Source\PSoC5/cyfitter_cfg.c **** 
 150:.\Generated_Source\PSoC5/cyfitter_cfg.c **** /* IOPINS0_8 Address: CYREG_PRT15_DR Size (bytes): 10 */
 151:.\Generated_Source\PSoC5/cyfitter_cfg.c **** #define BS_IOPINS0_8_VAL ((const uint8 CYFAR *)(0x48001070u + CYAPP_ECC_OFFSET))
 152:.\Generated_Source\PSoC5/cyfitter_cfg.c **** 
 153:.\Generated_Source\PSoC5/cyfitter_cfg.c **** /* IOPINS0_2 Address: CYREG_PRT2_DM0 Size (bytes): 8 */
 154:.\Generated_Source\PSoC5/cyfitter_cfg.c **** #define BS_IOPINS0_2_VAL ((const uint8 CYFAR *)(0x4800107Cu + CYAPP_ECC_OFFSET))
 155:.\Generated_Source\PSoC5/cyfitter_cfg.c **** 
 156:.\Generated_Source\PSoC5/cyfitter_cfg.c **** /* IOPINS0_3 Address: CYREG_PRT3_DM0 Size (bytes): 8 */
 157:.\Generated_Source\PSoC5/cyfitter_cfg.c **** #define BS_IOPINS0_3_VAL ((const uint8 CYFAR *)(0x48001084u + CYAPP_ECC_OFFSET))
 158:.\Generated_Source\PSoC5/cyfitter_cfg.c **** 
 159:.\Generated_Source\PSoC5/cyfitter_cfg.c **** /* IOPINS0_4 Address: CYREG_PRT4_DM0 Size (bytes): 8 */
 160:.\Generated_Source\PSoC5/cyfitter_cfg.c **** #define BS_IOPINS0_4_VAL ((const uint8 CYFAR *)(0x4800108Cu + CYAPP_ECC_OFFSET))
 161:.\Generated_Source\PSoC5/cyfitter_cfg.c **** 
 162:.\Generated_Source\PSoC5/cyfitter_cfg.c **** /* IOPINS0_5 Address: CYREG_PRT5_DM0 Size (bytes): 8 */
 163:.\Generated_Source\PSoC5/cyfitter_cfg.c **** #define BS_IOPINS0_5_VAL ((const uint8 CYFAR *)(0x48001094u + CYAPP_ECC_OFFSET))
 164:.\Generated_Source\PSoC5/cyfitter_cfg.c **** 
 165:.\Generated_Source\PSoC5/cyfitter_cfg.c **** /* IOPINS0_6 Address: CYREG_PRT6_DM0 Size (bytes): 8 */
 166:.\Generated_Source\PSoC5/cyfitter_cfg.c **** #define BS_IOPINS0_6_VAL ((const uint8 CYFAR *)(0x4800109Cu + CYAPP_ECC_OFFSET))
 167:.\Generated_Source\PSoC5/cyfitter_cfg.c **** 
 168:.\Generated_Source\PSoC5/cyfitter_cfg.c **** /* CYDEV_CLKDIST_ACFG0_CFG0 Address: CYREG_CLKDIST_ACFG0_CFG0 Size (bytes): 4 */
 169:.\Generated_Source\PSoC5/cyfitter_cfg.c **** #define BS_CYDEV_CLKDIST_ACFG0_CFG0_VAL ((const uint8 CYFAR *)(0x480010A4u + CYAPP_ECC_OFFSET))
 170:.\Generated_Source\PSoC5/cyfitter_cfg.c **** 
 171:.\Generated_Source\PSoC5/cyfitter_cfg.c **** /* PHUB_CFGMEM1 Address: CYREG_PHUB_CFGMEM1_CFG0 Size (bytes): 4 */
 172:.\Generated_Source\PSoC5/cyfitter_cfg.c **** #define BS_PHUB_CFGMEM1_VAL ((const uint8 CYFAR *)(0x480010A8u + CYAPP_ECC_OFFSET))
 173:.\Generated_Source\PSoC5/cyfitter_cfg.c **** 
 174:.\Generated_Source\PSoC5/cyfitter_cfg.c **** 
 175:.\Generated_Source\PSoC5/cyfitter_cfg.c **** /*******************************************************************************
 176:.\Generated_Source\PSoC5/cyfitter_cfg.c **** * Function Name: cfg_write_bytes32
 177:.\Generated_Source\PSoC5/cyfitter_cfg.c **** ********************************************************************************
 178:.\Generated_Source\PSoC5/cyfitter_cfg.c **** * Summary:
 179:.\Generated_Source\PSoC5/cyfitter_cfg.c **** *  This function is used for setting up the chip configuration areas that
 180:.\Generated_Source\PSoC5/cyfitter_cfg.c **** *  contain relatively sparse data.
ARM GAS  C:\Users\Robert\AppData\Local\Temp\cclbLtji.s 			page 7


 181:.\Generated_Source\PSoC5/cyfitter_cfg.c **** *
 182:.\Generated_Source\PSoC5/cyfitter_cfg.c **** * Parameters:
 183:.\Generated_Source\PSoC5/cyfitter_cfg.c **** *   void
 184:.\Generated_Source\PSoC5/cyfitter_cfg.c **** *
 185:.\Generated_Source\PSoC5/cyfitter_cfg.c **** * Return:
 186:.\Generated_Source\PSoC5/cyfitter_cfg.c **** *   void
 187:.\Generated_Source\PSoC5/cyfitter_cfg.c **** *
 188:.\Generated_Source\PSoC5/cyfitter_cfg.c **** *******************************************************************************/
 189:.\Generated_Source\PSoC5/cyfitter_cfg.c **** static void cfg_write_bytes32(const uint32 addr_table[], const cy_cfg_addrvalue_t data_table[]);
 190:.\Generated_Source\PSoC5/cyfitter_cfg.c **** static void cfg_write_bytes32(const uint32 addr_table[], const cy_cfg_addrvalue_t data_table[])
 191:.\Generated_Source\PSoC5/cyfitter_cfg.c **** {
 163              		.loc 1 191 0
 164              		.cfi_startproc
 165              		@ args = 0, pretend = 0, frame = 24
 166              		@ frame_needed = 1, uses_anonymous_args = 0
 167              		@ link register save eliminated.
 168 0000 80B4     		push	{r7}
 169              		.cfi_def_cfa_offset 4
 170              		.cfi_offset 7, -4
 171 0002 87B0     		sub	sp, sp, #28
 172              		.cfi_def_cfa_offset 32
 173 0004 00AF     		add	r7, sp, #0
 174              		.cfi_def_cfa_register 7
 175 0006 7860     		str	r0, [r7, #4]
 176 0008 3960     		str	r1, [r7]
 192:.\Generated_Source\PSoC5/cyfitter_cfg.c **** 	/* For 32-bit little-endian architectures */
 193:.\Generated_Source\PSoC5/cyfitter_cfg.c **** 	uint32 i, j = 0u;
 177              		.loc 1 193 0
 178 000a 0023     		movs	r3, #0
 179 000c 3B61     		str	r3, [r7, #16]
 194:.\Generated_Source\PSoC5/cyfitter_cfg.c **** 	for (i = 0u; i < CY_CFG_BASE_ADDR_COUNT; i++)
 180              		.loc 1 194 0
 181 000e 0023     		movs	r3, #0
 182 0010 7B61     		str	r3, [r7, #20]
 183 0012 27E0     		b	.L7
 184              	.L10:
 185              	.LBB2:
 195:.\Generated_Source\PSoC5/cyfitter_cfg.c **** 	{
 196:.\Generated_Source\PSoC5/cyfitter_cfg.c **** 		uint32 baseAddr = addr_table[i];
 186              		.loc 1 196 0
 187 0014 7B69     		ldr	r3, [r7, #20]
 188 0016 9B00     		lsls	r3, r3, #2
 189 0018 7A68     		ldr	r2, [r7, #4]
 190 001a 1344     		add	r3, r3, r2
 191 001c 1B68     		ldr	r3, [r3]
 192 001e BB60     		str	r3, [r7, #8]
 197:.\Generated_Source\PSoC5/cyfitter_cfg.c **** 		uint8 count = (uint8)baseAddr;
 193              		.loc 1 197 0
 194 0020 BB68     		ldr	r3, [r7, #8]
 195 0022 FB73     		strb	r3, [r7, #15]
 198:.\Generated_Source\PSoC5/cyfitter_cfg.c **** 		baseAddr &= 0xFFFFFF00u;
 196              		.loc 1 198 0
 197 0024 BB68     		ldr	r3, [r7, #8]
 198 0026 23F0FF03 		bic	r3, r3, #255
 199 002a BB60     		str	r3, [r7, #8]
 199:.\Generated_Source\PSoC5/cyfitter_cfg.c **** 		while (count != 0u)
 200              		.loc 1 199 0
ARM GAS  C:\Users\Robert\AppData\Local\Temp\cclbLtji.s 			page 8


 201 002c 14E0     		b	.L8
 202              	.L9:
 200:.\Generated_Source\PSoC5/cyfitter_cfg.c **** 		{
 201:.\Generated_Source\PSoC5/cyfitter_cfg.c **** 			CY_SET_XTND_REG8((void CYFAR *)(baseAddr + data_table[j].offset), data_table[j].value);
 203              		.loc 1 201 0
 204 002e 3B69     		ldr	r3, [r7, #16]
 205 0030 5B00     		lsls	r3, r3, #1
 206 0032 3A68     		ldr	r2, [r7]
 207 0034 1344     		add	r3, r3, r2
 208 0036 1B78     		ldrb	r3, [r3]	@ zero_extendqisi2
 209 0038 1A46     		mov	r2, r3
 210 003a BB68     		ldr	r3, [r7, #8]
 211 003c 1344     		add	r3, r3, r2
 212 003e 1946     		mov	r1, r3
 213 0040 3B69     		ldr	r3, [r7, #16]
 214 0042 5B00     		lsls	r3, r3, #1
 215 0044 3A68     		ldr	r2, [r7]
 216 0046 1344     		add	r3, r3, r2
 217 0048 5B78     		ldrb	r3, [r3, #1]	@ zero_extendqisi2
 218 004a 0B70     		strb	r3, [r1]
 202:.\Generated_Source\PSoC5/cyfitter_cfg.c **** 			j++;
 219              		.loc 1 202 0
 220 004c 3B69     		ldr	r3, [r7, #16]
 221 004e 0133     		adds	r3, r3, #1
 222 0050 3B61     		str	r3, [r7, #16]
 203:.\Generated_Source\PSoC5/cyfitter_cfg.c **** 			count--;
 223              		.loc 1 203 0
 224 0052 FB7B     		ldrb	r3, [r7, #15]	@ zero_extendqisi2
 225 0054 013B     		subs	r3, r3, #1
 226 0056 FB73     		strb	r3, [r7, #15]
 227              	.L8:
 199:.\Generated_Source\PSoC5/cyfitter_cfg.c **** 		{
 228              		.loc 1 199 0
 229 0058 FB7B     		ldrb	r3, [r7, #15]	@ zero_extendqisi2
 230 005a 002B     		cmp	r3, #0
 231 005c E7D1     		bne	.L9
 232              	.LBE2:
 194:.\Generated_Source\PSoC5/cyfitter_cfg.c **** 	{
 233              		.loc 1 194 0 discriminator 2
 234 005e 7B69     		ldr	r3, [r7, #20]
 235 0060 0133     		adds	r3, r3, #1
 236 0062 7B61     		str	r3, [r7, #20]
 237              	.L7:
 194:.\Generated_Source\PSoC5/cyfitter_cfg.c **** 	{
 238              		.loc 1 194 0 is_stmt 0 discriminator 1
 239 0064 7B69     		ldr	r3, [r7, #20]
 240 0066 2C2B     		cmp	r3, #44
 241 0068 D4D9     		bls	.L10
 204:.\Generated_Source\PSoC5/cyfitter_cfg.c **** 		}
 205:.\Generated_Source\PSoC5/cyfitter_cfg.c **** 	}
 206:.\Generated_Source\PSoC5/cyfitter_cfg.c **** }
 242              		.loc 1 206 0 is_stmt 1
 243 006a 1C37     		adds	r7, r7, #28
 244              		.cfi_def_cfa_offset 4
 245 006c BD46     		mov	sp, r7
 246              		.cfi_def_cfa_register 13
 247              		@ sp needed
ARM GAS  C:\Users\Robert\AppData\Local\Temp\cclbLtji.s 			page 9


 248 006e 5DF8047B 		ldr	r7, [sp], #4
 249              		.cfi_restore 7
 250              		.cfi_def_cfa_offset 0
 251 0072 7047     		bx	lr
 252              		.cfi_endproc
 253              	.LFE4:
 254              		.size	cfg_write_bytes32, .-cfg_write_bytes32
 255              		.section	.text.ClockSetup,"ax",%progbits
 256              		.align	2
 257              		.thumb
 258              		.thumb_func
 259              		.type	ClockSetup, %function
 260              	ClockSetup:
 261              	.LFB5:
 207:.\Generated_Source\PSoC5/cyfitter_cfg.c **** 
 208:.\Generated_Source\PSoC5/cyfitter_cfg.c **** /*******************************************************************************
 209:.\Generated_Source\PSoC5/cyfitter_cfg.c **** * Function Name: ClockSetup
 210:.\Generated_Source\PSoC5/cyfitter_cfg.c **** ********************************************************************************
 211:.\Generated_Source\PSoC5/cyfitter_cfg.c **** *
 212:.\Generated_Source\PSoC5/cyfitter_cfg.c **** * Summary:
 213:.\Generated_Source\PSoC5/cyfitter_cfg.c **** *  Performs the initialization of all of the clocks in the device based on the
 214:.\Generated_Source\PSoC5/cyfitter_cfg.c **** *  settings in the Clock tab of the DWR.  This includes enabling the requested
 215:.\Generated_Source\PSoC5/cyfitter_cfg.c **** *  clocks and setting the necessary dividers to produce the desired frequency. 
 216:.\Generated_Source\PSoC5/cyfitter_cfg.c **** *
 217:.\Generated_Source\PSoC5/cyfitter_cfg.c **** * Parameters:
 218:.\Generated_Source\PSoC5/cyfitter_cfg.c **** *  void
 219:.\Generated_Source\PSoC5/cyfitter_cfg.c **** *
 220:.\Generated_Source\PSoC5/cyfitter_cfg.c **** * Return:
 221:.\Generated_Source\PSoC5/cyfitter_cfg.c **** *  void
 222:.\Generated_Source\PSoC5/cyfitter_cfg.c **** *
 223:.\Generated_Source\PSoC5/cyfitter_cfg.c **** *******************************************************************************/
 224:.\Generated_Source\PSoC5/cyfitter_cfg.c **** static void ClockSetup(void);
 225:.\Generated_Source\PSoC5/cyfitter_cfg.c **** static void ClockSetup(void)
 226:.\Generated_Source\PSoC5/cyfitter_cfg.c **** {
 262              		.loc 1 226 0
 263              		.cfi_startproc
 264              		@ args = 0, pretend = 0, frame = 8
 265              		@ frame_needed = 1, uses_anonymous_args = 0
 266 0000 80B5     		push	{r7, lr}
 267              		.cfi_def_cfa_offset 8
 268              		.cfi_offset 7, -8
 269              		.cfi_offset 14, -4
 270 0002 82B0     		sub	sp, sp, #8
 271              		.cfi_def_cfa_offset 16
 272 0004 00AF     		add	r7, sp, #0
 273              		.cfi_def_cfa_register 7
 227:.\Generated_Source\PSoC5/cyfitter_cfg.c **** 	uint32 timeout;
 228:.\Generated_Source\PSoC5/cyfitter_cfg.c **** 	uint8 pllLock;
 229:.\Generated_Source\PSoC5/cyfitter_cfg.c **** 
 230:.\Generated_Source\PSoC5/cyfitter_cfg.c **** 
 231:.\Generated_Source\PSoC5/cyfitter_cfg.c **** 	/* Configure Digital Clocks based on settings from Clock DWR */
 232:.\Generated_Source\PSoC5/cyfitter_cfg.c **** 	CY_SET_XTND_REG16((void CYFAR *)(CYREG_CLKDIST_DCFG0_CFG0), 0x0007u);
 274              		.loc 1 232 0
 275 0006 514B     		ldr	r3, .L16
 276 0008 0722     		movs	r2, #7
 277 000a 1A80     		strh	r2, [r3]	@ movhi
 233:.\Generated_Source\PSoC5/cyfitter_cfg.c **** 	CY_SET_XTND_REG8((void CYFAR *)(CYREG_CLKDIST_DCFG0_CFG0 + 0x2u), 0x18u);
ARM GAS  C:\Users\Robert\AppData\Local\Temp\cclbLtji.s 			page 10


 278              		.loc 1 233 0
 279 000c 504B     		ldr	r3, .L16+4
 280 000e 1822     		movs	r2, #24
 281 0010 1A70     		strb	r2, [r3]
 234:.\Generated_Source\PSoC5/cyfitter_cfg.c **** 	CY_SET_XTND_REG16((void CYFAR *)(CYREG_CLKDIST_DCFG1_CFG0), 0x0007u);
 282              		.loc 1 234 0
 283 0012 504B     		ldr	r3, .L16+8
 284 0014 0722     		movs	r2, #7
 285 0016 1A80     		strh	r2, [r3]	@ movhi
 235:.\Generated_Source\PSoC5/cyfitter_cfg.c **** 	CY_SET_XTND_REG8((void CYFAR *)(CYREG_CLKDIST_DCFG1_CFG0 + 0x2u), 0x18u);
 286              		.loc 1 235 0
 287 0018 4F4B     		ldr	r3, .L16+12
 288 001a 1822     		movs	r2, #24
 289 001c 1A70     		strb	r2, [r3]
 236:.\Generated_Source\PSoC5/cyfitter_cfg.c **** 	CY_SET_XTND_REG16((void CYFAR *)(CYREG_CLKDIST_DCFG2_CFG0), 0x0007u);
 290              		.loc 1 236 0
 291 001e 4F4B     		ldr	r3, .L16+16
 292 0020 0722     		movs	r2, #7
 293 0022 1A80     		strh	r2, [r3]	@ movhi
 237:.\Generated_Source\PSoC5/cyfitter_cfg.c **** 	CY_SET_XTND_REG8((void CYFAR *)(CYREG_CLKDIST_DCFG2_CFG0 + 0x2u), 0x18u);
 294              		.loc 1 237 0
 295 0024 4E4B     		ldr	r3, .L16+20
 296 0026 1822     		movs	r2, #24
 297 0028 1A70     		strb	r2, [r3]
 238:.\Generated_Source\PSoC5/cyfitter_cfg.c **** 	CY_SET_XTND_REG16((void CYFAR *)(CYREG_CLKDIST_DCFG3_CFG0), 0x0007u);
 298              		.loc 1 238 0
 299 002a 4E4B     		ldr	r3, .L16+24
 300 002c 0722     		movs	r2, #7
 301 002e 1A80     		strh	r2, [r3]	@ movhi
 239:.\Generated_Source\PSoC5/cyfitter_cfg.c **** 	CY_SET_XTND_REG8((void CYFAR *)(CYREG_CLKDIST_DCFG3_CFG0 + 0x2u), 0x18u);
 302              		.loc 1 239 0
 303 0030 4D4B     		ldr	r3, .L16+28
 304 0032 1822     		movs	r2, #24
 305 0034 1A70     		strb	r2, [r3]
 240:.\Generated_Source\PSoC5/cyfitter_cfg.c **** 	CY_SET_XTND_REG16((void CYFAR *)(CYREG_CLKDIST_DCFG4_CFG0), 0x0000u);
 306              		.loc 1 240 0
 307 0036 4D4B     		ldr	r3, .L16+32
 308 0038 0022     		movs	r2, #0
 309 003a 1A80     		strh	r2, [r3]	@ movhi
 241:.\Generated_Source\PSoC5/cyfitter_cfg.c **** 	CY_SET_XTND_REG8((void CYFAR *)(CYREG_CLKDIST_DCFG4_CFG0 + 0x2u), 0x58u);
 310              		.loc 1 241 0
 311 003c 4C4B     		ldr	r3, .L16+36
 312 003e 5822     		movs	r2, #88
 313 0040 1A70     		strb	r2, [r3]
 242:.\Generated_Source\PSoC5/cyfitter_cfg.c **** 	CY_SET_XTND_REG16((void CYFAR *)(CYREG_CLKDIST_DCFG5_CFG0), 0x0000u);
 314              		.loc 1 242 0
 315 0042 4C4B     		ldr	r3, .L16+40
 316 0044 0022     		movs	r2, #0
 317 0046 1A80     		strh	r2, [r3]	@ movhi
 243:.\Generated_Source\PSoC5/cyfitter_cfg.c **** 	CY_SET_XTND_REG8((void CYFAR *)(CYREG_CLKDIST_DCFG5_CFG0 + 0x2u), 0x58u);
 318              		.loc 1 243 0
 319 0048 4B4B     		ldr	r3, .L16+44
 320 004a 5822     		movs	r2, #88
 321 004c 1A70     		strb	r2, [r3]
 244:.\Generated_Source\PSoC5/cyfitter_cfg.c **** 	CY_SET_XTND_REG16((void CYFAR *)(CYREG_CLKDIST_DCFG6_CFG0), 0x000Cu);
 322              		.loc 1 244 0
 323 004e 4B4B     		ldr	r3, .L16+48
ARM GAS  C:\Users\Robert\AppData\Local\Temp\cclbLtji.s 			page 11


 324 0050 0C22     		movs	r2, #12
 325 0052 1A80     		strh	r2, [r3]	@ movhi
 245:.\Generated_Source\PSoC5/cyfitter_cfg.c **** 	CY_SET_XTND_REG8((void CYFAR *)(CYREG_CLKDIST_DCFG6_CFG0 + 0x2u), 0x19u);
 326              		.loc 1 245 0
 327 0054 4A4B     		ldr	r3, .L16+52
 328 0056 1922     		movs	r2, #25
 329 0058 1A70     		strb	r2, [r3]
 246:.\Generated_Source\PSoC5/cyfitter_cfg.c **** 	CY_SET_XTND_REG16((void CYFAR *)(CYREG_CLKDIST_DCFG7_CFG0), 0x0017u);
 330              		.loc 1 246 0
 331 005a 4A4B     		ldr	r3, .L16+56
 332 005c 1722     		movs	r2, #23
 333 005e 1A80     		strh	r2, [r3]	@ movhi
 247:.\Generated_Source\PSoC5/cyfitter_cfg.c **** 	CY_SET_XTND_REG8((void CYFAR *)(CYREG_CLKDIST_DCFG7_CFG0 + 0x2u), 0x19u);
 334              		.loc 1 247 0
 335 0060 494B     		ldr	r3, .L16+60
 336 0062 1922     		movs	r2, #25
 337 0064 1A70     		strb	r2, [r3]
 248:.\Generated_Source\PSoC5/cyfitter_cfg.c **** 
 249:.\Generated_Source\PSoC5/cyfitter_cfg.c **** 	/* Configure Analog Clocks based on settings from Clock DWR */
 250:.\Generated_Source\PSoC5/cyfitter_cfg.c **** 	CYCONFIGCPY((void CYFAR *)(CYREG_CLKDIST_ACFG0_CFG0), (const void CYFAR *)(BS_CYDEV_CLKDIST_ACFG0_
 338              		.loc 1 250 0
 339 0066 494A     		ldr	r2, .L16+64
 340 0068 494B     		ldr	r3, .L16+68
 341 006a 1344     		add	r3, r3, r2
 342 006c 4948     		ldr	r0, .L16+72
 343 006e 1946     		mov	r1, r3
 344 0070 0422     		movs	r2, #4
 345 0072 FFF7FEFF 		bl	CYCONFIGCPY
 251:.\Generated_Source\PSoC5/cyfitter_cfg.c **** 
 252:.\Generated_Source\PSoC5/cyfitter_cfg.c **** 	/* Configure ILO based on settings from Clock DWR */
 253:.\Generated_Source\PSoC5/cyfitter_cfg.c **** 	CY_SET_XTND_REG8((void CYFAR *)(CYREG_SLOWCLK_ILO_CR0), 0x06u);
 346              		.loc 1 253 0
 347 0076 484B     		ldr	r3, .L16+76
 348 0078 0622     		movs	r2, #6
 349 007a 1A70     		strb	r2, [r3]
 254:.\Generated_Source\PSoC5/cyfitter_cfg.c **** 
 255:.\Generated_Source\PSoC5/cyfitter_cfg.c **** 	/* Configure IMO based on settings from Clock DWR */
 256:.\Generated_Source\PSoC5/cyfitter_cfg.c **** 	CY_SET_XTND_REG8((void CYFAR *)(CYREG_FASTCLK_IMO_CR), 0x52u);
 350              		.loc 1 256 0
 351 007c 474B     		ldr	r3, .L16+80
 352 007e 5222     		movs	r2, #82
 353 0080 1A70     		strb	r2, [r3]
 257:.\Generated_Source\PSoC5/cyfitter_cfg.c **** 	CY_SET_XTND_REG8((void CYFAR *)(CYREG_IMO_TR1), (CY_GET_XTND_REG8((void CYFAR *)CYREG_FLSHID_CUST_
 354              		.loc 1 257 0
 355 0082 474B     		ldr	r3, .L16+84
 356 0084 474A     		ldr	r2, .L16+88
 357 0086 1278     		ldrb	r2, [r2]
 358 0088 D2B2     		uxtb	r2, r2
 359 008a 1A70     		strb	r2, [r3]
 258:.\Generated_Source\PSoC5/cyfitter_cfg.c **** 
 259:.\Generated_Source\PSoC5/cyfitter_cfg.c **** 	/* Configure PLL based on settings from Clock DWR */
 260:.\Generated_Source\PSoC5/cyfitter_cfg.c **** 	CY_SET_XTND_REG16((void CYFAR *)(CYREG_FASTCLK_PLL_P), 0x0708u);
 360              		.loc 1 260 0
 361 008c 464B     		ldr	r3, .L16+92
 362 008e 4FF4E162 		mov	r2, #1800
 363 0092 1A80     		strh	r2, [r3]	@ movhi
 261:.\Generated_Source\PSoC5/cyfitter_cfg.c **** 	CY_SET_XTND_REG16((void CYFAR *)(CYREG_FASTCLK_PLL_CFG0), 0x1251u);
ARM GAS  C:\Users\Robert\AppData\Local\Temp\cclbLtji.s 			page 12


 364              		.loc 1 261 0
 365 0094 454B     		ldr	r3, .L16+96
 366 0096 41F25122 		movw	r2, #4689
 367 009a 1A80     		strh	r2, [r3]	@ movhi
 262:.\Generated_Source\PSoC5/cyfitter_cfg.c **** 	/* Wait up to 250us for the PLL to lock */
 263:.\Generated_Source\PSoC5/cyfitter_cfg.c **** 	pllLock = 0u;
 368              		.loc 1 263 0
 369 009c 0023     		movs	r3, #0
 370 009e FB70     		strb	r3, [r7, #3]
 264:.\Generated_Source\PSoC5/cyfitter_cfg.c **** 	for (timeout = 250u / 10u; (timeout > 0u) && (pllLock != 0x03u); timeout--)
 371              		.loc 1 264 0
 372 00a0 1923     		movs	r3, #25
 373 00a2 7B60     		str	r3, [r7, #4]
 374 00a4 14E0     		b	.L12
 375              	.L14:
 265:.\Generated_Source\PSoC5/cyfitter_cfg.c **** 	{ 
 266:.\Generated_Source\PSoC5/cyfitter_cfg.c **** 		pllLock = 0x03u & ((uint8)((uint8)pllLock << 1) | ((CY_GET_XTND_REG8((void CYFAR *)CYREG_FASTCLK_
 376              		.loc 1 266 0 discriminator 4
 377 00a6 FB78     		ldrb	r3, [r7, #3]
 378 00a8 5B00     		lsls	r3, r3, #1
 379 00aa DAB2     		uxtb	r2, r3
 380 00ac 404B     		ldr	r3, .L16+100
 381 00ae 1B78     		ldrb	r3, [r3]
 382 00b0 DBB2     		uxtb	r3, r3
 383 00b2 03F00103 		and	r3, r3, #1
 384 00b6 DBB2     		uxtb	r3, r3
 385 00b8 1343     		orrs	r3, r3, r2
 386 00ba DBB2     		uxtb	r3, r3
 387 00bc 03F00303 		and	r3, r3, #3
 388 00c0 FB70     		strb	r3, [r7, #3]
 267:.\Generated_Source\PSoC5/cyfitter_cfg.c **** 		CyDelayCycles(10u * 48u); /* Delay 10us based on 48MHz clock */
 389              		.loc 1 267 0 discriminator 4
 390 00c2 4FF4F070 		mov	r0, #480
 391 00c6 FFF7FEFF 		bl	CyDelayCycles
 264:.\Generated_Source\PSoC5/cyfitter_cfg.c **** 	for (timeout = 250u / 10u; (timeout > 0u) && (pllLock != 0x03u); timeout--)
 392              		.loc 1 264 0 discriminator 4
 393 00ca 7B68     		ldr	r3, [r7, #4]
 394 00cc 013B     		subs	r3, r3, #1
 395 00ce 7B60     		str	r3, [r7, #4]
 396              	.L12:
 264:.\Generated_Source\PSoC5/cyfitter_cfg.c **** 	for (timeout = 250u / 10u; (timeout > 0u) && (pllLock != 0x03u); timeout--)
 397              		.loc 1 264 0 is_stmt 0 discriminator 1
 398 00d0 7B68     		ldr	r3, [r7, #4]
 399 00d2 002B     		cmp	r3, #0
 400 00d4 02D0     		beq	.L13
 264:.\Generated_Source\PSoC5/cyfitter_cfg.c **** 	for (timeout = 250u / 10u; (timeout > 0u) && (pllLock != 0x03u); timeout--)
 401              		.loc 1 264 0 discriminator 3
 402 00d6 FB78     		ldrb	r3, [r7, #3]	@ zero_extendqisi2
 403 00d8 032B     		cmp	r3, #3
 404 00da E4D1     		bne	.L14
 405              	.L13:
 268:.\Generated_Source\PSoC5/cyfitter_cfg.c **** 	}
 269:.\Generated_Source\PSoC5/cyfitter_cfg.c **** 	/* If we ran out of time the PLL didn't lock so go to the error function */
 270:.\Generated_Source\PSoC5/cyfitter_cfg.c **** 	if (timeout == 0u)
 406              		.loc 1 270 0 is_stmt 1
 407 00dc 7B68     		ldr	r3, [r7, #4]
 408 00de 002B     		cmp	r3, #0
ARM GAS  C:\Users\Robert\AppData\Local\Temp\cclbLtji.s 			page 13


 409 00e0 02D1     		bne	.L15
 271:.\Generated_Source\PSoC5/cyfitter_cfg.c **** 	{
 272:.\Generated_Source\PSoC5/cyfitter_cfg.c **** 		CyClockStartupError(CYCLOCKSTART_PLL_ERROR);
 410              		.loc 1 272 0
 411 00e2 0320     		movs	r0, #3
 412 00e4 FFF7FEFF 		bl	CyClockStartupError
 413              	.L15:
 273:.\Generated_Source\PSoC5/cyfitter_cfg.c **** 	}
 274:.\Generated_Source\PSoC5/cyfitter_cfg.c **** 
 275:.\Generated_Source\PSoC5/cyfitter_cfg.c **** 	/* Configure Bus/Master Clock based on settings from Clock DWR */
 276:.\Generated_Source\PSoC5/cyfitter_cfg.c **** 	CY_SET_XTND_REG16((void CYFAR *)(CYREG_CLKDIST_MSTR0), 0x0100u);
 414              		.loc 1 276 0
 415 00e8 324B     		ldr	r3, .L16+104
 416 00ea 4FF48072 		mov	r2, #256
 417 00ee 1A80     		strh	r2, [r3]	@ movhi
 277:.\Generated_Source\PSoC5/cyfitter_cfg.c **** 	CY_SET_XTND_REG8((void CYFAR *)(CYREG_CLKDIST_MSTR0), 0x07u);
 418              		.loc 1 277 0
 419 00f0 304B     		ldr	r3, .L16+104
 420 00f2 0722     		movs	r2, #7
 421 00f4 1A70     		strb	r2, [r3]
 278:.\Generated_Source\PSoC5/cyfitter_cfg.c **** 	CY_SET_XTND_REG8((void CYFAR *)(CYREG_CLKDIST_BCFG0), 0x00u);
 422              		.loc 1 278 0
 423 00f6 304B     		ldr	r3, .L16+108
 424 00f8 0022     		movs	r2, #0
 425 00fa 1A70     		strb	r2, [r3]
 279:.\Generated_Source\PSoC5/cyfitter_cfg.c **** 	CY_SET_XTND_REG8((void CYFAR *)(CYREG_CLKDIST_BCFG2), 0x48u);
 426              		.loc 1 279 0
 427 00fc 2F4B     		ldr	r3, .L16+112
 428 00fe 4822     		movs	r2, #72
 429 0100 1A70     		strb	r2, [r3]
 280:.\Generated_Source\PSoC5/cyfitter_cfg.c **** 	CY_SET_XTND_REG8((void CYFAR *)(CYREG_CLKDIST_MSTR0), 0x00u);
 430              		.loc 1 280 0
 431 0102 2C4B     		ldr	r3, .L16+104
 432 0104 0022     		movs	r2, #0
 433 0106 1A70     		strb	r2, [r3]
 281:.\Generated_Source\PSoC5/cyfitter_cfg.c **** 
 282:.\Generated_Source\PSoC5/cyfitter_cfg.c **** 	/* Configure USB Clock based on settings from Clock DWR */
 283:.\Generated_Source\PSoC5/cyfitter_cfg.c **** 	CY_SET_XTND_REG8((void CYFAR *)(CYREG_CLKDIST_UCFG), 0x00u);
 434              		.loc 1 283 0
 435 0108 2D4B     		ldr	r3, .L16+116
 436 010a 0022     		movs	r2, #0
 437 010c 1A70     		strb	r2, [r3]
 284:.\Generated_Source\PSoC5/cyfitter_cfg.c **** 	CY_SET_XTND_REG8((void CYFAR *)(CYREG_CLKDIST_LD), 0x02u);
 438              		.loc 1 284 0
 439 010e 2D4B     		ldr	r3, .L16+120
 440 0110 0222     		movs	r2, #2
 441 0112 1A70     		strb	r2, [r3]
 285:.\Generated_Source\PSoC5/cyfitter_cfg.c **** 	CY_SET_XTND_REG8((void CYFAR *)(CYREG_CLKDIST_DLY1), 0x04u);
 442              		.loc 1 285 0
 443 0114 2C4B     		ldr	r3, .L16+124
 444 0116 0422     		movs	r2, #4
 445 0118 1A70     		strb	r2, [r3]
 286:.\Generated_Source\PSoC5/cyfitter_cfg.c **** 
 287:.\Generated_Source\PSoC5/cyfitter_cfg.c **** 	CY_SET_XTND_REG8((void CYFAR *)(CYREG_PM_ACT_CFG2), ((CY_GET_XTND_REG8((void CYFAR *)CYREG_PM_ACT_
 446              		.loc 1 287 0
 447 011a 2C4B     		ldr	r3, .L16+128
 448 011c 1B78     		ldrb	r3, [r3]
ARM GAS  C:\Users\Robert\AppData\Local\Temp\cclbLtji.s 			page 14


 449 011e 2B4B     		ldr	r3, .L16+128
 450 0120 FF22     		movs	r2, #255
 451 0122 1A70     		strb	r2, [r3]
 288:.\Generated_Source\PSoC5/cyfitter_cfg.c **** 	CY_SET_XTND_REG8((void CYFAR *)(CYREG_PM_ACT_CFG1), ((CY_GET_XTND_REG8((void CYFAR *)CYREG_PM_ACT_
 452              		.loc 1 288 0
 453 0124 2A4A     		ldr	r2, .L16+132
 454 0126 2A4B     		ldr	r3, .L16+132
 455 0128 1B78     		ldrb	r3, [r3]
 456 012a DBB2     		uxtb	r3, r3
 457 012c 43F00103 		orr	r3, r3, #1
 458 0130 DBB2     		uxtb	r3, r3
 459 0132 1370     		strb	r3, [r2]
 289:.\Generated_Source\PSoC5/cyfitter_cfg.c **** 	CY_SET_XTND_REG8((void CYFAR *)(CYREG_PM_ACT_CFG0), ((CY_GET_XTND_REG8((void CYFAR *)CYREG_PM_ACT_
 460              		.loc 1 289 0
 461 0134 274A     		ldr	r2, .L16+136
 462 0136 274B     		ldr	r3, .L16+136
 463 0138 1B78     		ldrb	r3, [r3]
 464 013a DBB2     		uxtb	r3, r3
 465 013c 63F07F03 		orn	r3, r3, #127
 466 0140 DBB2     		uxtb	r3, r3
 467 0142 1370     		strb	r3, [r2]
 290:.\Generated_Source\PSoC5/cyfitter_cfg.c **** }
 468              		.loc 1 290 0
 469 0144 0837     		adds	r7, r7, #8
 470              		.cfi_def_cfa_offset 8
 471 0146 BD46     		mov	sp, r7
 472              		.cfi_def_cfa_register 13
 473              		@ sp needed
 474 0148 80BD     		pop	{r7, pc}
 475              	.L17:
 476 014a 00BF     		.align	2
 477              	.L16:
 478 014c 80400040 		.word	1073758336
 479 0150 82400040 		.word	1073758338
 480 0154 84400040 		.word	1073758340
 481 0158 86400040 		.word	1073758342
 482 015c 88400040 		.word	1073758344
 483 0160 8A400040 		.word	1073758346
 484 0164 8C400040 		.word	1073758348
 485 0168 8E400040 		.word	1073758350
 486 016c 90400040 		.word	1073758352
 487 0170 92400040 		.word	1073758354
 488 0174 94400040 		.word	1073758356
 489 0178 96400040 		.word	1073758358
 490 017c 98400040 		.word	1073758360
 491 0180 9A400040 		.word	1073758362
 492 0184 9C400040 		.word	1073758364
 493 0188 9E400040 		.word	1073758366
 494 018c 00000000 		.word	CY_ECC_OFFSET
 495 0190 A4100048 		.word	1207963812
 496 0194 00410040 		.word	1073758464
 497 0198 00430040 		.word	1073758976
 498 019c 00420040 		.word	1073758720
 499 01a0 A1460040 		.word	1073759905
 500 01a4 0F010049 		.word	1224737039
 501 01a8 22420040 		.word	1073758754
 502 01ac 20420040 		.word	1073758752
ARM GAS  C:\Users\Robert\AppData\Local\Temp\cclbLtji.s 			page 15


 503 01b0 25420040 		.word	1073758757
 504 01b4 04400040 		.word	1073758212
 505 01b8 06400040 		.word	1073758214
 506 01bc 08400040 		.word	1073758216
 507 01c0 09400040 		.word	1073758217
 508 01c4 01400040 		.word	1073758209
 509 01c8 0B400040 		.word	1073758219
 510 01cc A2430040 		.word	1073759138
 511 01d0 A1430040 		.word	1073759137
 512 01d4 A0430040 		.word	1073759136
 513              		.cfi_endproc
 514              	.LFE5:
 515              		.size	ClockSetup, .-ClockSetup
 516              		.section	.text.AnalogSetDefault,"ax",%progbits
 517              		.align	2
 518              		.thumb
 519              		.thumb_func
 520              		.type	AnalogSetDefault, %function
 521              	AnalogSetDefault:
 522              	.LFB6:
 291:.\Generated_Source\PSoC5/cyfitter_cfg.c **** 
 292:.\Generated_Source\PSoC5/cyfitter_cfg.c **** 
 293:.\Generated_Source\PSoC5/cyfitter_cfg.c **** /* Analog API Functions */
 294:.\Generated_Source\PSoC5/cyfitter_cfg.c **** 
 295:.\Generated_Source\PSoC5/cyfitter_cfg.c **** 
 296:.\Generated_Source\PSoC5/cyfitter_cfg.c **** /*******************************************************************************
 297:.\Generated_Source\PSoC5/cyfitter_cfg.c **** * Function Name: AnalogSetDefault
 298:.\Generated_Source\PSoC5/cyfitter_cfg.c **** ********************************************************************************
 299:.\Generated_Source\PSoC5/cyfitter_cfg.c **** *
 300:.\Generated_Source\PSoC5/cyfitter_cfg.c **** * Summary:
 301:.\Generated_Source\PSoC5/cyfitter_cfg.c **** *  Sets up the analog portions of the chip to default values based on chip
 302:.\Generated_Source\PSoC5/cyfitter_cfg.c **** *  configuration options from the project.
 303:.\Generated_Source\PSoC5/cyfitter_cfg.c **** *
 304:.\Generated_Source\PSoC5/cyfitter_cfg.c **** * Parameters:
 305:.\Generated_Source\PSoC5/cyfitter_cfg.c **** *  void
 306:.\Generated_Source\PSoC5/cyfitter_cfg.c **** *
 307:.\Generated_Source\PSoC5/cyfitter_cfg.c **** * Return:
 308:.\Generated_Source\PSoC5/cyfitter_cfg.c **** *  void
 309:.\Generated_Source\PSoC5/cyfitter_cfg.c **** *
 310:.\Generated_Source\PSoC5/cyfitter_cfg.c **** *******************************************************************************/
 311:.\Generated_Source\PSoC5/cyfitter_cfg.c **** static void AnalogSetDefault(void);
 312:.\Generated_Source\PSoC5/cyfitter_cfg.c **** static void AnalogSetDefault(void)
 313:.\Generated_Source\PSoC5/cyfitter_cfg.c **** {
 523              		.loc 1 313 0
 524              		.cfi_startproc
 525              		@ args = 0, pretend = 0, frame = 8
 526              		@ frame_needed = 1, uses_anonymous_args = 0
 527              		@ link register save eliminated.
 528 0000 80B4     		push	{r7}
 529              		.cfi_def_cfa_offset 4
 530              		.cfi_offset 7, -4
 531 0002 83B0     		sub	sp, sp, #12
 532              		.cfi_def_cfa_offset 16
 533 0004 00AF     		add	r7, sp, #0
 534              		.cfi_def_cfa_register 7
 314:.\Generated_Source\PSoC5/cyfitter_cfg.c **** 	uint8 bg_xover_inl_trim = CY_GET_XTND_REG8((void CYFAR *)(CYREG_FLSHID_MFG_CFG_BG_XOVER_INL_TRIM +
 535              		.loc 1 314 0
ARM GAS  C:\Users\Robert\AppData\Local\Temp\cclbLtji.s 			page 16


 536 0006 314B     		ldr	r3, .L19
 537 0008 1B78     		ldrb	r3, [r3]
 538 000a FB71     		strb	r3, [r7, #7]
 315:.\Generated_Source\PSoC5/cyfitter_cfg.c **** 	uint8 cr4 = CY_GET_XTND_REG8((void CYFAR *)(CYREG_RESET_CR4));
 539              		.loc 1 315 0
 540 000c 304B     		ldr	r3, .L19+4
 541 000e 1B78     		ldrb	r3, [r3]
 542 0010 BB71     		strb	r3, [r7, #6]
 316:.\Generated_Source\PSoC5/cyfitter_cfg.c **** 	uint8 cr5 = CY_GET_XTND_REG8((void CYFAR *)(CYREG_RESET_CR5));
 543              		.loc 1 316 0
 544 0012 304B     		ldr	r3, .L19+8
 545 0014 1B78     		ldrb	r3, [r3]
 546 0016 7B71     		strb	r3, [r7, #5]
 317:.\Generated_Source\PSoC5/cyfitter_cfg.c **** 	CY_SET_XTND_REG8((void CYFAR *)(CYREG_BG_DFT0), (bg_xover_inl_trim & 0x07u));
 547              		.loc 1 317 0
 548 0018 2F4A     		ldr	r2, .L19+12
 549 001a FB79     		ldrb	r3, [r7, #7]
 550 001c 03F00703 		and	r3, r3, #7
 551 0020 DBB2     		uxtb	r3, r3
 552 0022 1370     		strb	r3, [r2]
 318:.\Generated_Source\PSoC5/cyfitter_cfg.c **** 	CY_SET_XTND_REG8((void CYFAR *)(CYREG_BG_DFT1), ((bg_xover_inl_trim >> 4) & 0x0Fu));
 553              		.loc 1 318 0
 554 0024 2D4A     		ldr	r2, .L19+16
 555 0026 FB79     		ldrb	r3, [r7, #7]	@ zero_extendqisi2
 556 0028 1B09     		lsrs	r3, r3, #4
 557 002a DBB2     		uxtb	r3, r3
 558 002c 1370     		strb	r3, [r2]
 319:.\Generated_Source\PSoC5/cyfitter_cfg.c **** 	/* Disable PRES while setting up SAR voltage reference */
 320:.\Generated_Source\PSoC5/cyfitter_cfg.c **** 	CY_SET_XTND_REG8((void CYFAR *)(CYREG_RESET_CR4), (cr4 | 0x03u));
 559              		.loc 1 320 0
 560 002e 284A     		ldr	r2, .L19+4
 561 0030 BB79     		ldrb	r3, [r7, #6]
 562 0032 43F00303 		orr	r3, r3, #3
 563 0036 DBB2     		uxtb	r3, r3
 564 0038 1370     		strb	r3, [r2]
 321:.\Generated_Source\PSoC5/cyfitter_cfg.c **** 	CY_SET_XTND_REG8((void CYFAR *)(CYREG_RESET_CR5), (cr5 | 0x03u));
 565              		.loc 1 321 0
 566 003a 264A     		ldr	r2, .L19+8
 567 003c 7B79     		ldrb	r3, [r7, #5]
 568 003e 43F00303 		orr	r3, r3, #3
 569 0042 DBB2     		uxtb	r3, r3
 570 0044 1370     		strb	r3, [r2]
 322:.\Generated_Source\PSoC5/cyfitter_cfg.c **** 	CY_SET_XTND_REG8((void CYFAR *)CYREG_PRT0_AG, 0x02u);
 571              		.loc 1 322 0
 572 0046 264B     		ldr	r3, .L19+20
 573 0048 0222     		movs	r2, #2
 574 004a 1A70     		strb	r2, [r3]
 323:.\Generated_Source\PSoC5/cyfitter_cfg.c **** 	CY_SET_XTND_REG8((void CYFAR *)CYREG_PRT3_AG, 0xFFu);
 575              		.loc 1 323 0
 576 004c 254B     		ldr	r3, .L19+24
 577 004e FF22     		movs	r2, #255
 578 0050 1A70     		strb	r2, [r3]
 324:.\Generated_Source\PSoC5/cyfitter_cfg.c **** 	CY_SET_XTND_REG8((void CYFAR *)CYREG_PRT4_AG, 0x40u);
 579              		.loc 1 324 0
 580 0052 254B     		ldr	r3, .L19+28
 581 0054 4022     		movs	r2, #64
 582 0056 1A70     		strb	r2, [r3]
ARM GAS  C:\Users\Robert\AppData\Local\Temp\cclbLtji.s 			page 17


 325:.\Generated_Source\PSoC5/cyfitter_cfg.c **** 	CY_SET_XTND_REG8((void CYFAR *)CYREG_CAPSL_CFG0, 0x00u);
 583              		.loc 1 325 0
 584 0058 244B     		ldr	r3, .L19+32
 585 005a 0022     		movs	r2, #0
 586 005c 1A70     		strb	r2, [r3]
 326:.\Generated_Source\PSoC5/cyfitter_cfg.c **** 	CY_SET_XTND_REG8((void CYFAR *)CYREG_SAR1_CSR1, 0x40u);
 587              		.loc 1 326 0
 588 005e 244B     		ldr	r3, .L19+36
 589 0060 4022     		movs	r2, #64
 590 0062 1A70     		strb	r2, [r3]
 327:.\Generated_Source\PSoC5/cyfitter_cfg.c **** 	CY_SET_XTND_REG8((void CYFAR *)CYREG_SAR1_CSR3, 0x40u);
 591              		.loc 1 327 0
 592 0064 234B     		ldr	r3, .L19+40
 593 0066 4022     		movs	r2, #64
 594 0068 1A70     		strb	r2, [r3]
 328:.\Generated_Source\PSoC5/cyfitter_cfg.c **** 	CY_SET_XTND_REG8((void CYFAR *)CYREG_DAC0_SW2, 0x02u);
 595              		.loc 1 328 0
 596 006a 234B     		ldr	r3, .L19+44
 597 006c 0222     		movs	r2, #2
 598 006e 1A70     		strb	r2, [r3]
 329:.\Generated_Source\PSoC5/cyfitter_cfg.c **** 	CY_SET_XTND_REG8((void CYFAR *)CYREG_DAC1_SW0, 0x02u);
 599              		.loc 1 329 0
 600 0070 224B     		ldr	r3, .L19+48
 601 0072 0222     		movs	r2, #2
 602 0074 1A70     		strb	r2, [r3]
 330:.\Generated_Source\PSoC5/cyfitter_cfg.c **** 	CY_SET_XTND_REG8((void CYFAR *)CYREG_DAC2_SW3, 0x80u);
 603              		.loc 1 330 0
 604 0076 224B     		ldr	r3, .L19+52
 605 0078 8022     		movs	r2, #128
 606 007a 1A70     		strb	r2, [r3]
 331:.\Generated_Source\PSoC5/cyfitter_cfg.c **** 	CY_SET_XTND_REG8((void CYFAR *)CYREG_CMP1_SW3, 0x20u);
 607              		.loc 1 331 0
 608 007c 214B     		ldr	r3, .L19+56
 609 007e 2022     		movs	r2, #32
 610 0080 1A70     		strb	r2, [r3]
 332:.\Generated_Source\PSoC5/cyfitter_cfg.c **** 	CY_SET_XTND_REG8((void CYFAR *)CYREG_DSM0_SW0, 0x41u);
 611              		.loc 1 332 0
 612 0082 214B     		ldr	r3, .L19+60
 613 0084 4122     		movs	r2, #65
 614 0086 1A70     		strb	r2, [r3]
 333:.\Generated_Source\PSoC5/cyfitter_cfg.c **** 	CY_SET_XTND_REG8((void CYFAR *)CYREG_DSM0_SW4, 0x22u);
 615              		.loc 1 333 0
 616 0088 204B     		ldr	r3, .L19+64
 617 008a 2222     		movs	r2, #34
 618 008c 1A70     		strb	r2, [r3]
 334:.\Generated_Source\PSoC5/cyfitter_cfg.c **** 	CY_SET_XTND_REG8((void CYFAR *)CYREG_SAR1_SW0, 0xF0u);
 619              		.loc 1 334 0
 620 008e 204B     		ldr	r3, .L19+68
 621 0090 F022     		movs	r2, #240
 622 0092 1A70     		strb	r2, [r3]
 335:.\Generated_Source\PSoC5/cyfitter_cfg.c **** 	CY_SET_XTND_REG8((void CYFAR *)CYREG_SAR1_SW3, 0x20u);
 623              		.loc 1 335 0
 624 0094 1F4B     		ldr	r3, .L19+72
 625 0096 2022     		movs	r2, #32
 626 0098 1A70     		strb	r2, [r3]
 336:.\Generated_Source\PSoC5/cyfitter_cfg.c **** 	CY_SET_XTND_REG16((void CYFAR *)CYREG_OPAMP2_MX, 0x0106u);
 627              		.loc 1 336 0
ARM GAS  C:\Users\Robert\AppData\Local\Temp\cclbLtji.s 			page 18


 628 009a 1F4B     		ldr	r3, .L19+76
 629 009c 4FF48372 		mov	r2, #262
 630 00a0 1A80     		strh	r2, [r3]	@ movhi
 337:.\Generated_Source\PSoC5/cyfitter_cfg.c **** 	CY_SET_XTND_REG8((void CYFAR *)CYREG_BUS_SW0, 0x02u);
 631              		.loc 1 337 0
 632 00a2 1E4B     		ldr	r3, .L19+80
 633 00a4 0222     		movs	r2, #2
 634 00a6 1A70     		strb	r2, [r3]
 338:.\Generated_Source\PSoC5/cyfitter_cfg.c **** 	CY_SET_XTND_REG8((void CYFAR *)CYREG_BUS_SW3, 0x01u);
 635              		.loc 1 338 0
 636 00a8 1D4B     		ldr	r3, .L19+84
 637 00aa 0122     		movs	r2, #1
 638 00ac 1A70     		strb	r2, [r3]
 339:.\Generated_Source\PSoC5/cyfitter_cfg.c **** 	CY_SET_XTND_REG8((void CYFAR *)(CYREG_RESET_CR5), (cr5));
 639              		.loc 1 339 0
 640 00ae 094A     		ldr	r2, .L19+8
 641 00b0 7B79     		ldrb	r3, [r7, #5]
 642 00b2 1370     		strb	r3, [r2]
 340:.\Generated_Source\PSoC5/cyfitter_cfg.c **** 	CY_SET_XTND_REG8((void CYFAR *)(CYREG_RESET_CR4), (cr4));
 643              		.loc 1 340 0
 644 00b4 064A     		ldr	r2, .L19+4
 645 00b6 BB79     		ldrb	r3, [r7, #6]
 646 00b8 1370     		strb	r3, [r2]
 341:.\Generated_Source\PSoC5/cyfitter_cfg.c **** 	CY_SET_XTND_REG8((void CYFAR *)CYREG_PUMP_CR0, 0x44u);
 647              		.loc 1 341 0
 648 00ba 1A4B     		ldr	r3, .L19+88
 649 00bc 4422     		movs	r2, #68
 650 00be 1A70     		strb	r2, [r3]
 342:.\Generated_Source\PSoC5/cyfitter_cfg.c **** }
 651              		.loc 1 342 0
 652 00c0 0C37     		adds	r7, r7, #12
 653              		.cfi_def_cfa_offset 4
 654 00c2 BD46     		mov	sp, r7
 655              		.cfi_def_cfa_register 13
 656              		@ sp needed
 657 00c4 5DF8047B 		ldr	r7, [sp], #4
 658              		.cfi_restore 7
 659              		.cfi_def_cfa_offset 0
 660 00c8 7047     		bx	lr
 661              	.L20:
 662 00ca 00BF     		.align	2
 663              	.L19:
 664 00cc CF010049 		.word	1224737231
 665 00d0 F8460040 		.word	1073759992
 666 00d4 F9460040 		.word	1073759993
 667 00d8 6E580040 		.word	1073764462
 668 00dc 6F580040 		.word	1073764463
 669 00e0 0D510040 		.word	1073762573
 670 00e4 3D510040 		.word	1073762621
 671 00e8 4D510040 		.word	1073762637
 672 00ec 70580040 		.word	1073764464
 673 00f0 09590040 		.word	1073764617
 674 00f4 0B590040 		.word	1073764619
 675 00f8 825A0040 		.word	1073764994
 676 00fc 885A0040 		.word	1073765000
 677 0100 935A0040 		.word	1073765011
 678 0104 CB5A0040 		.word	1073765067
ARM GAS  C:\Users\Robert\AppData\Local\Temp\cclbLtji.s 			page 19


 679 0108 005B0040 		.word	1073765120
 680 010c 045B0040 		.word	1073765124
 681 0110 285B0040 		.word	1073765160
 682 0114 2B5B0040 		.word	1073765163
 683 0118 445B0040 		.word	1073765188
 684 011c 585B0040 		.word	1073765208
 685 0120 5B5B0040 		.word	1073765211
 686 0124 76580040 		.word	1073764470
 687              		.cfi_endproc
 688              	.LFE6:
 689              		.size	AnalogSetDefault, .-AnalogSetDefault
 690              		.section	.text.SetAnalogRoutingPumps,"ax",%progbits
 691              		.align	2
 692              		.global	SetAnalogRoutingPumps
 693              		.thumb
 694              		.thumb_func
 695              		.type	SetAnalogRoutingPumps, %function
 696              	SetAnalogRoutingPumps:
 697              	.LFB7:
 343:.\Generated_Source\PSoC5/cyfitter_cfg.c **** 
 344:.\Generated_Source\PSoC5/cyfitter_cfg.c **** 
 345:.\Generated_Source\PSoC5/cyfitter_cfg.c **** /*******************************************************************************
 346:.\Generated_Source\PSoC5/cyfitter_cfg.c **** * Function Name: SetAnalogRoutingPumps
 347:.\Generated_Source\PSoC5/cyfitter_cfg.c **** ********************************************************************************
 348:.\Generated_Source\PSoC5/cyfitter_cfg.c **** *
 349:.\Generated_Source\PSoC5/cyfitter_cfg.c **** * Summary:
 350:.\Generated_Source\PSoC5/cyfitter_cfg.c **** * Enables or disables the analog pumps feeding analog routing switches.
 351:.\Generated_Source\PSoC5/cyfitter_cfg.c **** * Intended to be called at startup, based on the Vdda system configuration;
 352:.\Generated_Source\PSoC5/cyfitter_cfg.c **** * may be called during operation when the user informs us that the Vdda voltage
 353:.\Generated_Source\PSoC5/cyfitter_cfg.c **** * crossed the pump threshold.
 354:.\Generated_Source\PSoC5/cyfitter_cfg.c **** *
 355:.\Generated_Source\PSoC5/cyfitter_cfg.c **** * Parameters:
 356:.\Generated_Source\PSoC5/cyfitter_cfg.c **** *  enabled - 1 to enable the pumps, 0 to disable the pumps
 357:.\Generated_Source\PSoC5/cyfitter_cfg.c **** *
 358:.\Generated_Source\PSoC5/cyfitter_cfg.c **** * Return:
 359:.\Generated_Source\PSoC5/cyfitter_cfg.c **** *  void
 360:.\Generated_Source\PSoC5/cyfitter_cfg.c **** *
 361:.\Generated_Source\PSoC5/cyfitter_cfg.c **** *******************************************************************************/
 362:.\Generated_Source\PSoC5/cyfitter_cfg.c **** void SetAnalogRoutingPumps(uint8 enabled)
 363:.\Generated_Source\PSoC5/cyfitter_cfg.c **** {
 698              		.loc 1 363 0
 699              		.cfi_startproc
 700              		@ args = 0, pretend = 0, frame = 16
 701              		@ frame_needed = 1, uses_anonymous_args = 0
 702              		@ link register save eliminated.
 703 0000 80B4     		push	{r7}
 704              		.cfi_def_cfa_offset 4
 705              		.cfi_offset 7, -4
 706 0002 85B0     		sub	sp, sp, #20
 707              		.cfi_def_cfa_offset 24
 708 0004 00AF     		add	r7, sp, #0
 709              		.cfi_def_cfa_register 7
 710 0006 0346     		mov	r3, r0
 711 0008 FB71     		strb	r3, [r7, #7]
 364:.\Generated_Source\PSoC5/cyfitter_cfg.c **** 	uint8 regValue = CY_GET_XTND_REG8((void CYFAR *)CYREG_PUMP_CR0);
 712              		.loc 1 364 0
 713 000a 0B4B     		ldr	r3, .L24
ARM GAS  C:\Users\Robert\AppData\Local\Temp\cclbLtji.s 			page 20


 714 000c 1B78     		ldrb	r3, [r3]
 715 000e FB73     		strb	r3, [r7, #15]
 365:.\Generated_Source\PSoC5/cyfitter_cfg.c **** 	if (enabled != 0u)
 716              		.loc 1 365 0
 717 0010 FB79     		ldrb	r3, [r7, #7]	@ zero_extendqisi2
 718 0012 002B     		cmp	r3, #0
 719 0014 04D0     		beq	.L22
 366:.\Generated_Source\PSoC5/cyfitter_cfg.c **** 	{
 367:.\Generated_Source\PSoC5/cyfitter_cfg.c **** 		regValue |= 0x22u;
 720              		.loc 1 367 0
 721 0016 FB7B     		ldrb	r3, [r7, #15]
 722 0018 43F02203 		orr	r3, r3, #34
 723 001c FB73     		strb	r3, [r7, #15]
 724 001e 03E0     		b	.L23
 725              	.L22:
 368:.\Generated_Source\PSoC5/cyfitter_cfg.c **** 	}
 369:.\Generated_Source\PSoC5/cyfitter_cfg.c **** 	else
 370:.\Generated_Source\PSoC5/cyfitter_cfg.c **** 	{
 371:.\Generated_Source\PSoC5/cyfitter_cfg.c **** 		regValue &= (uint8)~0x22u;
 726              		.loc 1 371 0
 727 0020 FB7B     		ldrb	r3, [r7, #15]
 728 0022 23F02203 		bic	r3, r3, #34
 729 0026 FB73     		strb	r3, [r7, #15]
 730              	.L23:
 372:.\Generated_Source\PSoC5/cyfitter_cfg.c **** 	}
 373:.\Generated_Source\PSoC5/cyfitter_cfg.c **** 	CY_SET_XTND_REG8((void CYFAR *)CYREG_PUMP_CR0, regValue);
 731              		.loc 1 373 0
 732 0028 034A     		ldr	r2, .L24
 733 002a FB7B     		ldrb	r3, [r7, #15]
 734 002c 1370     		strb	r3, [r2]
 374:.\Generated_Source\PSoC5/cyfitter_cfg.c **** }
 735              		.loc 1 374 0
 736 002e 1437     		adds	r7, r7, #20
 737              		.cfi_def_cfa_offset 4
 738 0030 BD46     		mov	sp, r7
 739              		.cfi_def_cfa_register 13
 740              		@ sp needed
 741 0032 5DF8047B 		ldr	r7, [sp], #4
 742              		.cfi_restore 7
 743              		.cfi_def_cfa_offset 0
 744 0036 7047     		bx	lr
 745              	.L25:
 746              		.align	2
 747              	.L24:
 748 0038 76580040 		.word	1073764470
 749              		.cfi_endproc
 750              	.LFE7:
 751              		.size	SetAnalogRoutingPumps, .-SetAnalogRoutingPumps
 752              		.global	CapSense_1_AMuxCH0__addrTable
 753              		.section	.rodata
 754              		.align	2
 755              		.type	CapSense_1_AMuxCH0__addrTable, %object
 756              		.size	CapSense_1_AMuxCH0__addrTable, 44
 757              	CapSense_1_AMuxCH0__addrTable:
 758 0000 4C510040 		.word	1073762636
 759 0004 4C510040 		.word	1073762636
 760 0008 4C510040 		.word	1073762636
ARM GAS  C:\Users\Robert\AppData\Local\Temp\cclbLtji.s 			page 21


 761 000c 4C510040 		.word	1073762636
 762 0010 4C510040 		.word	1073762636
 763 0014 4C510040 		.word	1073762636
 764 0018 0C510040 		.word	1073762572
 765 001c 0C510040 		.word	1073762572
 766 0020 035B0040 		.word	1073765123
 767 0024 CB5A0040 		.word	1073765067
 768 0028 9B5A0040 		.word	1073765019
 769              		.global	CapSense_1_AMuxCH0__maskTable
 770              		.align	2
 771              		.type	CapSense_1_AMuxCH0__maskTable, %object
 772              		.size	CapSense_1_AMuxCH0__maskTable, 11
 773              	CapSense_1_AMuxCH0__maskTable:
 774 002c 01       		.byte	1
 775 002d 02       		.byte	2
 776 002e 04       		.byte	4
 777 002f 08       		.byte	8
 778 0030 10       		.byte	16
 779 0031 20       		.byte	32
 780 0032 20       		.byte	32
 781 0033 40       		.byte	64
 782 0034 01       		.byte	1
 783 0035 01       		.byte	1
 784 0036 10       		.byte	16
 785              		.section	.text.CapSense_1_AMuxCH0_Set,"ax",%progbits
 786              		.align	2
 787              		.global	CapSense_1_AMuxCH0_Set
 788              		.thumb
 789              		.thumb_func
 790              		.type	CapSense_1_AMuxCH0_Set, %function
 791              	CapSense_1_AMuxCH0_Set:
 792              	.LFB8:
 375:.\Generated_Source\PSoC5/cyfitter_cfg.c **** 
 376:.\Generated_Source\PSoC5/cyfitter_cfg.c **** #define CY_AMUX_UNUSED CYREG_BOOST_SR
 377:.\Generated_Source\PSoC5/cyfitter_cfg.c **** /* This is an implementation detail of the AMux. Code that depends on it may be
 378:.\Generated_Source\PSoC5/cyfitter_cfg.c ****    incompatible with other versions of PSoC Creator. */
 379:.\Generated_Source\PSoC5/cyfitter_cfg.c **** uint8 CYXDATA * const CYCODE CapSense_1_AMuxCH0__addrTable[11] = {
 380:.\Generated_Source\PSoC5/cyfitter_cfg.c **** 	(uint8 CYXDATA *)CYREG_PRT4_AMUX, 
 381:.\Generated_Source\PSoC5/cyfitter_cfg.c **** 	(uint8 CYXDATA *)CYREG_PRT4_AMUX, 
 382:.\Generated_Source\PSoC5/cyfitter_cfg.c **** 	(uint8 CYXDATA *)CYREG_PRT4_AMUX, 
 383:.\Generated_Source\PSoC5/cyfitter_cfg.c **** 	(uint8 CYXDATA *)CYREG_PRT4_AMUX, 
 384:.\Generated_Source\PSoC5/cyfitter_cfg.c **** 	(uint8 CYXDATA *)CYREG_PRT4_AMUX, 
 385:.\Generated_Source\PSoC5/cyfitter_cfg.c **** 	(uint8 CYXDATA *)CYREG_PRT4_AMUX, 
 386:.\Generated_Source\PSoC5/cyfitter_cfg.c **** 	(uint8 CYXDATA *)CYREG_PRT0_AMUX, 
 387:.\Generated_Source\PSoC5/cyfitter_cfg.c **** 	(uint8 CYXDATA *)CYREG_PRT0_AMUX, 
 388:.\Generated_Source\PSoC5/cyfitter_cfg.c **** 	(uint8 CYXDATA *)CYREG_DSM0_SW3, 
 389:.\Generated_Source\PSoC5/cyfitter_cfg.c **** 	(uint8 CYXDATA *)CYREG_CMP1_SW3, 
 390:.\Generated_Source\PSoC5/cyfitter_cfg.c **** 	(uint8 CYXDATA *)CYREG_DAC3_SW3, 
 391:.\Generated_Source\PSoC5/cyfitter_cfg.c **** };
 392:.\Generated_Source\PSoC5/cyfitter_cfg.c **** 
 393:.\Generated_Source\PSoC5/cyfitter_cfg.c **** /* This is an implementation detail of the AMux. Code that depends on it may be
 394:.\Generated_Source\PSoC5/cyfitter_cfg.c ****    incompatible with other versions of PSoC Creator. */
 395:.\Generated_Source\PSoC5/cyfitter_cfg.c **** const uint8 CYCODE CapSense_1_AMuxCH0__maskTable[11] = {
 396:.\Generated_Source\PSoC5/cyfitter_cfg.c **** 	0x01u, 
 397:.\Generated_Source\PSoC5/cyfitter_cfg.c **** 	0x02u, 
 398:.\Generated_Source\PSoC5/cyfitter_cfg.c **** 	0x04u, 
 399:.\Generated_Source\PSoC5/cyfitter_cfg.c **** 	0x08u, 
ARM GAS  C:\Users\Robert\AppData\Local\Temp\cclbLtji.s 			page 22


 400:.\Generated_Source\PSoC5/cyfitter_cfg.c **** 	0x10u, 
 401:.\Generated_Source\PSoC5/cyfitter_cfg.c **** 	0x20u, 
 402:.\Generated_Source\PSoC5/cyfitter_cfg.c **** 	0x20u, 
 403:.\Generated_Source\PSoC5/cyfitter_cfg.c **** 	0x40u, 
 404:.\Generated_Source\PSoC5/cyfitter_cfg.c **** 	0x01u, 
 405:.\Generated_Source\PSoC5/cyfitter_cfg.c **** 	0x01u, 
 406:.\Generated_Source\PSoC5/cyfitter_cfg.c **** 	0x10u, 
 407:.\Generated_Source\PSoC5/cyfitter_cfg.c **** };
 408:.\Generated_Source\PSoC5/cyfitter_cfg.c **** 
 409:.\Generated_Source\PSoC5/cyfitter_cfg.c **** /*******************************************************************************
 410:.\Generated_Source\PSoC5/cyfitter_cfg.c **** * Function Name: CapSense_1_AMuxCH0_Set
 411:.\Generated_Source\PSoC5/cyfitter_cfg.c **** ********************************************************************************
 412:.\Generated_Source\PSoC5/cyfitter_cfg.c **** * Summary:
 413:.\Generated_Source\PSoC5/cyfitter_cfg.c **** *  This function is used to set a particular channel as active on the AMux.
 414:.\Generated_Source\PSoC5/cyfitter_cfg.c **** *
 415:.\Generated_Source\PSoC5/cyfitter_cfg.c **** * Parameters:  
 416:.\Generated_Source\PSoC5/cyfitter_cfg.c **** *   channel - The mux channel input to set as active
 417:.\Generated_Source\PSoC5/cyfitter_cfg.c **** *
 418:.\Generated_Source\PSoC5/cyfitter_cfg.c **** * Return:
 419:.\Generated_Source\PSoC5/cyfitter_cfg.c **** *   void
 420:.\Generated_Source\PSoC5/cyfitter_cfg.c **** *
 421:.\Generated_Source\PSoC5/cyfitter_cfg.c **** *******************************************************************************/
 422:.\Generated_Source\PSoC5/cyfitter_cfg.c **** void CapSense_1_AMuxCH0_Set(uint8 channel)
 423:.\Generated_Source\PSoC5/cyfitter_cfg.c **** {
 793              		.loc 1 423 0
 794              		.cfi_startproc
 795              		@ args = 0, pretend = 0, frame = 8
 796              		@ frame_needed = 1, uses_anonymous_args = 0
 797              		@ link register save eliminated.
 798 0000 80B4     		push	{r7}
 799              		.cfi_def_cfa_offset 4
 800              		.cfi_offset 7, -4
 801 0002 83B0     		sub	sp, sp, #12
 802              		.cfi_def_cfa_offset 16
 803 0004 00AF     		add	r7, sp, #0
 804              		.cfi_def_cfa_register 7
 805 0006 0346     		mov	r3, r0
 806 0008 FB71     		strb	r3, [r7, #7]
 424:.\Generated_Source\PSoC5/cyfitter_cfg.c **** 	if (channel < 11)
 807              		.loc 1 424 0
 808 000a FB79     		ldrb	r3, [r7, #7]	@ zero_extendqisi2
 809 000c 0A2B     		cmp	r3, #10
 810 000e 0ED8     		bhi	.L26
 425:.\Generated_Source\PSoC5/cyfitter_cfg.c **** 	{
 426:.\Generated_Source\PSoC5/cyfitter_cfg.c **** 		*CapSense_1_AMuxCH0__addrTable[channel] |= CapSense_1_AMuxCH0__maskTable[channel];
 811              		.loc 1 426 0
 812 0010 FB79     		ldrb	r3, [r7, #7]	@ zero_extendqisi2
 813 0012 094A     		ldr	r2, .L28
 814 0014 52F82330 		ldr	r3, [r2, r3, lsl #2]
 815 0018 FA79     		ldrb	r2, [r7, #7]	@ zero_extendqisi2
 816 001a 0749     		ldr	r1, .L28
 817 001c 51F82220 		ldr	r2, [r1, r2, lsl #2]
 818 0020 1178     		ldrb	r1, [r2]	@ zero_extendqisi2
 819 0022 FA79     		ldrb	r2, [r7, #7]	@ zero_extendqisi2
 820 0024 0548     		ldr	r0, .L28+4
 821 0026 825C     		ldrb	r2, [r0, r2]	@ zero_extendqisi2
 822 0028 0A43     		orrs	r2, r2, r1
ARM GAS  C:\Users\Robert\AppData\Local\Temp\cclbLtji.s 			page 23


 823 002a D2B2     		uxtb	r2, r2
 824 002c 1A70     		strb	r2, [r3]
 825              	.L26:
 427:.\Generated_Source\PSoC5/cyfitter_cfg.c **** 	}
 428:.\Generated_Source\PSoC5/cyfitter_cfg.c **** }
 826              		.loc 1 428 0
 827 002e 0C37     		adds	r7, r7, #12
 828              		.cfi_def_cfa_offset 4
 829 0030 BD46     		mov	sp, r7
 830              		.cfi_def_cfa_register 13
 831              		@ sp needed
 832 0032 5DF8047B 		ldr	r7, [sp], #4
 833              		.cfi_restore 7
 834              		.cfi_def_cfa_offset 0
 835 0036 7047     		bx	lr
 836              	.L29:
 837              		.align	2
 838              	.L28:
 839 0038 00000000 		.word	CapSense_1_AMuxCH0__addrTable
 840 003c 00000000 		.word	CapSense_1_AMuxCH0__maskTable
 841              		.cfi_endproc
 842              	.LFE8:
 843              		.size	CapSense_1_AMuxCH0_Set, .-CapSense_1_AMuxCH0_Set
 844              		.section	.text.CapSense_1_AMuxCH0_Unset,"ax",%progbits
 845              		.align	2
 846              		.global	CapSense_1_AMuxCH0_Unset
 847              		.thumb
 848              		.thumb_func
 849              		.type	CapSense_1_AMuxCH0_Unset, %function
 850              	CapSense_1_AMuxCH0_Unset:
 851              	.LFB9:
 429:.\Generated_Source\PSoC5/cyfitter_cfg.c **** 
 430:.\Generated_Source\PSoC5/cyfitter_cfg.c **** /*******************************************************************************
 431:.\Generated_Source\PSoC5/cyfitter_cfg.c **** * Function Name: CapSense_1_AMuxCH0_Unset
 432:.\Generated_Source\PSoC5/cyfitter_cfg.c **** ********************************************************************************
 433:.\Generated_Source\PSoC5/cyfitter_cfg.c **** * Summary:
 434:.\Generated_Source\PSoC5/cyfitter_cfg.c **** *  This function is used to clear a particular channel from being active on the
 435:.\Generated_Source\PSoC5/cyfitter_cfg.c **** *  AMux.
 436:.\Generated_Source\PSoC5/cyfitter_cfg.c **** *
 437:.\Generated_Source\PSoC5/cyfitter_cfg.c **** * Parameters:  
 438:.\Generated_Source\PSoC5/cyfitter_cfg.c **** *   channel - The mux channel input to mark inactive
 439:.\Generated_Source\PSoC5/cyfitter_cfg.c **** *
 440:.\Generated_Source\PSoC5/cyfitter_cfg.c **** * Return:
 441:.\Generated_Source\PSoC5/cyfitter_cfg.c **** *   void
 442:.\Generated_Source\PSoC5/cyfitter_cfg.c **** *
 443:.\Generated_Source\PSoC5/cyfitter_cfg.c **** *******************************************************************************/
 444:.\Generated_Source\PSoC5/cyfitter_cfg.c **** void CapSense_1_AMuxCH0_Unset(uint8 channel)
 445:.\Generated_Source\PSoC5/cyfitter_cfg.c **** {
 852              		.loc 1 445 0
 853              		.cfi_startproc
 854              		@ args = 0, pretend = 0, frame = 8
 855              		@ frame_needed = 1, uses_anonymous_args = 0
 856              		@ link register save eliminated.
 857 0000 80B4     		push	{r7}
 858              		.cfi_def_cfa_offset 4
 859              		.cfi_offset 7, -4
 860 0002 83B0     		sub	sp, sp, #12
ARM GAS  C:\Users\Robert\AppData\Local\Temp\cclbLtji.s 			page 24


 861              		.cfi_def_cfa_offset 16
 862 0004 00AF     		add	r7, sp, #0
 863              		.cfi_def_cfa_register 7
 864 0006 0346     		mov	r3, r0
 865 0008 FB71     		strb	r3, [r7, #7]
 446:.\Generated_Source\PSoC5/cyfitter_cfg.c **** 	if (channel < 11)
 866              		.loc 1 446 0
 867 000a FB79     		ldrb	r3, [r7, #7]	@ zero_extendqisi2
 868 000c 0A2B     		cmp	r3, #10
 869 000e 10D8     		bhi	.L30
 447:.\Generated_Source\PSoC5/cyfitter_cfg.c **** 	{
 448:.\Generated_Source\PSoC5/cyfitter_cfg.c **** 		*CapSense_1_AMuxCH0__addrTable[channel] &= (uint8)~CapSense_1_AMuxCH0__maskTable[channel];
 870              		.loc 1 448 0
 871 0010 FB79     		ldrb	r3, [r7, #7]	@ zero_extendqisi2
 872 0012 0A4A     		ldr	r2, .L32
 873 0014 52F82330 		ldr	r3, [r2, r3, lsl #2]
 874 0018 FA79     		ldrb	r2, [r7, #7]	@ zero_extendqisi2
 875 001a 0849     		ldr	r1, .L32
 876 001c 51F82220 		ldr	r2, [r1, r2, lsl #2]
 877 0020 1178     		ldrb	r1, [r2]	@ zero_extendqisi2
 878 0022 FA79     		ldrb	r2, [r7, #7]	@ zero_extendqisi2
 879 0024 0648     		ldr	r0, .L32+4
 880 0026 825C     		ldrb	r2, [r0, r2]	@ zero_extendqisi2
 881 0028 D243     		mvns	r2, r2
 882 002a D2B2     		uxtb	r2, r2
 883 002c 0A40     		ands	r2, r2, r1
 884 002e D2B2     		uxtb	r2, r2
 885 0030 1A70     		strb	r2, [r3]
 886              	.L30:
 449:.\Generated_Source\PSoC5/cyfitter_cfg.c **** 	}
 450:.\Generated_Source\PSoC5/cyfitter_cfg.c **** }
 887              		.loc 1 450 0
 888 0032 0C37     		adds	r7, r7, #12
 889              		.cfi_def_cfa_offset 4
 890 0034 BD46     		mov	sp, r7
 891              		.cfi_def_cfa_register 13
 892              		@ sp needed
 893 0036 5DF8047B 		ldr	r7, [sp], #4
 894              		.cfi_restore 7
 895              		.cfi_def_cfa_offset 0
 896 003a 7047     		bx	lr
 897              	.L33:
 898              		.align	2
 899              	.L32:
 900 003c 00000000 		.word	CapSense_1_AMuxCH0__addrTable
 901 0040 00000000 		.word	CapSense_1_AMuxCH0__maskTable
 902              		.cfi_endproc
 903              	.LFE9:
 904              		.size	CapSense_1_AMuxCH0_Unset, .-CapSense_1_AMuxCH0_Unset
 905              		.section	.text.cyfitter_cfg,"ax",%progbits
 906              		.align	2
 907              		.global	cyfitter_cfg
 908              		.thumb
 909              		.thumb_func
 910              		.type	cyfitter_cfg, %function
 911              	cyfitter_cfg:
 912              	.LFB10:
ARM GAS  C:\Users\Robert\AppData\Local\Temp\cclbLtji.s 			page 25


 451:.\Generated_Source\PSoC5/cyfitter_cfg.c **** 
 452:.\Generated_Source\PSoC5/cyfitter_cfg.c **** 
 453:.\Generated_Source\PSoC5/cyfitter_cfg.c **** 
 454:.\Generated_Source\PSoC5/cyfitter_cfg.c **** /*******************************************************************************
 455:.\Generated_Source\PSoC5/cyfitter_cfg.c **** * Function Name: cyfitter_cfg
 456:.\Generated_Source\PSoC5/cyfitter_cfg.c **** ********************************************************************************
 457:.\Generated_Source\PSoC5/cyfitter_cfg.c **** * Summary:
 458:.\Generated_Source\PSoC5/cyfitter_cfg.c **** *  This function is called by the start-up code for the selected device. It
 459:.\Generated_Source\PSoC5/cyfitter_cfg.c **** *  performs all of the necessary device configuration based on the design
 460:.\Generated_Source\PSoC5/cyfitter_cfg.c **** *  settings.  This includes settings from the Design Wide Resources (DWR) such
 461:.\Generated_Source\PSoC5/cyfitter_cfg.c **** *  as Clocks and Pins as well as any component configuration that is necessary.
 462:.\Generated_Source\PSoC5/cyfitter_cfg.c **** *
 463:.\Generated_Source\PSoC5/cyfitter_cfg.c **** * Parameters:  
 464:.\Generated_Source\PSoC5/cyfitter_cfg.c **** *   void
 465:.\Generated_Source\PSoC5/cyfitter_cfg.c **** *
 466:.\Generated_Source\PSoC5/cyfitter_cfg.c **** * Return:
 467:.\Generated_Source\PSoC5/cyfitter_cfg.c **** *   void
 468:.\Generated_Source\PSoC5/cyfitter_cfg.c **** *
 469:.\Generated_Source\PSoC5/cyfitter_cfg.c **** *******************************************************************************/
 470:.\Generated_Source\PSoC5/cyfitter_cfg.c **** 
 471:.\Generated_Source\PSoC5/cyfitter_cfg.c **** void cyfitter_cfg(void)
 472:.\Generated_Source\PSoC5/cyfitter_cfg.c **** {
 913              		.loc 1 472 0
 914              		.cfi_startproc
 915              		@ args = 0, pretend = 0, frame = 8
 916              		@ frame_needed = 1, uses_anonymous_args = 0
 917 0000 80B5     		push	{r7, lr}
 918              		.cfi_def_cfa_offset 8
 919              		.cfi_offset 7, -8
 920              		.cfi_offset 14, -4
 921 0002 82B0     		sub	sp, sp, #8
 922              		.cfi_def_cfa_offset 16
 923 0004 00AF     		add	r7, sp, #0
 924              		.cfi_def_cfa_register 7
 473:.\Generated_Source\PSoC5/cyfitter_cfg.c **** #ifdef CYGlobalIntDisable
 474:.\Generated_Source\PSoC5/cyfitter_cfg.c **** 	/* Disable interrupts by default. Let user enable if/when they want. */
 475:.\Generated_Source\PSoC5/cyfitter_cfg.c **** 	CYGlobalIntDisable
 925              		.loc 1 475 0
 926              	@ 475 ".\Generated_Source\PSoC5\cyfitter_cfg.c" 1
 927 0006 72B6     		CPSID   i
 928              	@ 0 "" 2
 476:.\Generated_Source\PSoC5/cyfitter_cfg.c **** #endif
 477:.\Generated_Source\PSoC5/cyfitter_cfg.c **** 
 478:.\Generated_Source\PSoC5/cyfitter_cfg.c **** 	/* Enable/Disable Debug functionality based on settings from System DWR */
 479:.\Generated_Source\PSoC5/cyfitter_cfg.c **** 	CY_SET_XTND_REG8((void CYFAR *)CYREG_MLOGIC_DEBUG, (CY_GET_XTND_REG8((void CYFAR *)CYREG_MLOGIC_DE
 929              		.loc 1 479 0
 930              		.thumb
 931 0008 624A     		ldr	r2, .L37
 932 000a 624B     		ldr	r3, .L37
 933 000c 1B78     		ldrb	r3, [r3]
 934 000e DBB2     		uxtb	r3, r3
 935 0010 43F02003 		orr	r3, r3, #32
 936 0014 DBB2     		uxtb	r3, r3
 937 0016 1370     		strb	r3, [r2]
 938              	.LBB3:
 480:.\Generated_Source\PSoC5/cyfitter_cfg.c **** 
 481:.\Generated_Source\PSoC5/cyfitter_cfg.c **** 	{
ARM GAS  C:\Users\Robert\AppData\Local\Temp\cclbLtji.s 			page 26


 482:.\Generated_Source\PSoC5/cyfitter_cfg.c **** 
 483:.\Generated_Source\PSoC5/cyfitter_cfg.c **** 		CYPACKED typedef struct {
 484:.\Generated_Source\PSoC5/cyfitter_cfg.c **** 			void CYFAR *address;
 485:.\Generated_Source\PSoC5/cyfitter_cfg.c **** 			uint16 size;
 486:.\Generated_Source\PSoC5/cyfitter_cfg.c **** 		} CYPACKED_ATTR cfg_memset_t;
 487:.\Generated_Source\PSoC5/cyfitter_cfg.c **** 
 488:.\Generated_Source\PSoC5/cyfitter_cfg.c **** 		static const cfg_memset_t CYCODE cfg_memset_list [] = {
 489:.\Generated_Source\PSoC5/cyfitter_cfg.c **** 			/* address, size */
 490:.\Generated_Source\PSoC5/cyfitter_cfg.c **** 			{(void CYFAR *)(CYREG_TMR0_CFG0), 12u},
 491:.\Generated_Source\PSoC5/cyfitter_cfg.c **** 			{(void CYFAR *)(CYREG_PRT1_DR), 16u},
 492:.\Generated_Source\PSoC5/cyfitter_cfg.c **** 			{(void CYFAR *)(CYDEV_UCFG_B0_P0_U0_BASE), 4096u},
 493:.\Generated_Source\PSoC5/cyfitter_cfg.c **** 			{(void CYFAR *)(CYDEV_UCFG_B1_P2_U0_BASE), 2048u},
 494:.\Generated_Source\PSoC5/cyfitter_cfg.c **** 			{(void CYFAR *)(CYDEV_UCFG_DSI0_BASE), 2560u},
 495:.\Generated_Source\PSoC5/cyfitter_cfg.c **** 			{(void CYFAR *)(CYDEV_UCFG_DSI12_BASE), 512u},
 496:.\Generated_Source\PSoC5/cyfitter_cfg.c **** 			{(void CYFAR *)(CYREG_BCTL0_MDCLK_EN), 32u},
 497:.\Generated_Source\PSoC5/cyfitter_cfg.c **** 		};
 498:.\Generated_Source\PSoC5/cyfitter_cfg.c **** 
 499:.\Generated_Source\PSoC5/cyfitter_cfg.c **** 		uint8 CYDATA i;
 500:.\Generated_Source\PSoC5/cyfitter_cfg.c **** 
 501:.\Generated_Source\PSoC5/cyfitter_cfg.c **** 		/* Zero out critical memory blocks before beginning configuration */
 502:.\Generated_Source\PSoC5/cyfitter_cfg.c **** 		for (i = 0u; i < (sizeof(cfg_memset_list)/sizeof(cfg_memset_list[0])); i++)
 939              		.loc 1 502 0
 940 0018 0023     		movs	r3, #0
 941 001a FB71     		strb	r3, [r7, #7]
 942 001c 13E0     		b	.L35
 943              	.L36:
 944              	.LBB4:
 503:.\Generated_Source\PSoC5/cyfitter_cfg.c **** 		{
 504:.\Generated_Source\PSoC5/cyfitter_cfg.c **** 			const cfg_memset_t CYCODE * CYDATA ms = &cfg_memset_list[i];
 945              		.loc 1 504 0 discriminator 3
 946 001e FA79     		ldrb	r2, [r7, #7]	@ zero_extendqisi2
 947 0020 1346     		mov	r3, r2
 948 0022 5B00     		lsls	r3, r3, #1
 949 0024 1344     		add	r3, r3, r2
 950 0026 5B00     		lsls	r3, r3, #1
 951 0028 5B4A     		ldr	r2, .L37+4
 952 002a 1344     		add	r3, r3, r2
 953 002c 3B60     		str	r3, [r7]
 505:.\Generated_Source\PSoC5/cyfitter_cfg.c **** 			CYMEMZERO(ms->address, (size_t)(uint32)(ms->size));
 954              		.loc 1 505 0 discriminator 3
 955 002e 3B68     		ldr	r3, [r7]
 956 0030 1A68     		ldr	r2, [r3]	@ unaligned
 957 0032 3B68     		ldr	r3, [r7]
 958 0034 9B88     		ldrh	r3, [r3, #4]	@ unaligned
 959 0036 9BB2     		uxth	r3, r3
 960 0038 1046     		mov	r0, r2
 961 003a 1946     		mov	r1, r3
 962 003c FFF7FEFF 		bl	CYMEMZERO
 963              	.LBE4:
 502:.\Generated_Source\PSoC5/cyfitter_cfg.c **** 		{
 964              		.loc 1 502 0 discriminator 3
 965 0040 FB79     		ldrb	r3, [r7, #7]	@ zero_extendqisi2
 966 0042 0133     		adds	r3, r3, #1
 967 0044 FB71     		strb	r3, [r7, #7]
 968              	.L35:
 502:.\Generated_Source\PSoC5/cyfitter_cfg.c **** 		{
 969              		.loc 1 502 0 is_stmt 0 discriminator 1
ARM GAS  C:\Users\Robert\AppData\Local\Temp\cclbLtji.s 			page 27


 970 0046 FB79     		ldrb	r3, [r7, #7]	@ zero_extendqisi2
 971 0048 062B     		cmp	r3, #6
 972 004a E8D9     		bls	.L36
 506:.\Generated_Source\PSoC5/cyfitter_cfg.c **** 		}
 507:.\Generated_Source\PSoC5/cyfitter_cfg.c **** 
 508:.\Generated_Source\PSoC5/cyfitter_cfg.c **** 		cfg_write_bytes32(cy_cfg_addr_table, cy_cfg_data_table);
 973              		.loc 1 508 0 is_stmt 1
 974 004c 534B     		ldr	r3, .L37+8
 975 004e 03F19043 		add	r3, r3, #1207959552
 976 0052 1A46     		mov	r2, r3
 977 0054 514B     		ldr	r3, .L37+8
 978 0056 03F19043 		add	r3, r3, #1207959552
 979 005a B433     		adds	r3, r3, #180
 980 005c 1046     		mov	r0, r2
 981 005e 1946     		mov	r1, r3
 982 0060 FFF7FEFF 		bl	cfg_write_bytes32
 509:.\Generated_Source\PSoC5/cyfitter_cfg.c **** 
 510:.\Generated_Source\PSoC5/cyfitter_cfg.c **** 		/* Perform normal device configuration. Order is not critical for these items. */
 511:.\Generated_Source\PSoC5/cyfitter_cfg.c **** 		CY_SET_XTND_REG16((void CYFAR *)(CYREG_CAPSL_CFG0), 0x0300u);
 983              		.loc 1 511 0
 984 0064 4E4B     		ldr	r3, .L37+12
 985 0066 4FF44072 		mov	r2, #768
 986 006a 1A80     		strh	r2, [r3]	@ movhi
 512:.\Generated_Source\PSoC5/cyfitter_cfg.c **** 		CY_SET_XTND_REG16((void CYFAR *)(CYREG_LUT1_CR), 0x0103u);
 987              		.loc 1 512 0
 988 006c 4D4B     		ldr	r3, .L37+16
 989 006e 40F20312 		movw	r2, #259
 990 0072 1A80     		strh	r2, [r3]	@ movhi
 513:.\Generated_Source\PSoC5/cyfitter_cfg.c **** 		CYMEMZERO((void CYFAR *)(CYREG_PHUB_CFGMEM0_CFG0), 4u);
 991              		.loc 1 513 0
 992 0074 4C48     		ldr	r0, .L37+20
 993 0076 0421     		movs	r1, #4
 994 0078 FFF7FEFF 		bl	CYMEMZERO
 514:.\Generated_Source\PSoC5/cyfitter_cfg.c **** 		CYCONFIGCPY((void CYFAR *)(CYREG_PHUB_CFGMEM1_CFG0), (const void CYFAR *)(BS_PHUB_CFGMEM1_VAL), 4
 995              		.loc 1 514 0
 996 007c 474A     		ldr	r2, .L37+8
 997 007e 4B4B     		ldr	r3, .L37+24
 998 0080 1344     		add	r3, r3, r2
 999 0082 4B48     		ldr	r0, .L37+28
 1000 0084 1946     		mov	r1, r3
 1001 0086 0422     		movs	r2, #4
 1002 0088 FFF7FEFF 		bl	CYCONFIGCPY
 515:.\Generated_Source\PSoC5/cyfitter_cfg.c **** 		CYMEMZERO((void CYFAR *)(CYREG_PHUB_CFGMEM2_CFG0), 4u);
 1003              		.loc 1 515 0
 1004 008c 4948     		ldr	r0, .L37+32
 1005 008e 0421     		movs	r1, #4
 1006 0090 FFF7FEFF 		bl	CYMEMZERO
 516:.\Generated_Source\PSoC5/cyfitter_cfg.c **** 		CYMEMZERO((void CYFAR *)(CYREG_PHUB_CFGMEM3_CFG0), 4u);
 1007              		.loc 1 516 0
 1008 0094 4848     		ldr	r0, .L37+36
 1009 0096 0421     		movs	r1, #4
 1010 0098 FFF7FEFF 		bl	CYMEMZERO
 517:.\Generated_Source\PSoC5/cyfitter_cfg.c **** 
 518:.\Generated_Source\PSoC5/cyfitter_cfg.c **** 		/* Enable digital routing */
 519:.\Generated_Source\PSoC5/cyfitter_cfg.c **** 		CY_SET_XTND_REG8((void CYFAR *)CYREG_BCTL0_BANK_CTL, CY_GET_XTND_REG8((void CYFAR *)CYREG_BCTL0_B
 1011              		.loc 1 519 0
 1012 009c 474A     		ldr	r2, .L37+40
ARM GAS  C:\Users\Robert\AppData\Local\Temp\cclbLtji.s 			page 28


 1013 009e 474B     		ldr	r3, .L37+40
 1014 00a0 1B78     		ldrb	r3, [r3]
 1015 00a2 DBB2     		uxtb	r3, r3
 1016 00a4 43F00203 		orr	r3, r3, #2
 1017 00a8 DBB2     		uxtb	r3, r3
 1018 00aa 1370     		strb	r3, [r2]
 520:.\Generated_Source\PSoC5/cyfitter_cfg.c **** 		CY_SET_XTND_REG8((void CYFAR *)CYREG_BCTL1_BANK_CTL, CY_GET_XTND_REG8((void CYFAR *)CYREG_BCTL1_B
 1019              		.loc 1 520 0
 1020 00ac 444A     		ldr	r2, .L37+44
 1021 00ae 444B     		ldr	r3, .L37+44
 1022 00b0 1B78     		ldrb	r3, [r3]
 1023 00b2 DBB2     		uxtb	r3, r3
 1024 00b4 43F00203 		orr	r3, r3, #2
 1025 00b8 DBB2     		uxtb	r3, r3
 1026 00ba 1370     		strb	r3, [r2]
 521:.\Generated_Source\PSoC5/cyfitter_cfg.c **** 
 522:.\Generated_Source\PSoC5/cyfitter_cfg.c **** 		/* Enable UDB array */
 523:.\Generated_Source\PSoC5/cyfitter_cfg.c **** 		CY_SET_XTND_REG8((void CYFAR *)CYREG_PM_ACT_CFG0, CY_GET_XTND_REG8((void CYFAR *)CYREG_PM_ACT_CFG
 1027              		.loc 1 523 0
 1028 00bc 414A     		ldr	r2, .L37+48
 1029 00be 414B     		ldr	r3, .L37+48
 1030 00c0 1B78     		ldrb	r3, [r3]
 1031 00c2 DBB2     		uxtb	r3, r3
 1032 00c4 43F04003 		orr	r3, r3, #64
 1033 00c8 DBB2     		uxtb	r3, r3
 1034 00ca 1370     		strb	r3, [r2]
 524:.\Generated_Source\PSoC5/cyfitter_cfg.c **** 		CY_SET_XTND_REG8((void CYFAR *)CYREG_PM_AVAIL_CR2, CY_GET_XTND_REG8((void CYFAR *)CYREG_PM_AVAIL_
 1035              		.loc 1 524 0
 1036 00cc 3E4A     		ldr	r2, .L37+52
 1037 00ce 3E4B     		ldr	r3, .L37+52
 1038 00d0 1B78     		ldrb	r3, [r3]
 1039 00d2 DBB2     		uxtb	r3, r3
 1040 00d4 43F01003 		orr	r3, r3, #16
 1041 00d8 DBB2     		uxtb	r3, r3
 1042 00da 1370     		strb	r3, [r2]
 1043              	.LBE3:
 525:.\Generated_Source\PSoC5/cyfitter_cfg.c **** 	}
 526:.\Generated_Source\PSoC5/cyfitter_cfg.c **** 
 527:.\Generated_Source\PSoC5/cyfitter_cfg.c **** 
 528:.\Generated_Source\PSoC5/cyfitter_cfg.c **** 	/* Perform second pass device configuration. These items must be configured in specific order afte
 529:.\Generated_Source\PSoC5/cyfitter_cfg.c **** 	CYCONFIGCPY((void CYFAR *)(CYREG_PRT0_DM0), (const void CYFAR *)(BS_IOPINS0_0_VAL), 8u);
 1044              		.loc 1 529 0
 1045 00dc 2F4B     		ldr	r3, .L37+8
 1046 00de 03F19043 		add	r3, r3, #1207959552
 1047 00e2 03F58353 		add	r3, r3, #4192
 1048 00e6 3948     		ldr	r0, .L37+56
 1049 00e8 1946     		mov	r1, r3
 1050 00ea 0822     		movs	r2, #8
 1051 00ec FFF7FEFF 		bl	CYCONFIGCPY
 530:.\Generated_Source\PSoC5/cyfitter_cfg.c **** 	CYCONFIGCPY((void CYFAR *)(CYREG_PRT12_DM0), (const void CYFAR *)(BS_IOPINS0_7_VAL), 8u);
 1052              		.loc 1 530 0
 1053 00f0 2A4A     		ldr	r2, .L37+8
 1054 00f2 374B     		ldr	r3, .L37+60
 1055 00f4 1344     		add	r3, r3, r2
 1056 00f6 3748     		ldr	r0, .L37+64
 1057 00f8 1946     		mov	r1, r3
 1058 00fa 0822     		movs	r2, #8
ARM GAS  C:\Users\Robert\AppData\Local\Temp\cclbLtji.s 			page 29


 1059 00fc FFF7FEFF 		bl	CYCONFIGCPY
 531:.\Generated_Source\PSoC5/cyfitter_cfg.c **** 	CYCONFIGCPY((void CYFAR *)(CYREG_PRT15_DR), (const void CYFAR *)(BS_IOPINS0_8_VAL), 10u);
 1060              		.loc 1 531 0
 1061 0100 264A     		ldr	r2, .L37+8
 1062 0102 354B     		ldr	r3, .L37+68
 1063 0104 1344     		add	r3, r3, r2
 1064 0106 3548     		ldr	r0, .L37+72
 1065 0108 1946     		mov	r1, r3
 1066 010a 0A22     		movs	r2, #10
 1067 010c FFF7FEFF 		bl	CYCONFIGCPY
 532:.\Generated_Source\PSoC5/cyfitter_cfg.c **** 	CYCONFIGCPY((void CYFAR *)(CYREG_PRT2_DM0), (const void CYFAR *)(BS_IOPINS0_2_VAL), 8u);
 1068              		.loc 1 532 0
 1069 0110 224A     		ldr	r2, .L37+8
 1070 0112 334B     		ldr	r3, .L37+76
 1071 0114 1344     		add	r3, r3, r2
 1072 0116 3348     		ldr	r0, .L37+80
 1073 0118 1946     		mov	r1, r3
 1074 011a 0822     		movs	r2, #8
 1075 011c FFF7FEFF 		bl	CYCONFIGCPY
 533:.\Generated_Source\PSoC5/cyfitter_cfg.c **** 	CYCONFIGCPY((void CYFAR *)(CYREG_PRT3_DM0), (const void CYFAR *)(BS_IOPINS0_3_VAL), 8u);
 1076              		.loc 1 533 0
 1077 0120 1E4A     		ldr	r2, .L37+8
 1078 0122 314B     		ldr	r3, .L37+84
 1079 0124 1344     		add	r3, r3, r2
 1080 0126 3148     		ldr	r0, .L37+88
 1081 0128 1946     		mov	r1, r3
 1082 012a 0822     		movs	r2, #8
 1083 012c FFF7FEFF 		bl	CYCONFIGCPY
 534:.\Generated_Source\PSoC5/cyfitter_cfg.c **** 	CYCONFIGCPY((void CYFAR *)(CYREG_PRT4_DM0), (const void CYFAR *)(BS_IOPINS0_4_VAL), 8u);
 1084              		.loc 1 534 0
 1085 0130 1A4A     		ldr	r2, .L37+8
 1086 0132 2F4B     		ldr	r3, .L37+92
 1087 0134 1344     		add	r3, r3, r2
 1088 0136 2F48     		ldr	r0, .L37+96
 1089 0138 1946     		mov	r1, r3
 1090 013a 0822     		movs	r2, #8
 1091 013c FFF7FEFF 		bl	CYCONFIGCPY
 535:.\Generated_Source\PSoC5/cyfitter_cfg.c **** 	CYCONFIGCPY((void CYFAR *)(CYREG_PRT5_DM0), (const void CYFAR *)(BS_IOPINS0_5_VAL), 8u);
 1092              		.loc 1 535 0
 1093 0140 164A     		ldr	r2, .L37+8
 1094 0142 2D4B     		ldr	r3, .L37+100
 1095 0144 1344     		add	r3, r3, r2
 1096 0146 2D48     		ldr	r0, .L37+104
 1097 0148 1946     		mov	r1, r3
 1098 014a 0822     		movs	r2, #8
 1099 014c FFF7FEFF 		bl	CYCONFIGCPY
 536:.\Generated_Source\PSoC5/cyfitter_cfg.c **** 	CYCONFIGCPY((void CYFAR *)(CYREG_PRT6_DM0), (const void CYFAR *)(BS_IOPINS0_6_VAL), 8u);
 1100              		.loc 1 536 0
 1101 0150 124A     		ldr	r2, .L37+8
 1102 0152 2B4B     		ldr	r3, .L37+108
 1103 0154 1344     		add	r3, r3, r2
 1104 0156 2B48     		ldr	r0, .L37+112
 1105 0158 1946     		mov	r1, r3
 1106 015a 0822     		movs	r2, #8
 1107 015c FFF7FEFF 		bl	CYCONFIGCPY
 537:.\Generated_Source\PSoC5/cyfitter_cfg.c **** 	/* Switch Boost to the precision bandgap reference from its internal reference */
 538:.\Generated_Source\PSoC5/cyfitter_cfg.c **** 	CY_SET_REG8((void CYXDATA *)CYREG_BOOST_CR2, (CY_GET_REG8((void CYXDATA *)CYREG_BOOST_CR2) | 0x08u
ARM GAS  C:\Users\Robert\AppData\Local\Temp\cclbLtji.s 			page 30


 1108              		.loc 1 538 0
 1109 0160 294A     		ldr	r2, .L37+116
 1110 0162 294B     		ldr	r3, .L37+116
 1111 0164 1B78     		ldrb	r3, [r3]
 1112 0166 DBB2     		uxtb	r3, r3
 1113 0168 43F00803 		orr	r3, r3, #8
 1114 016c DBB2     		uxtb	r3, r3
 1115 016e 1370     		strb	r3, [r2]
 539:.\Generated_Source\PSoC5/cyfitter_cfg.c **** 
 540:.\Generated_Source\PSoC5/cyfitter_cfg.c **** 	/* Set Flash Cycles based on max possible frequency in case a glitch occurs during ClockSetup(). *
 541:.\Generated_Source\PSoC5/cyfitter_cfg.c **** 	CY_SET_XTND_REG8((void CYFAR *)(CYREG_CACHE_CC_CTL), (((CYDEV_INSTRUCT_CACHE_ENABLED) != 0) ? 0x01
 1116              		.loc 1 541 0
 1117 0170 264B     		ldr	r3, .L37+120
 1118 0172 0122     		movs	r2, #1
 1119 0174 1A70     		strb	r2, [r3]
 542:.\Generated_Source\PSoC5/cyfitter_cfg.c **** 	/* Setup clocks based on selections from Clock DWR */
 543:.\Generated_Source\PSoC5/cyfitter_cfg.c **** 	ClockSetup();
 1120              		.loc 1 543 0
 1121 0176 FFF7FEFF 		bl	ClockSetup
 544:.\Generated_Source\PSoC5/cyfitter_cfg.c **** 	/* Set Flash Cycles based on newly configured 24.00MHz Bus Clock. */
 545:.\Generated_Source\PSoC5/cyfitter_cfg.c **** 	CY_SET_XTND_REG8((void CYFAR *)(CYREG_CACHE_CC_CTL), (((CYDEV_INSTRUCT_CACHE_ENABLED) != 0) ? 0x81
 1122              		.loc 1 545 0
 1123 017a 244B     		ldr	r3, .L37+120
 1124 017c 8122     		movs	r2, #129
 1125 017e 1A70     		strb	r2, [r3]
 546:.\Generated_Source\PSoC5/cyfitter_cfg.c **** 
 547:.\Generated_Source\PSoC5/cyfitter_cfg.c **** 	/* Perform basic analog initialization to defaults */
 548:.\Generated_Source\PSoC5/cyfitter_cfg.c **** 	AnalogSetDefault();
 1126              		.loc 1 548 0
 1127 0180 FFF7FEFF 		bl	AnalogSetDefault
 549:.\Generated_Source\PSoC5/cyfitter_cfg.c **** 
 550:.\Generated_Source\PSoC5/cyfitter_cfg.c **** 	/* Configure alternate active mode */
 551:.\Generated_Source\PSoC5/cyfitter_cfg.c **** 	CYCONFIGCPY((void CYFAR *)CYDEV_PM_STBY_BASE, (const void CYFAR *)CYDEV_PM_ACT_BASE, 14u);
 1128              		.loc 1 551 0
 1129 0184 2248     		ldr	r0, .L37+124
 1130 0186 0F49     		ldr	r1, .L37+48
 1131 0188 0E22     		movs	r2, #14
 1132 018a FFF7FEFF 		bl	CYCONFIGCPY
 552:.\Generated_Source\PSoC5/cyfitter_cfg.c **** }
 1133              		.loc 1 552 0
 1134 018e 0837     		adds	r7, r7, #8
 1135              		.cfi_def_cfa_offset 8
 1136 0190 BD46     		mov	sp, r7
 1137              		.cfi_def_cfa_register 13
 1138              		@ sp needed
 1139 0192 80BD     		pop	{r7, pc}
 1140              	.L38:
 1141              		.align	2
 1142              	.L37:
 1143 0194 E8460040 		.word	1073759976
 1144 0198 38000000 		.word	cfg_memset_list.4893
 1145 019c 00000000 		.word	CY_ECC_OFFSET
 1146 01a0 70580040 		.word	1073764464
 1147 01a4 4A580040 		.word	1073764426
 1148 01a8 00760040 		.word	1073772032
 1149 01ac A8100048 		.word	1207963816
 1150 01b0 08760040 		.word	1073772040
ARM GAS  C:\Users\Robert\AppData\Local\Temp\cclbLtji.s 			page 31


 1151 01b4 10760040 		.word	1073772048
 1152 01b8 18760040 		.word	1073772056
 1153 01bc 03500140 		.word	1073827843
 1154 01c0 13500140 		.word	1073827859
 1155 01c4 A0430040 		.word	1073759136
 1156 01c8 C2430040 		.word	1073759170
 1157 01cc 02510040 		.word	1073762562
 1158 01d0 68100048 		.word	1207963752
 1159 01d4 C2510040 		.word	1073762754
 1160 01d8 70100048 		.word	1207963760
 1161 01dc F0510040 		.word	1073762800
 1162 01e0 7C100048 		.word	1207963772
 1163 01e4 22510040 		.word	1073762594
 1164 01e8 84100048 		.word	1207963780
 1165 01ec 32510040 		.word	1073762610
 1166 01f0 8C100048 		.word	1207963788
 1167 01f4 42510040 		.word	1073762626
 1168 01f8 94100048 		.word	1207963796
 1169 01fc 52510040 		.word	1073762642
 1170 0200 9C100048 		.word	1207963804
 1171 0204 62510040 		.word	1073762658
 1172 0208 22430040 		.word	1073759010
 1173 020c 00480040 		.word	1073760256
 1174 0210 B0430040 		.word	1073759152
 1175              		.cfi_endproc
 1176              	.LFE10:
 1177              		.size	cyfitter_cfg, .-cyfitter_cfg
 1178              		.section	.rodata
 1179 0037 00       		.align	2
 1180              		.type	cfg_memset_list.4893, %object
 1181              		.size	cfg_memset_list.4893, 42
 1182              	cfg_memset_list.4893:
 1183 0038 004F0040 		.word	1073762048
 1184 003c 0C00     		.short	12
 1185 003e 10510040 		.4byte	1073762576
 1186 0042 1000     		.short	16
 1187 0044 00000140 		.word	1073807360
 1188 0048 0010     		.short	4096
 1189 004a 00140140 		.4byte	1073812480
 1190 004e 0008     		.short	2048
 1191 0050 00400140 		.word	1073823744
 1192 0054 000A     		.short	2560
 1193 0056 004C0140 		.4byte	1073826816
 1194 005a 0002     		.short	512
 1195 005c 00500140 		.word	1073827840
 1196 0060 2000     		.short	32
 1197 0062 0000     		.text
 1198              	.Letext0:
 1199              		.file 2 "c:\\program files (x86)\\cypress\\psoc creator\\3.3\\psoc creator\\import\\gnu\\arm\\4.9.
 1200              		.file 3 ".\\Generated_Source\\PSoC5\\cytypes.h"