ARM GAS  C:\Users\Robert\AppData\Local\Temp\ccjW3bki.s 			page 1


   1              		.syntax unified
   2              		.cpu cortex-m3
   3              		.fpu softvfp
   4              		.eabi_attribute 20, 1
   5              		.eabi_attribute 21, 1
   6              		.eabi_attribute 23, 3
   7              		.eabi_attribute 24, 1
   8              		.eabi_attribute 25, 1
   9              		.eabi_attribute 26, 1
  10              		.eabi_attribute 30, 6
  11              		.eabi_attribute 34, 1
  12              		.eabi_attribute 18, 4
  13              		.thumb
  14              		.file	"EEPROM.c"
  15              		.text
  16              	.Ltext0:
  17              		.cfi_sections	.debug_frame
  18              		.section	.text.EEPROM_Enable,"ax",%progbits
  19              		.align	2
  20              		.global	EEPROM_Enable
  21              		.thumb
  22              		.thumb_func
  23              		.type	EEPROM_Enable, %function
  24              	EEPROM_Enable:
  25              	.LFB0:
  26              		.file 1 ".\\Generated_Source\\PSoC5\\EEPROM.c"
   1:.\Generated_Source\PSoC5/EEPROM.c **** /*******************************************************************************
   2:.\Generated_Source\PSoC5/EEPROM.c **** * File Name: EEPROM.c
   3:.\Generated_Source\PSoC5/EEPROM.c **** * Version 2.10
   4:.\Generated_Source\PSoC5/EEPROM.c **** *
   5:.\Generated_Source\PSoC5/EEPROM.c **** * Description:
   6:.\Generated_Source\PSoC5/EEPROM.c **** *  Provides the source code to the API for the EEPROM component.
   7:.\Generated_Source\PSoC5/EEPROM.c **** *
   8:.\Generated_Source\PSoC5/EEPROM.c **** ********************************************************************************
   9:.\Generated_Source\PSoC5/EEPROM.c **** * Copyright 2008-2012, Cypress Semiconductor Corporation.  All rights reserved.
  10:.\Generated_Source\PSoC5/EEPROM.c **** * You may use this file only in accordance with the license, terms, conditions,
  11:.\Generated_Source\PSoC5/EEPROM.c **** * disclaimers, and limitations in the end user license agreement accompanying
  12:.\Generated_Source\PSoC5/EEPROM.c **** * the software package with which this file was provided.
  13:.\Generated_Source\PSoC5/EEPROM.c **** *******************************************************************************/
  14:.\Generated_Source\PSoC5/EEPROM.c **** 
  15:.\Generated_Source\PSoC5/EEPROM.c **** #include "EEPROM.h"
  16:.\Generated_Source\PSoC5/EEPROM.c **** 
  17:.\Generated_Source\PSoC5/EEPROM.c **** 
  18:.\Generated_Source\PSoC5/EEPROM.c **** #if (CY_PSOC3 || CY_PSOC5LP)
  19:.\Generated_Source\PSoC5/EEPROM.c **** 
  20:.\Generated_Source\PSoC5/EEPROM.c ****     /*******************************************************************************
  21:.\Generated_Source\PSoC5/EEPROM.c ****     * Function Name: EEPROM_Enable
  22:.\Generated_Source\PSoC5/EEPROM.c ****     ********************************************************************************
  23:.\Generated_Source\PSoC5/EEPROM.c ****     *
  24:.\Generated_Source\PSoC5/EEPROM.c ****     * Summary:
  25:.\Generated_Source\PSoC5/EEPROM.c ****     *  Enable the EEPROM.
  26:.\Generated_Source\PSoC5/EEPROM.c ****     *
  27:.\Generated_Source\PSoC5/EEPROM.c ****     * Parameters:
  28:.\Generated_Source\PSoC5/EEPROM.c ****     *  None
  29:.\Generated_Source\PSoC5/EEPROM.c ****     *
  30:.\Generated_Source\PSoC5/EEPROM.c ****     * Return:
  31:.\Generated_Source\PSoC5/EEPROM.c ****     *  None
ARM GAS  C:\Users\Robert\AppData\Local\Temp\ccjW3bki.s 			page 2


  32:.\Generated_Source\PSoC5/EEPROM.c ****     *
  33:.\Generated_Source\PSoC5/EEPROM.c ****     *******************************************************************************/
  34:.\Generated_Source\PSoC5/EEPROM.c ****     void EEPROM_Enable(void) 
  35:.\Generated_Source\PSoC5/EEPROM.c ****     {
  27              		.loc 1 35 0
  28              		.cfi_startproc
  29              		@ args = 0, pretend = 0, frame = 0
  30              		@ frame_needed = 1, uses_anonymous_args = 0
  31 0000 80B5     		push	{r7, lr}
  32              		.cfi_def_cfa_offset 8
  33              		.cfi_offset 7, -8
  34              		.cfi_offset 14, -4
  35 0002 00AF     		add	r7, sp, #0
  36              		.cfi_def_cfa_register 7
  36:.\Generated_Source\PSoC5/EEPROM.c ****         CyEEPROM_Start();
  37              		.loc 1 36 0
  38 0004 FFF7FEFF 		bl	CyEEPROM_Start
  37:.\Generated_Source\PSoC5/EEPROM.c ****     }
  39              		.loc 1 37 0
  40 0008 80BD     		pop	{r7, pc}
  41              		.cfi_endproc
  42              	.LFE0:
  43              		.size	EEPROM_Enable, .-EEPROM_Enable
  44 000a 00BF     		.section	.text.EEPROM_Start,"ax",%progbits
  45              		.align	2
  46              		.global	EEPROM_Start
  47              		.thumb
  48              		.thumb_func
  49              		.type	EEPROM_Start, %function
  50              	EEPROM_Start:
  51              	.LFB1:
  38:.\Generated_Source\PSoC5/EEPROM.c **** 
  39:.\Generated_Source\PSoC5/EEPROM.c **** 
  40:.\Generated_Source\PSoC5/EEPROM.c ****     /*******************************************************************************
  41:.\Generated_Source\PSoC5/EEPROM.c ****     * Function Name: EEPROM_Start
  42:.\Generated_Source\PSoC5/EEPROM.c ****     ********************************************************************************
  43:.\Generated_Source\PSoC5/EEPROM.c ****     *
  44:.\Generated_Source\PSoC5/EEPROM.c ****     * Summary:
  45:.\Generated_Source\PSoC5/EEPROM.c ****     *  Starts EEPROM.
  46:.\Generated_Source\PSoC5/EEPROM.c ****     *
  47:.\Generated_Source\PSoC5/EEPROM.c ****     * Parameters:
  48:.\Generated_Source\PSoC5/EEPROM.c ****     *  None
  49:.\Generated_Source\PSoC5/EEPROM.c ****     *
  50:.\Generated_Source\PSoC5/EEPROM.c ****     * Return:
  51:.\Generated_Source\PSoC5/EEPROM.c ****     *  None
  52:.\Generated_Source\PSoC5/EEPROM.c ****     *
  53:.\Generated_Source\PSoC5/EEPROM.c ****     *******************************************************************************/
  54:.\Generated_Source\PSoC5/EEPROM.c ****     void EEPROM_Start(void) 
  55:.\Generated_Source\PSoC5/EEPROM.c ****     {
  52              		.loc 1 55 0
  53              		.cfi_startproc
  54              		@ args = 0, pretend = 0, frame = 0
  55              		@ frame_needed = 1, uses_anonymous_args = 0
  56 0000 80B5     		push	{r7, lr}
  57              		.cfi_def_cfa_offset 8
  58              		.cfi_offset 7, -8
  59              		.cfi_offset 14, -4
ARM GAS  C:\Users\Robert\AppData\Local\Temp\ccjW3bki.s 			page 3


  60 0002 00AF     		add	r7, sp, #0
  61              		.cfi_def_cfa_register 7
  56:.\Generated_Source\PSoC5/EEPROM.c ****         /* Enable the EEPROM */
  57:.\Generated_Source\PSoC5/EEPROM.c ****         EEPROM_Enable();
  62              		.loc 1 57 0
  63 0004 FFF7FEFF 		bl	EEPROM_Enable
  58:.\Generated_Source\PSoC5/EEPROM.c ****     }
  64              		.loc 1 58 0
  65 0008 80BD     		pop	{r7, pc}
  66              		.cfi_endproc
  67              	.LFE1:
  68              		.size	EEPROM_Start, .-EEPROM_Start
  69 000a 00BF     		.section	.text.EEPROM_Stop,"ax",%progbits
  70              		.align	2
  71              		.global	EEPROM_Stop
  72              		.thumb
  73              		.thumb_func
  74              		.type	EEPROM_Stop, %function
  75              	EEPROM_Stop:
  76              	.LFB2:
  59:.\Generated_Source\PSoC5/EEPROM.c **** 
  60:.\Generated_Source\PSoC5/EEPROM.c **** 
  61:.\Generated_Source\PSoC5/EEPROM.c ****     /*******************************************************************************
  62:.\Generated_Source\PSoC5/EEPROM.c ****     * Function Name: EEPROM_Stop
  63:.\Generated_Source\PSoC5/EEPROM.c ****     ********************************************************************************
  64:.\Generated_Source\PSoC5/EEPROM.c ****     *
  65:.\Generated_Source\PSoC5/EEPROM.c ****     * Summary:
  66:.\Generated_Source\PSoC5/EEPROM.c ****     *  Stops and powers down EEPROM.
  67:.\Generated_Source\PSoC5/EEPROM.c ****     *
  68:.\Generated_Source\PSoC5/EEPROM.c ****     * Parameters:
  69:.\Generated_Source\PSoC5/EEPROM.c ****     *  None
  70:.\Generated_Source\PSoC5/EEPROM.c ****     *
  71:.\Generated_Source\PSoC5/EEPROM.c ****     * Return:
  72:.\Generated_Source\PSoC5/EEPROM.c ****     *  None
  73:.\Generated_Source\PSoC5/EEPROM.c ****     *
  74:.\Generated_Source\PSoC5/EEPROM.c ****     *******************************************************************************/
  75:.\Generated_Source\PSoC5/EEPROM.c ****     void EEPROM_Stop (void) 
  76:.\Generated_Source\PSoC5/EEPROM.c ****     {
  77              		.loc 1 76 0
  78              		.cfi_startproc
  79              		@ args = 0, pretend = 0, frame = 0
  80              		@ frame_needed = 1, uses_anonymous_args = 0
  81 0000 80B5     		push	{r7, lr}
  82              		.cfi_def_cfa_offset 8
  83              		.cfi_offset 7, -8
  84              		.cfi_offset 14, -4
  85 0002 00AF     		add	r7, sp, #0
  86              		.cfi_def_cfa_register 7
  77:.\Generated_Source\PSoC5/EEPROM.c ****         /* Disable EEPROM */
  78:.\Generated_Source\PSoC5/EEPROM.c ****         CyEEPROM_Stop();
  87              		.loc 1 78 0
  88 0004 FFF7FEFF 		bl	CyEEPROM_Stop
  79:.\Generated_Source\PSoC5/EEPROM.c ****     }
  89              		.loc 1 79 0
  90 0008 80BD     		pop	{r7, pc}
  91              		.cfi_endproc
  92              	.LFE2:
ARM GAS  C:\Users\Robert\AppData\Local\Temp\ccjW3bki.s 			page 4


  93              		.size	EEPROM_Stop, .-EEPROM_Stop
  94 000a 00BF     		.section	.text.EEPROM_EraseSector,"ax",%progbits
  95              		.align	2
  96              		.global	EEPROM_EraseSector
  97              		.thumb
  98              		.thumb_func
  99              		.type	EEPROM_EraseSector, %function
 100              	EEPROM_EraseSector:
 101              	.LFB3:
  80:.\Generated_Source\PSoC5/EEPROM.c **** 
  81:.\Generated_Source\PSoC5/EEPROM.c **** #endif /* (CY_PSOC3 || CY_PSOC5LP) */
  82:.\Generated_Source\PSoC5/EEPROM.c **** 
  83:.\Generated_Source\PSoC5/EEPROM.c **** 
  84:.\Generated_Source\PSoC5/EEPROM.c **** /*******************************************************************************
  85:.\Generated_Source\PSoC5/EEPROM.c **** * Function Name: EEPROM_EraseSector
  86:.\Generated_Source\PSoC5/EEPROM.c **** ********************************************************************************
  87:.\Generated_Source\PSoC5/EEPROM.c **** *
  88:.\Generated_Source\PSoC5/EEPROM.c **** * Summary:
  89:.\Generated_Source\PSoC5/EEPROM.c **** *  Erases a sector of memory. This function blocks until the operation is
  90:.\Generated_Source\PSoC5/EEPROM.c **** *  complete.
  91:.\Generated_Source\PSoC5/EEPROM.c **** *
  92:.\Generated_Source\PSoC5/EEPROM.c **** * Parameters:
  93:.\Generated_Source\PSoC5/EEPROM.c **** *  sectorNumber:  Sector number to erase.
  94:.\Generated_Source\PSoC5/EEPROM.c **** *
  95:.\Generated_Source\PSoC5/EEPROM.c **** * Return:
  96:.\Generated_Source\PSoC5/EEPROM.c **** *  CYRET_SUCCESS, if the operation was successful.
  97:.\Generated_Source\PSoC5/EEPROM.c **** *  CYRET_BAD_PARAM, if the parameter sectorNumber out of range.
  98:.\Generated_Source\PSoC5/EEPROM.c **** *  CYRET_LOCKED, if the spc is being used.
  99:.\Generated_Source\PSoC5/EEPROM.c **** *  CYRET_UNKNOWN, if there was an SPC error.
 100:.\Generated_Source\PSoC5/EEPROM.c **** *
 101:.\Generated_Source\PSoC5/EEPROM.c **** *******************************************************************************/
 102:.\Generated_Source\PSoC5/EEPROM.c **** cystatus EEPROM_EraseSector(uint8 sectorNumber) 
 103:.\Generated_Source\PSoC5/EEPROM.c **** {
 102              		.loc 1 103 0
 103              		.cfi_startproc
 104              		@ args = 0, pretend = 0, frame = 16
 105              		@ frame_needed = 1, uses_anonymous_args = 0
 106 0000 80B5     		push	{r7, lr}
 107              		.cfi_def_cfa_offset 8
 108              		.cfi_offset 7, -8
 109              		.cfi_offset 14, -4
 110 0002 84B0     		sub	sp, sp, #16
 111              		.cfi_def_cfa_offset 24
 112 0004 00AF     		add	r7, sp, #0
 113              		.cfi_def_cfa_register 7
 114 0006 0346     		mov	r3, r0
 115 0008 FB71     		strb	r3, [r7, #7]
 104:.\Generated_Source\PSoC5/EEPROM.c ****     cystatus status;
 105:.\Generated_Source\PSoC5/EEPROM.c **** 
 106:.\Generated_Source\PSoC5/EEPROM.c ****     /* Start the SPC */
 107:.\Generated_Source\PSoC5/EEPROM.c ****     CySpcStart();
 116              		.loc 1 107 0
 117 000a FFF7FEFF 		bl	CySpcStart
 108:.\Generated_Source\PSoC5/EEPROM.c **** 
 109:.\Generated_Source\PSoC5/EEPROM.c ****     if(sectorNumber < (uint8) CY_EEPROM_NUMBER_ARRAYS)
 118              		.loc 1 109 0
 119 000e FB79     		ldrb	r3, [r7, #7]	@ zero_extendqisi2
ARM GAS  C:\Users\Robert\AppData\Local\Temp\ccjW3bki.s 			page 5


 120 0010 012B     		cmp	r3, #1
 121 0012 31D8     		bhi	.L5
 110:.\Generated_Source\PSoC5/EEPROM.c ****     {
 111:.\Generated_Source\PSoC5/EEPROM.c ****         /* See if we can get the SPC. */
 112:.\Generated_Source\PSoC5/EEPROM.c ****         if(CySpcLock() == CYRET_SUCCESS)
 122              		.loc 1 112 0
 123 0014 FFF7FEFF 		bl	CySpcLock
 124 0018 0346     		mov	r3, r0
 125 001a 002B     		cmp	r3, #0
 126 001c 29D1     		bne	.L6
 113:.\Generated_Source\PSoC5/EEPROM.c ****         {
 114:.\Generated_Source\PSoC5/EEPROM.c ****             #if(CY_PSOC5A)
 115:.\Generated_Source\PSoC5/EEPROM.c **** 
 116:.\Generated_Source\PSoC5/EEPROM.c ****                 /* Plan for failure */
 117:.\Generated_Source\PSoC5/EEPROM.c ****                 status = CYRET_UNKNOWN;
 118:.\Generated_Source\PSoC5/EEPROM.c **** 
 119:.\Generated_Source\PSoC5/EEPROM.c ****                 /* Command to load a row of data */
 120:.\Generated_Source\PSoC5/EEPROM.c ****                 if(CySpcLoadRow(CY_SPC_FIRST_EE_ARRAYID, 0, CYDEV_EEPROM_ROW_SIZE) == CYRET_STARTED
 121:.\Generated_Source\PSoC5/EEPROM.c ****                 {
 122:.\Generated_Source\PSoC5/EEPROM.c ****                     while(CY_SPC_BUSY)
 123:.\Generated_Source\PSoC5/EEPROM.c ****                     {
 124:.\Generated_Source\PSoC5/EEPROM.c ****                         /* Wait until SPC becomes idle */
 125:.\Generated_Source\PSoC5/EEPROM.c ****                     }
 126:.\Generated_Source\PSoC5/EEPROM.c **** 
 127:.\Generated_Source\PSoC5/EEPROM.c ****                     /* SPC is idle now */
 128:.\Generated_Source\PSoC5/EEPROM.c ****                     if(CY_SPC_STATUS_SUCCESS == CY_SPC_READ_STATUS)
 129:.\Generated_Source\PSoC5/EEPROM.c ****                     {
 130:.\Generated_Source\PSoC5/EEPROM.c ****                         status = CYRET_SUCCESS;
 131:.\Generated_Source\PSoC5/EEPROM.c ****                     }
 132:.\Generated_Source\PSoC5/EEPROM.c ****                 }
 133:.\Generated_Source\PSoC5/EEPROM.c **** 
 134:.\Generated_Source\PSoC5/EEPROM.c ****                 /* Command to erase a sector */
 135:.\Generated_Source\PSoC5/EEPROM.c ****                 if(status == CYRET_SUCCESS)
 136:.\Generated_Source\PSoC5/EEPROM.c ****                 {
 137:.\Generated_Source\PSoC5/EEPROM.c **** 
 138:.\Generated_Source\PSoC5/EEPROM.c ****             #endif /* (CY_PSOC5A) */
 139:.\Generated_Source\PSoC5/EEPROM.c **** 
 140:.\Generated_Source\PSoC5/EEPROM.c ****                     if(CySpcEraseSector(CY_SPC_FIRST_EE_ARRAYID, sectorNumber) == CYRET_STARTED)
 127              		.loc 1 140 0
 128 001e FB79     		ldrb	r3, [r7, #7]	@ zero_extendqisi2
 129 0020 4020     		movs	r0, #64
 130 0022 1946     		mov	r1, r3
 131 0024 FFF7FEFF 		bl	CySpcEraseSector
 132 0028 0346     		mov	r3, r0
 133 002a 072B     		cmp	r3, #7
 134 002c 1BD1     		bne	.L7
 141:.\Generated_Source\PSoC5/EEPROM.c ****                     {
 142:.\Generated_Source\PSoC5/EEPROM.c ****                         /* Plan for failure */
 143:.\Generated_Source\PSoC5/EEPROM.c ****                         status = CYRET_UNKNOWN;
 135              		.loc 1 143 0
 136 002e 4FF0FF33 		mov	r3, #-1
 137 0032 FB60     		str	r3, [r7, #12]
 144:.\Generated_Source\PSoC5/EEPROM.c **** 
 145:.\Generated_Source\PSoC5/EEPROM.c ****                         while(CY_SPC_BUSY)
 138              		.loc 1 145 0
 139 0034 00BF     		nop
 140              	.L8:
ARM GAS  C:\Users\Robert\AppData\Local\Temp\ccjW3bki.s 			page 6


 141              		.loc 1 145 0 is_stmt 0 discriminator 1
 142 0036 144B     		ldr	r3, .L14
 143 0038 1B78     		ldrb	r3, [r3]
 144 003a DBB2     		uxtb	r3, r3
 145 003c 03F00203 		and	r3, r3, #2
 146 0040 002B     		cmp	r3, #0
 147 0042 F8D0     		beq	.L8
 146:.\Generated_Source\PSoC5/EEPROM.c ****                         {
 147:.\Generated_Source\PSoC5/EEPROM.c ****                             /* Wait until SPC becomes idle */
 148:.\Generated_Source\PSoC5/EEPROM.c ****                         }
 149:.\Generated_Source\PSoC5/EEPROM.c **** 
 150:.\Generated_Source\PSoC5/EEPROM.c ****                         /* SPC is idle now */
 151:.\Generated_Source\PSoC5/EEPROM.c ****                         if(CY_SPC_STATUS_SUCCESS == CY_SPC_READ_STATUS)
 148              		.loc 1 151 0 is_stmt 1
 149 0044 104B     		ldr	r3, .L14
 150 0046 1B78     		ldrb	r3, [r3]
 151 0048 DBB2     		uxtb	r3, r3
 152 004a 03F00203 		and	r3, r3, #2
 153 004e 002B     		cmp	r3, #0
 154 0050 0CD0     		beq	.L10
 155              		.loc 1 151 0 is_stmt 0 discriminator 1
 156 0052 0D4B     		ldr	r3, .L14
 157 0054 1B78     		ldrb	r3, [r3]
 158 0056 DBB2     		uxtb	r3, r3
 159 0058 9B08     		lsrs	r3, r3, #2
 160 005a DBB2     		uxtb	r3, r3
 161 005c 002B     		cmp	r3, #0
 162 005e 05D1     		bne	.L10
 152:.\Generated_Source\PSoC5/EEPROM.c ****                         {
 153:.\Generated_Source\PSoC5/EEPROM.c ****                             status = CYRET_SUCCESS;
 163              		.loc 1 153 0 is_stmt 1
 164 0060 0023     		movs	r3, #0
 165 0062 FB60     		str	r3, [r7, #12]
 166 0064 02E0     		b	.L10
 167              	.L7:
 154:.\Generated_Source\PSoC5/EEPROM.c ****                         }
 155:.\Generated_Source\PSoC5/EEPROM.c ****                     }
 156:.\Generated_Source\PSoC5/EEPROM.c ****                     else
 157:.\Generated_Source\PSoC5/EEPROM.c ****                     {
 158:.\Generated_Source\PSoC5/EEPROM.c ****                         status = CYRET_UNKNOWN;
 168              		.loc 1 158 0
 169 0066 4FF0FF33 		mov	r3, #-1
 170 006a FB60     		str	r3, [r7, #12]
 171              	.L10:
 159:.\Generated_Source\PSoC5/EEPROM.c ****                     }
 160:.\Generated_Source\PSoC5/EEPROM.c **** 
 161:.\Generated_Source\PSoC5/EEPROM.c ****             #if(CY_PSOC5A)
 162:.\Generated_Source\PSoC5/EEPROM.c **** 
 163:.\Generated_Source\PSoC5/EEPROM.c ****                 }
 164:.\Generated_Source\PSoC5/EEPROM.c ****                 else
 165:.\Generated_Source\PSoC5/EEPROM.c ****                 {
 166:.\Generated_Source\PSoC5/EEPROM.c ****                     status = CYRET_UNKNOWN;
 167:.\Generated_Source\PSoC5/EEPROM.c ****                 }
 168:.\Generated_Source\PSoC5/EEPROM.c **** 
 169:.\Generated_Source\PSoC5/EEPROM.c ****             #endif /* (CY_PSOC5A) */
 170:.\Generated_Source\PSoC5/EEPROM.c **** 
 171:.\Generated_Source\PSoC5/EEPROM.c ****                 /* Unlock the SPC so someone else can use it. */
ARM GAS  C:\Users\Robert\AppData\Local\Temp\ccjW3bki.s 			page 7


 172:.\Generated_Source\PSoC5/EEPROM.c ****                 CySpcUnlock();
 172              		.loc 1 172 0
 173 006c FFF7FEFF 		bl	CySpcUnlock
 174 0070 04E0     		b	.L12
 175              	.L6:
 173:.\Generated_Source\PSoC5/EEPROM.c ****         }
 174:.\Generated_Source\PSoC5/EEPROM.c ****         else
 175:.\Generated_Source\PSoC5/EEPROM.c ****         {
 176:.\Generated_Source\PSoC5/EEPROM.c ****             status = CYRET_LOCKED;
 176              		.loc 1 176 0
 177 0072 0423     		movs	r3, #4
 178 0074 FB60     		str	r3, [r7, #12]
 179 0076 01E0     		b	.L12
 180              	.L5:
 177:.\Generated_Source\PSoC5/EEPROM.c ****         }
 178:.\Generated_Source\PSoC5/EEPROM.c ****     }
 179:.\Generated_Source\PSoC5/EEPROM.c ****     else
 180:.\Generated_Source\PSoC5/EEPROM.c ****     {
 181:.\Generated_Source\PSoC5/EEPROM.c ****         status = CYRET_BAD_PARAM;
 181              		.loc 1 181 0
 182 0078 0123     		movs	r3, #1
 183 007a FB60     		str	r3, [r7, #12]
 184              	.L12:
 182:.\Generated_Source\PSoC5/EEPROM.c ****     }
 183:.\Generated_Source\PSoC5/EEPROM.c **** 
 184:.\Generated_Source\PSoC5/EEPROM.c ****     return(status);
 185              		.loc 1 184 0
 186 007c FB68     		ldr	r3, [r7, #12]
 185:.\Generated_Source\PSoC5/EEPROM.c **** }
 187              		.loc 1 185 0
 188 007e 1846     		mov	r0, r3
 189 0080 1037     		adds	r7, r7, #16
 190              		.cfi_def_cfa_offset 8
 191 0082 BD46     		mov	sp, r7
 192              		.cfi_def_cfa_register 13
 193              		@ sp needed
 194 0084 80BD     		pop	{r7, pc}
 195              	.L15:
 196 0086 00BF     		.align	2
 197              	.L14:
 198 0088 22470040 		.word	1073760034
 199              		.cfi_endproc
 200              	.LFE3:
 201              		.size	EEPROM_EraseSector, .-EEPROM_EraseSector
 202              		.section	.text.EEPROM_Write,"ax",%progbits
 203              		.align	2
 204              		.global	EEPROM_Write
 205              		.thumb
 206              		.thumb_func
 207              		.type	EEPROM_Write, %function
 208              	EEPROM_Write:
 209              	.LFB4:
 186:.\Generated_Source\PSoC5/EEPROM.c **** 
 187:.\Generated_Source\PSoC5/EEPROM.c **** 
 188:.\Generated_Source\PSoC5/EEPROM.c **** /*******************************************************************************
 189:.\Generated_Source\PSoC5/EEPROM.c **** * Function Name: EEPROM_Write
 190:.\Generated_Source\PSoC5/EEPROM.c **** ********************************************************************************
ARM GAS  C:\Users\Robert\AppData\Local\Temp\ccjW3bki.s 			page 8


 191:.\Generated_Source\PSoC5/EEPROM.c **** *
 192:.\Generated_Source\PSoC5/EEPROM.c **** * Summary:
 193:.\Generated_Source\PSoC5/EEPROM.c **** *  Writes a row, CYDEV_EEPROM_ROW_SIZE of data to the EEPROM. This is
 194:.\Generated_Source\PSoC5/EEPROM.c **** *  a blocking call. It will not return until the function succeeds or fails.
 195:.\Generated_Source\PSoC5/EEPROM.c **** *
 196:.\Generated_Source\PSoC5/EEPROM.c **** * Parameters:
 197:.\Generated_Source\PSoC5/EEPROM.c **** *  rowData:  Address of the data to write to the EEPROM.
 198:.\Generated_Source\PSoC5/EEPROM.c **** *  rowNumber:  EEPROM row number to program.
 199:.\Generated_Source\PSoC5/EEPROM.c **** *
 200:.\Generated_Source\PSoC5/EEPROM.c **** * Return:
 201:.\Generated_Source\PSoC5/EEPROM.c **** *  CYRET_SUCCESS, if the operation was successful.
 202:.\Generated_Source\PSoC5/EEPROM.c **** *  CYRET_BAD_PARAM, if the parameter rowNumber out of range.
 203:.\Generated_Source\PSoC5/EEPROM.c **** *  CYRET_LOCKED, if the spc is being used.
 204:.\Generated_Source\PSoC5/EEPROM.c **** *  CYRET_UNKNOWN, if there was an SPC error.
 205:.\Generated_Source\PSoC5/EEPROM.c **** *
 206:.\Generated_Source\PSoC5/EEPROM.c **** *******************************************************************************/
 207:.\Generated_Source\PSoC5/EEPROM.c **** cystatus EEPROM_Write(const uint8 * rowData, uint8 rowNumber) 
 208:.\Generated_Source\PSoC5/EEPROM.c **** {
 210              		.loc 1 208 0
 211              		.cfi_startproc
 212              		@ args = 0, pretend = 0, frame = 16
 213              		@ frame_needed = 1, uses_anonymous_args = 0
 214 0000 80B5     		push	{r7, lr}
 215              		.cfi_def_cfa_offset 8
 216              		.cfi_offset 7, -8
 217              		.cfi_offset 14, -4
 218 0002 84B0     		sub	sp, sp, #16
 219              		.cfi_def_cfa_offset 24
 220 0004 00AF     		add	r7, sp, #0
 221              		.cfi_def_cfa_register 7
 222 0006 7860     		str	r0, [r7, #4]
 223 0008 0B46     		mov	r3, r1
 224 000a FB70     		strb	r3, [r7, #3]
 209:.\Generated_Source\PSoC5/EEPROM.c ****     cystatus status;
 210:.\Generated_Source\PSoC5/EEPROM.c **** 
 211:.\Generated_Source\PSoC5/EEPROM.c ****     /* Start the SPC */
 212:.\Generated_Source\PSoC5/EEPROM.c ****     CySpcStart();
 225              		.loc 1 212 0
 226 000c FFF7FEFF 		bl	CySpcStart
 213:.\Generated_Source\PSoC5/EEPROM.c **** 
 214:.\Generated_Source\PSoC5/EEPROM.c ****     if(rowNumber < (uint8) CY_EEPROM_NUMBER_ROWS)
 227              		.loc 1 214 0
 228 0010 FB78     		ldrb	r3, [r7, #3]	@ zero_extendqisi2
 229 0012 5BB2     		sxtb	r3, r3
 230 0014 002B     		cmp	r3, #0
 231 0016 5FDB     		blt	.L17
 215:.\Generated_Source\PSoC5/EEPROM.c ****     {
 216:.\Generated_Source\PSoC5/EEPROM.c ****         /* See if we can get the SPC. */
 217:.\Generated_Source\PSoC5/EEPROM.c ****         if(CySpcLock() == CYRET_SUCCESS)
 232              		.loc 1 217 0
 233 0018 FFF7FEFF 		bl	CySpcLock
 234 001c 0346     		mov	r3, r0
 235 001e 002B     		cmp	r3, #0
 236 0020 57D1     		bne	.L18
 218:.\Generated_Source\PSoC5/EEPROM.c ****         {
 219:.\Generated_Source\PSoC5/EEPROM.c ****             /* Plan for failure */
 220:.\Generated_Source\PSoC5/EEPROM.c ****             status = CYRET_UNKNOWN;
ARM GAS  C:\Users\Robert\AppData\Local\Temp\ccjW3bki.s 			page 9


 237              		.loc 1 220 0
 238 0022 4FF0FF33 		mov	r3, #-1
 239 0026 FB60     		str	r3, [r7, #12]
 221:.\Generated_Source\PSoC5/EEPROM.c **** 
 222:.\Generated_Source\PSoC5/EEPROM.c ****             /* Command to load a row of data */
 223:.\Generated_Source\PSoC5/EEPROM.c ****             if(CySpcLoadRow(CY_SPC_FIRST_EE_ARRAYID, rowData, CYDEV_EEPROM_ROW_SIZE) == CYRET_START
 240              		.loc 1 223 0
 241 0028 4020     		movs	r0, #64
 242 002a 7968     		ldr	r1, [r7, #4]
 243 002c 1022     		movs	r2, #16
 244 002e FFF7FEFF 		bl	CySpcLoadRow
 245 0032 0346     		mov	r3, r0
 246 0034 072B     		cmp	r3, #7
 247 0036 49D1     		bne	.L19
 224:.\Generated_Source\PSoC5/EEPROM.c ****             {
 225:.\Generated_Source\PSoC5/EEPROM.c ****                 while(CY_SPC_BUSY)
 248              		.loc 1 225 0
 249 0038 00BF     		nop
 250              	.L20:
 251              		.loc 1 225 0 is_stmt 0 discriminator 1
 252 003a 2B4B     		ldr	r3, .L30
 253 003c 1B78     		ldrb	r3, [r3]
 254 003e DBB2     		uxtb	r3, r3
 255 0040 03F00203 		and	r3, r3, #2
 256 0044 002B     		cmp	r3, #0
 257 0046 F8D0     		beq	.L20
 226:.\Generated_Source\PSoC5/EEPROM.c ****                 {
 227:.\Generated_Source\PSoC5/EEPROM.c ****                     /* Wait until SPC becomes idle */
 228:.\Generated_Source\PSoC5/EEPROM.c ****                 }
 229:.\Generated_Source\PSoC5/EEPROM.c **** 
 230:.\Generated_Source\PSoC5/EEPROM.c ****                 /* SPC is idle now */
 231:.\Generated_Source\PSoC5/EEPROM.c ****                 if(CY_SPC_STATUS_SUCCESS == CY_SPC_READ_STATUS)
 258              		.loc 1 231 0 is_stmt 1
 259 0048 274B     		ldr	r3, .L30
 260 004a 1B78     		ldrb	r3, [r3]
 261 004c DBB2     		uxtb	r3, r3
 262 004e 03F00203 		and	r3, r3, #2
 263 0052 002B     		cmp	r3, #0
 264 0054 08D0     		beq	.L21
 265              		.loc 1 231 0 is_stmt 0 discriminator 1
 266 0056 244B     		ldr	r3, .L30
 267 0058 1B78     		ldrb	r3, [r3]
 268 005a DBB2     		uxtb	r3, r3
 269 005c 9B08     		lsrs	r3, r3, #2
 270 005e DBB2     		uxtb	r3, r3
 271 0060 002B     		cmp	r3, #0
 272 0062 01D1     		bne	.L21
 232:.\Generated_Source\PSoC5/EEPROM.c ****                 {
 233:.\Generated_Source\PSoC5/EEPROM.c ****                     status = CYRET_SUCCESS;
 273              		.loc 1 233 0 is_stmt 1
 274 0064 0023     		movs	r3, #0
 275 0066 FB60     		str	r3, [r7, #12]
 276              	.L21:
 234:.\Generated_Source\PSoC5/EEPROM.c ****                 }
 235:.\Generated_Source\PSoC5/EEPROM.c **** 
 236:.\Generated_Source\PSoC5/EEPROM.c ****                 /* Command to erase and program the row. */
 237:.\Generated_Source\PSoC5/EEPROM.c ****                 if(status == CYRET_SUCCESS)
ARM GAS  C:\Users\Robert\AppData\Local\Temp\ccjW3bki.s 			page 10


 277              		.loc 1 237 0
 278 0068 FB68     		ldr	r3, [r7, #12]
 279 006a 002B     		cmp	r3, #0
 280 006c 2BD1     		bne	.L22
 238:.\Generated_Source\PSoC5/EEPROM.c ****                 {
 239:.\Generated_Source\PSoC5/EEPROM.c ****                     if(CySpcWriteRow(CY_SPC_FIRST_EE_ARRAYID, (uint16)rowNumber, dieTemperature[0],
 281              		.loc 1 239 0
 282 006e FB78     		ldrb	r3, [r7, #3]	@ zero_extendqisi2
 283 0070 99B2     		uxth	r1, r3
 284 0072 1E4B     		ldr	r3, .L30+4
 285 0074 1A78     		ldrb	r2, [r3]	@ zero_extendqisi2
 286 0076 1D4B     		ldr	r3, .L30+4
 287 0078 5B78     		ldrb	r3, [r3, #1]	@ zero_extendqisi2
 288 007a 4020     		movs	r0, #64
 289 007c FFF7FEFF 		bl	CySpcWriteRow
 290 0080 0346     		mov	r3, r0
 291 0082 072B     		cmp	r3, #7
 292 0084 1BD1     		bne	.L23
 240:.\Generated_Source\PSoC5/EEPROM.c ****                     dieTemperature[1]) == CYRET_STARTED)
 241:.\Generated_Source\PSoC5/EEPROM.c ****                     {
 242:.\Generated_Source\PSoC5/EEPROM.c ****                         /* Plan for failure */
 243:.\Generated_Source\PSoC5/EEPROM.c ****                         status = CYRET_UNKNOWN;
 293              		.loc 1 243 0
 294 0086 4FF0FF33 		mov	r3, #-1
 295 008a FB60     		str	r3, [r7, #12]
 244:.\Generated_Source\PSoC5/EEPROM.c **** 
 245:.\Generated_Source\PSoC5/EEPROM.c ****                         while(CY_SPC_BUSY)
 296              		.loc 1 245 0
 297 008c 00BF     		nop
 298              	.L24:
 299              		.loc 1 245 0 is_stmt 0 discriminator 1
 300 008e 164B     		ldr	r3, .L30
 301 0090 1B78     		ldrb	r3, [r3]
 302 0092 DBB2     		uxtb	r3, r3
 303 0094 03F00203 		and	r3, r3, #2
 304 0098 002B     		cmp	r3, #0
 305 009a F8D0     		beq	.L24
 246:.\Generated_Source\PSoC5/EEPROM.c ****                         {
 247:.\Generated_Source\PSoC5/EEPROM.c ****                             /* Wait until SPC becomes idle */
 248:.\Generated_Source\PSoC5/EEPROM.c ****                         }
 249:.\Generated_Source\PSoC5/EEPROM.c **** 
 250:.\Generated_Source\PSoC5/EEPROM.c ****                         /* SPC is idle now */
 251:.\Generated_Source\PSoC5/EEPROM.c ****                         if(CY_SPC_STATUS_SUCCESS == CY_SPC_READ_STATUS)
 306              		.loc 1 251 0 is_stmt 1
 307 009c 124B     		ldr	r3, .L30
 308 009e 1B78     		ldrb	r3, [r3]
 309 00a0 DBB2     		uxtb	r3, r3
 310 00a2 03F00203 		and	r3, r3, #2
 311 00a6 002B     		cmp	r3, #0
 312 00a8 10D0     		beq	.L19
 313              		.loc 1 251 0 is_stmt 0 discriminator 1
 314 00aa 0F4B     		ldr	r3, .L30
 315 00ac 1B78     		ldrb	r3, [r3]
 316 00ae DBB2     		uxtb	r3, r3
 317 00b0 9B08     		lsrs	r3, r3, #2
 318 00b2 DBB2     		uxtb	r3, r3
 319 00b4 002B     		cmp	r3, #0
ARM GAS  C:\Users\Robert\AppData\Local\Temp\ccjW3bki.s 			page 11


 320 00b6 09D1     		bne	.L19
 252:.\Generated_Source\PSoC5/EEPROM.c ****                         {
 253:.\Generated_Source\PSoC5/EEPROM.c ****                             status = CYRET_SUCCESS;
 321              		.loc 1 253 0 is_stmt 1
 322 00b8 0023     		movs	r3, #0
 323 00ba FB60     		str	r3, [r7, #12]
 324 00bc 06E0     		b	.L19
 325              	.L23:
 254:.\Generated_Source\PSoC5/EEPROM.c ****                         }
 255:.\Generated_Source\PSoC5/EEPROM.c ****                     }
 256:.\Generated_Source\PSoC5/EEPROM.c ****                     else
 257:.\Generated_Source\PSoC5/EEPROM.c ****                     {
 258:.\Generated_Source\PSoC5/EEPROM.c ****                         status = CYRET_UNKNOWN;
 326              		.loc 1 258 0
 327 00be 4FF0FF33 		mov	r3, #-1
 328 00c2 FB60     		str	r3, [r7, #12]
 329 00c4 02E0     		b	.L19
 330              	.L22:
 259:.\Generated_Source\PSoC5/EEPROM.c ****                     }
 260:.\Generated_Source\PSoC5/EEPROM.c ****                 }
 261:.\Generated_Source\PSoC5/EEPROM.c ****                 else
 262:.\Generated_Source\PSoC5/EEPROM.c ****                 {
 263:.\Generated_Source\PSoC5/EEPROM.c ****                     status = CYRET_UNKNOWN;
 331              		.loc 1 263 0
 332 00c6 4FF0FF33 		mov	r3, #-1
 333 00ca FB60     		str	r3, [r7, #12]
 334              	.L19:
 264:.\Generated_Source\PSoC5/EEPROM.c ****                 }
 265:.\Generated_Source\PSoC5/EEPROM.c ****             }
 266:.\Generated_Source\PSoC5/EEPROM.c **** 
 267:.\Generated_Source\PSoC5/EEPROM.c ****             /* Unlock the SPC so someone else can use it. */
 268:.\Generated_Source\PSoC5/EEPROM.c ****             CySpcUnlock();
 335              		.loc 1 268 0
 336 00cc FFF7FEFF 		bl	CySpcUnlock
 337 00d0 04E0     		b	.L28
 338              	.L18:
 269:.\Generated_Source\PSoC5/EEPROM.c ****         }
 270:.\Generated_Source\PSoC5/EEPROM.c ****         else
 271:.\Generated_Source\PSoC5/EEPROM.c ****         {
 272:.\Generated_Source\PSoC5/EEPROM.c ****             status = CYRET_LOCKED;
 339              		.loc 1 272 0
 340 00d2 0423     		movs	r3, #4
 341 00d4 FB60     		str	r3, [r7, #12]
 342 00d6 01E0     		b	.L28
 343              	.L17:
 273:.\Generated_Source\PSoC5/EEPROM.c ****         }
 274:.\Generated_Source\PSoC5/EEPROM.c ****     }
 275:.\Generated_Source\PSoC5/EEPROM.c ****     else
 276:.\Generated_Source\PSoC5/EEPROM.c ****     {
 277:.\Generated_Source\PSoC5/EEPROM.c ****         status = CYRET_BAD_PARAM;
 344              		.loc 1 277 0
 345 00d8 0123     		movs	r3, #1
 346 00da FB60     		str	r3, [r7, #12]
 347              	.L28:
 278:.\Generated_Source\PSoC5/EEPROM.c ****     }
 279:.\Generated_Source\PSoC5/EEPROM.c **** 
 280:.\Generated_Source\PSoC5/EEPROM.c ****     return(status);
ARM GAS  C:\Users\Robert\AppData\Local\Temp\ccjW3bki.s 			page 12


 348              		.loc 1 280 0
 349 00dc FB68     		ldr	r3, [r7, #12]
 281:.\Generated_Source\PSoC5/EEPROM.c **** }
 350              		.loc 1 281 0
 351 00de 1846     		mov	r0, r3
 352 00e0 1037     		adds	r7, r7, #16
 353              		.cfi_def_cfa_offset 8
 354 00e2 BD46     		mov	sp, r7
 355              		.cfi_def_cfa_register 13
 356              		@ sp needed
 357 00e4 80BD     		pop	{r7, pc}
 358              	.L31:
 359 00e6 00BF     		.align	2
 360              	.L30:
 361 00e8 22470040 		.word	1073760034
 362 00ec 00000000 		.word	dieTemperature
 363              		.cfi_endproc
 364              	.LFE4:
 365              		.size	EEPROM_Write, .-EEPROM_Write
 366              		.section	.text.EEPROM_StartWrite,"ax",%progbits
 367              		.align	2
 368              		.global	EEPROM_StartWrite
 369              		.thumb
 370              		.thumb_func
 371              		.type	EEPROM_StartWrite, %function
 372              	EEPROM_StartWrite:
 373              	.LFB5:
 282:.\Generated_Source\PSoC5/EEPROM.c **** 
 283:.\Generated_Source\PSoC5/EEPROM.c **** 
 284:.\Generated_Source\PSoC5/EEPROM.c **** /*******************************************************************************
 285:.\Generated_Source\PSoC5/EEPROM.c **** * Function Name: EEPROM_StartWrite
 286:.\Generated_Source\PSoC5/EEPROM.c **** ********************************************************************************
 287:.\Generated_Source\PSoC5/EEPROM.c **** *
 288:.\Generated_Source\PSoC5/EEPROM.c **** * Summary:
 289:.\Generated_Source\PSoC5/EEPROM.c **** *  Starts the SPC write function. This function does not block, it returns
 290:.\Generated_Source\PSoC5/EEPROM.c **** *  once the command has begun the SPC write function. This function must be used
 291:.\Generated_Source\PSoC5/EEPROM.c **** *  in combination with EEPROM_QueryWrite(). Once this function has
 292:.\Generated_Source\PSoC5/EEPROM.c **** *  been called the SPC will be locked until EEPROM_QueryWrite()
 293:.\Generated_Source\PSoC5/EEPROM.c **** *  returns CYRET_SUCCESS.
 294:.\Generated_Source\PSoC5/EEPROM.c **** *
 295:.\Generated_Source\PSoC5/EEPROM.c **** * Parameters:
 296:.\Generated_Source\PSoC5/EEPROM.c **** *  rowData:  Address of buffer containing a row of data to write to the EEPROM.
 297:.\Generated_Source\PSoC5/EEPROM.c **** *  rowNumber:  EEPROM row number to program.
 298:.\Generated_Source\PSoC5/EEPROM.c **** *
 299:.\Generated_Source\PSoC5/EEPROM.c **** * Return:
 300:.\Generated_Source\PSoC5/EEPROM.c **** *  CYRET_STARTED, if the spc command to write was successfuly started.
 301:.\Generated_Source\PSoC5/EEPROM.c **** *  CYRET_BAD_PARAM, if the parameter rowNumber out of range.
 302:.\Generated_Source\PSoC5/EEPROM.c **** *  CYRET_LOCKED, if the spc is being used.
 303:.\Generated_Source\PSoC5/EEPROM.c **** *  CYRET_UNKNOWN, if there was an SPC error.
 304:.\Generated_Source\PSoC5/EEPROM.c **** *
 305:.\Generated_Source\PSoC5/EEPROM.c **** *******************************************************************************/
 306:.\Generated_Source\PSoC5/EEPROM.c **** cystatus EEPROM_StartWrite(const uint8 * rowData, uint8 rowNumber) \
 307:.\Generated_Source\PSoC5/EEPROM.c **** 
 308:.\Generated_Source\PSoC5/EEPROM.c **** {
 374              		.loc 1 308 0
 375              		.cfi_startproc
 376              		@ args = 0, pretend = 0, frame = 16
ARM GAS  C:\Users\Robert\AppData\Local\Temp\ccjW3bki.s 			page 13


 377              		@ frame_needed = 1, uses_anonymous_args = 0
 378 0000 80B5     		push	{r7, lr}
 379              		.cfi_def_cfa_offset 8
 380              		.cfi_offset 7, -8
 381              		.cfi_offset 14, -4
 382 0002 84B0     		sub	sp, sp, #16
 383              		.cfi_def_cfa_offset 24
 384 0004 00AF     		add	r7, sp, #0
 385              		.cfi_def_cfa_register 7
 386 0006 7860     		str	r0, [r7, #4]
 387 0008 0B46     		mov	r3, r1
 388 000a FB70     		strb	r3, [r7, #3]
 309:.\Generated_Source\PSoC5/EEPROM.c ****     cystatus status;
 310:.\Generated_Source\PSoC5/EEPROM.c **** 
 311:.\Generated_Source\PSoC5/EEPROM.c ****     if(rowNumber < (uint8) CY_EEPROM_NUMBER_ROWS)
 389              		.loc 1 311 0
 390 000c FB78     		ldrb	r3, [r7, #3]	@ zero_extendqisi2
 391 000e 5BB2     		sxtb	r3, r3
 392 0010 002B     		cmp	r3, #0
 393 0012 44DB     		blt	.L33
 312:.\Generated_Source\PSoC5/EEPROM.c ****     {
 313:.\Generated_Source\PSoC5/EEPROM.c ****         /* See if we can get the SPC. */
 314:.\Generated_Source\PSoC5/EEPROM.c ****         if(CySpcLock() == CYRET_SUCCESS)
 394              		.loc 1 314 0
 395 0014 FFF7FEFF 		bl	CySpcLock
 396 0018 0346     		mov	r3, r0
 397 001a 002B     		cmp	r3, #0
 398 001c 3CD1     		bne	.L34
 315:.\Generated_Source\PSoC5/EEPROM.c ****         {
 316:.\Generated_Source\PSoC5/EEPROM.c ****             /* Plan for failure */
 317:.\Generated_Source\PSoC5/EEPROM.c ****             status = CYRET_UNKNOWN;
 399              		.loc 1 317 0
 400 001e 4FF0FF33 		mov	r3, #-1
 401 0022 FB60     		str	r3, [r7, #12]
 318:.\Generated_Source\PSoC5/EEPROM.c **** 
 319:.\Generated_Source\PSoC5/EEPROM.c ****             /* Command to load a row of data */
 320:.\Generated_Source\PSoC5/EEPROM.c ****             if(CySpcLoadRow(CY_SPC_FIRST_EE_ARRAYID, rowData, CYDEV_EEPROM_ROW_SIZE) == CYRET_START
 402              		.loc 1 320 0
 403 0024 4020     		movs	r0, #64
 404 0026 7968     		ldr	r1, [r7, #4]
 405 0028 1022     		movs	r2, #16
 406 002a FFF7FEFF 		bl	CySpcLoadRow
 407 002e 0346     		mov	r3, r0
 408 0030 072B     		cmp	r3, #7
 409 0032 36D1     		bne	.L42
 321:.\Generated_Source\PSoC5/EEPROM.c ****             {
 322:.\Generated_Source\PSoC5/EEPROM.c ****                 while(CY_SPC_BUSY)
 410              		.loc 1 322 0
 411 0034 00BF     		nop
 412              	.L36:
 413              		.loc 1 322 0 is_stmt 0 discriminator 1
 414 0036 1D4B     		ldr	r3, .L44
 415 0038 1B78     		ldrb	r3, [r3]
 416 003a DBB2     		uxtb	r3, r3
 417 003c 03F00203 		and	r3, r3, #2
 418 0040 002B     		cmp	r3, #0
 419 0042 F8D0     		beq	.L36
ARM GAS  C:\Users\Robert\AppData\Local\Temp\ccjW3bki.s 			page 14


 323:.\Generated_Source\PSoC5/EEPROM.c ****                 {
 324:.\Generated_Source\PSoC5/EEPROM.c ****                     /* Wait until SPC becomes idle */
 325:.\Generated_Source\PSoC5/EEPROM.c ****                 }
 326:.\Generated_Source\PSoC5/EEPROM.c **** 
 327:.\Generated_Source\PSoC5/EEPROM.c ****                 /* SPC is idle now */
 328:.\Generated_Source\PSoC5/EEPROM.c ****                 if(CY_SPC_STATUS_SUCCESS == CY_SPC_READ_STATUS)
 420              		.loc 1 328 0 is_stmt 1
 421 0044 194B     		ldr	r3, .L44
 422 0046 1B78     		ldrb	r3, [r3]
 423 0048 DBB2     		uxtb	r3, r3
 424 004a 03F00203 		and	r3, r3, #2
 425 004e 002B     		cmp	r3, #0
 426 0050 08D0     		beq	.L37
 427              		.loc 1 328 0 is_stmt 0 discriminator 1
 428 0052 164B     		ldr	r3, .L44
 429 0054 1B78     		ldrb	r3, [r3]
 430 0056 DBB2     		uxtb	r3, r3
 431 0058 9B08     		lsrs	r3, r3, #2
 432 005a DBB2     		uxtb	r3, r3
 433 005c 002B     		cmp	r3, #0
 434 005e 01D1     		bne	.L37
 329:.\Generated_Source\PSoC5/EEPROM.c ****                 {
 330:.\Generated_Source\PSoC5/EEPROM.c ****                     status = CYRET_SUCCESS;
 435              		.loc 1 330 0 is_stmt 1
 436 0060 0023     		movs	r3, #0
 437 0062 FB60     		str	r3, [r7, #12]
 438              	.L37:
 331:.\Generated_Source\PSoC5/EEPROM.c ****                 }
 332:.\Generated_Source\PSoC5/EEPROM.c **** 
 333:.\Generated_Source\PSoC5/EEPROM.c ****                 /* Command to erase and program the row. */
 334:.\Generated_Source\PSoC5/EEPROM.c ****                 if(status == CYRET_SUCCESS)
 439              		.loc 1 334 0
 440 0064 FB68     		ldr	r3, [r7, #12]
 441 0066 002B     		cmp	r3, #0
 442 0068 12D1     		bne	.L38
 335:.\Generated_Source\PSoC5/EEPROM.c ****                 {
 336:.\Generated_Source\PSoC5/EEPROM.c ****                     if(CySpcWriteRow(CY_SPC_FIRST_EE_ARRAYID, (uint16)rowNumber, dieTemperature[0],
 443              		.loc 1 336 0
 444 006a FB78     		ldrb	r3, [r7, #3]	@ zero_extendqisi2
 445 006c 99B2     		uxth	r1, r3
 446 006e 104B     		ldr	r3, .L44+4
 447 0070 1A78     		ldrb	r2, [r3]	@ zero_extendqisi2
 448 0072 0F4B     		ldr	r3, .L44+4
 449 0074 5B78     		ldrb	r3, [r3, #1]	@ zero_extendqisi2
 450 0076 4020     		movs	r0, #64
 451 0078 FFF7FEFF 		bl	CySpcWriteRow
 452 007c 0346     		mov	r3, r0
 453 007e 072B     		cmp	r3, #7
 454 0080 02D1     		bne	.L39
 337:.\Generated_Source\PSoC5/EEPROM.c ****                     dieTemperature[1]) == CYRET_STARTED)
 338:.\Generated_Source\PSoC5/EEPROM.c ****                     {
 339:.\Generated_Source\PSoC5/EEPROM.c ****                         status = CYRET_STARTED;
 455              		.loc 1 339 0
 456 0082 0723     		movs	r3, #7
 457 0084 FB60     		str	r3, [r7, #12]
 458 0086 0CE0     		b	.L42
 459              	.L39:
ARM GAS  C:\Users\Robert\AppData\Local\Temp\ccjW3bki.s 			page 15


 340:.\Generated_Source\PSoC5/EEPROM.c ****                     }
 341:.\Generated_Source\PSoC5/EEPROM.c ****                     else
 342:.\Generated_Source\PSoC5/EEPROM.c ****                     {
 343:.\Generated_Source\PSoC5/EEPROM.c ****                         status = CYRET_UNKNOWN;
 460              		.loc 1 343 0
 461 0088 4FF0FF33 		mov	r3, #-1
 462 008c FB60     		str	r3, [r7, #12]
 463 008e 08E0     		b	.L42
 464              	.L38:
 344:.\Generated_Source\PSoC5/EEPROM.c ****                     }
 345:.\Generated_Source\PSoC5/EEPROM.c ****                 }
 346:.\Generated_Source\PSoC5/EEPROM.c ****                 else
 347:.\Generated_Source\PSoC5/EEPROM.c ****                 {
 348:.\Generated_Source\PSoC5/EEPROM.c ****                     status = CYRET_UNKNOWN;
 465              		.loc 1 348 0
 466 0090 4FF0FF33 		mov	r3, #-1
 467 0094 FB60     		str	r3, [r7, #12]
 468 0096 04E0     		b	.L42
 469              	.L34:
 349:.\Generated_Source\PSoC5/EEPROM.c ****                 }
 350:.\Generated_Source\PSoC5/EEPROM.c ****             }
 351:.\Generated_Source\PSoC5/EEPROM.c ****         }
 352:.\Generated_Source\PSoC5/EEPROM.c ****         else
 353:.\Generated_Source\PSoC5/EEPROM.c ****         {
 354:.\Generated_Source\PSoC5/EEPROM.c ****             status = CYRET_LOCKED;
 470              		.loc 1 354 0
 471 0098 0423     		movs	r3, #4
 472 009a FB60     		str	r3, [r7, #12]
 473 009c 01E0     		b	.L42
 474              	.L33:
 355:.\Generated_Source\PSoC5/EEPROM.c ****         }
 356:.\Generated_Source\PSoC5/EEPROM.c ****     }
 357:.\Generated_Source\PSoC5/EEPROM.c ****     else
 358:.\Generated_Source\PSoC5/EEPROM.c ****     {
 359:.\Generated_Source\PSoC5/EEPROM.c ****         status = CYRET_BAD_PARAM;
 475              		.loc 1 359 0
 476 009e 0123     		movs	r3, #1
 477 00a0 FB60     		str	r3, [r7, #12]
 478              	.L42:
 360:.\Generated_Source\PSoC5/EEPROM.c ****     }
 361:.\Generated_Source\PSoC5/EEPROM.c **** 
 362:.\Generated_Source\PSoC5/EEPROM.c ****     return(status);
 479              		.loc 1 362 0
 480 00a2 FB68     		ldr	r3, [r7, #12]
 363:.\Generated_Source\PSoC5/EEPROM.c **** }
 481              		.loc 1 363 0
 482 00a4 1846     		mov	r0, r3
 483 00a6 1037     		adds	r7, r7, #16
 484              		.cfi_def_cfa_offset 8
 485 00a8 BD46     		mov	sp, r7
 486              		.cfi_def_cfa_register 13
 487              		@ sp needed
 488 00aa 80BD     		pop	{r7, pc}
 489              	.L45:
 490              		.align	2
 491              	.L44:
 492 00ac 22470040 		.word	1073760034
ARM GAS  C:\Users\Robert\AppData\Local\Temp\ccjW3bki.s 			page 16


 493 00b0 00000000 		.word	dieTemperature
 494              		.cfi_endproc
 495              	.LFE5:
 496              		.size	EEPROM_StartWrite, .-EEPROM_StartWrite
 497              		.section	.text.EEPROM_QueryWrite,"ax",%progbits
 498              		.align	2
 499              		.global	EEPROM_QueryWrite
 500              		.thumb
 501              		.thumb_func
 502              		.type	EEPROM_QueryWrite, %function
 503              	EEPROM_QueryWrite:
 504              	.LFB6:
 364:.\Generated_Source\PSoC5/EEPROM.c **** 
 365:.\Generated_Source\PSoC5/EEPROM.c **** 
 366:.\Generated_Source\PSoC5/EEPROM.c **** /*******************************************************************************
 367:.\Generated_Source\PSoC5/EEPROM.c **** * Function Name: EEPROM_QueryWrite
 368:.\Generated_Source\PSoC5/EEPROM.c **** ********************************************************************************
 369:.\Generated_Source\PSoC5/EEPROM.c **** *
 370:.\Generated_Source\PSoC5/EEPROM.c **** * Summary:
 371:.\Generated_Source\PSoC5/EEPROM.c **** *  Checks the state of write to EEPROM. This function must be called until
 372:.\Generated_Source\PSoC5/EEPROM.c **** *  the return value is not CYRET_STARTED.
 373:.\Generated_Source\PSoC5/EEPROM.c **** *
 374:.\Generated_Source\PSoC5/EEPROM.c **** * Parameters:
 375:.\Generated_Source\PSoC5/EEPROM.c **** *  None
 376:.\Generated_Source\PSoC5/EEPROM.c **** *
 377:.\Generated_Source\PSoC5/EEPROM.c **** * Return:
 378:.\Generated_Source\PSoC5/EEPROM.c **** *  CYRET_STARTED, if the spc command is still processing.
 379:.\Generated_Source\PSoC5/EEPROM.c **** *  CYRET_SUCCESS, if the operation was successful.
 380:.\Generated_Source\PSoC5/EEPROM.c **** *  CYRET_UNKNOWN, if there was an SPC error.
 381:.\Generated_Source\PSoC5/EEPROM.c **** *
 382:.\Generated_Source\PSoC5/EEPROM.c **** *******************************************************************************/
 383:.\Generated_Source\PSoC5/EEPROM.c **** cystatus EEPROM_QueryWrite(void) 
 384:.\Generated_Source\PSoC5/EEPROM.c **** {
 505              		.loc 1 384 0
 506              		.cfi_startproc
 507              		@ args = 0, pretend = 0, frame = 8
 508              		@ frame_needed = 1, uses_anonymous_args = 0
 509 0000 80B5     		push	{r7, lr}
 510              		.cfi_def_cfa_offset 8
 511              		.cfi_offset 7, -8
 512              		.cfi_offset 14, -4
 513 0002 82B0     		sub	sp, sp, #8
 514              		.cfi_def_cfa_offset 16
 515 0004 00AF     		add	r7, sp, #0
 516              		.cfi_def_cfa_register 7
 385:.\Generated_Source\PSoC5/EEPROM.c ****     cystatus status;
 386:.\Generated_Source\PSoC5/EEPROM.c **** 
 387:.\Generated_Source\PSoC5/EEPROM.c ****     /* Check if SPC is idle */
 388:.\Generated_Source\PSoC5/EEPROM.c ****     if(CY_SPC_IDLE)
 517              		.loc 1 388 0
 518 0006 124B     		ldr	r3, .L52
 519 0008 1B78     		ldrb	r3, [r3]
 520 000a DBB2     		uxtb	r3, r3
 521 000c 03F00203 		and	r3, r3, #2
 522 0010 002B     		cmp	r3, #0
 523 0012 16D0     		beq	.L47
 389:.\Generated_Source\PSoC5/EEPROM.c ****     {
ARM GAS  C:\Users\Robert\AppData\Local\Temp\ccjW3bki.s 			page 17


 390:.\Generated_Source\PSoC5/EEPROM.c ****         /* SPC is idle now */
 391:.\Generated_Source\PSoC5/EEPROM.c ****         if(CY_SPC_STATUS_SUCCESS == CY_SPC_READ_STATUS)
 524              		.loc 1 391 0
 525 0014 0E4B     		ldr	r3, .L52
 526 0016 1B78     		ldrb	r3, [r3]
 527 0018 DBB2     		uxtb	r3, r3
 528 001a 03F00203 		and	r3, r3, #2
 529 001e 002B     		cmp	r3, #0
 530 0020 09D0     		beq	.L48
 531              		.loc 1 391 0 is_stmt 0 discriminator 1
 532 0022 0B4B     		ldr	r3, .L52
 533 0024 1B78     		ldrb	r3, [r3]
 534 0026 DBB2     		uxtb	r3, r3
 535 0028 9B08     		lsrs	r3, r3, #2
 536 002a DBB2     		uxtb	r3, r3
 537 002c 002B     		cmp	r3, #0
 538 002e 02D1     		bne	.L48
 392:.\Generated_Source\PSoC5/EEPROM.c ****         {
 393:.\Generated_Source\PSoC5/EEPROM.c ****             status = CYRET_SUCCESS;
 539              		.loc 1 393 0 is_stmt 1
 540 0030 0023     		movs	r3, #0
 541 0032 7B60     		str	r3, [r7, #4]
 542 0034 02E0     		b	.L49
 543              	.L48:
 394:.\Generated_Source\PSoC5/EEPROM.c ****         }
 395:.\Generated_Source\PSoC5/EEPROM.c ****         else
 396:.\Generated_Source\PSoC5/EEPROM.c ****         {
 397:.\Generated_Source\PSoC5/EEPROM.c ****             status = CYRET_UNKNOWN;
 544              		.loc 1 397 0
 545 0036 4FF0FF33 		mov	r3, #-1
 546 003a 7B60     		str	r3, [r7, #4]
 547              	.L49:
 398:.\Generated_Source\PSoC5/EEPROM.c ****         }
 399:.\Generated_Source\PSoC5/EEPROM.c **** 
 400:.\Generated_Source\PSoC5/EEPROM.c ****         /* Unlock the SPC so someone else can use it. */
 401:.\Generated_Source\PSoC5/EEPROM.c ****         CySpcUnlock();
 548              		.loc 1 401 0
 549 003c FFF7FEFF 		bl	CySpcUnlock
 550 0040 01E0     		b	.L50
 551              	.L47:
 402:.\Generated_Source\PSoC5/EEPROM.c ****     }
 403:.\Generated_Source\PSoC5/EEPROM.c ****     else
 404:.\Generated_Source\PSoC5/EEPROM.c ****     {
 405:.\Generated_Source\PSoC5/EEPROM.c ****         status = CYRET_STARTED;
 552              		.loc 1 405 0
 553 0042 0723     		movs	r3, #7
 554 0044 7B60     		str	r3, [r7, #4]
 555              	.L50:
 406:.\Generated_Source\PSoC5/EEPROM.c ****     }
 407:.\Generated_Source\PSoC5/EEPROM.c **** 
 408:.\Generated_Source\PSoC5/EEPROM.c ****     return(status);
 556              		.loc 1 408 0
 557 0046 7B68     		ldr	r3, [r7, #4]
 409:.\Generated_Source\PSoC5/EEPROM.c **** }
 558              		.loc 1 409 0
 559 0048 1846     		mov	r0, r3
 560 004a 0837     		adds	r7, r7, #8
ARM GAS  C:\Users\Robert\AppData\Local\Temp\ccjW3bki.s 			page 18


 561              		.cfi_def_cfa_offset 8
 562 004c BD46     		mov	sp, r7
 563              		.cfi_def_cfa_register 13
 564              		@ sp needed
 565 004e 80BD     		pop	{r7, pc}
 566              	.L53:
 567              		.align	2
 568              	.L52:
 569 0050 22470040 		.word	1073760034
 570              		.cfi_endproc
 571              	.LFE6:
 572              		.size	EEPROM_QueryWrite, .-EEPROM_QueryWrite
 573              		.section	.text.EEPROM_ByteWrite,"ax",%progbits
 574              		.align	2
 575              		.global	EEPROM_ByteWrite
 576              		.thumb
 577              		.thumb_func
 578              		.type	EEPROM_ByteWrite, %function
 579              	EEPROM_ByteWrite:
 580              	.LFB7:
 410:.\Generated_Source\PSoC5/EEPROM.c **** 
 411:.\Generated_Source\PSoC5/EEPROM.c **** 
 412:.\Generated_Source\PSoC5/EEPROM.c **** /*******************************************************************************
 413:.\Generated_Source\PSoC5/EEPROM.c **** * Function Name: EEPROM_ByteWrite
 414:.\Generated_Source\PSoC5/EEPROM.c **** ********************************************************************************
 415:.\Generated_Source\PSoC5/EEPROM.c **** *
 416:.\Generated_Source\PSoC5/EEPROM.c **** * Summary:
 417:.\Generated_Source\PSoC5/EEPROM.c **** *  Writes a byte of data to the EEPROM. This is a blocking call. It will not
 418:.\Generated_Source\PSoC5/EEPROM.c **** *  return until the function succeeds or fails.
 419:.\Generated_Source\PSoC5/EEPROM.c **** *
 420:.\Generated_Source\PSoC5/EEPROM.c **** * Parameters:
 421:.\Generated_Source\PSoC5/EEPROM.c **** *  dataByte:  Byte of data to write to the EEPROM.
 422:.\Generated_Source\PSoC5/EEPROM.c **** *  rowNumber:  EEPROM row number to program.
 423:.\Generated_Source\PSoC5/EEPROM.c **** *  byteNumber:  Byte number within the row to program.
 424:.\Generated_Source\PSoC5/EEPROM.c **** *
 425:.\Generated_Source\PSoC5/EEPROM.c **** * Return:
 426:.\Generated_Source\PSoC5/EEPROM.c **** *  CYRET_SUCCESS, if the operation was successful.
 427:.\Generated_Source\PSoC5/EEPROM.c **** *  CYRET_BAD_PARAM, if the parameter rowNumber or byteNumber out of range.
 428:.\Generated_Source\PSoC5/EEPROM.c **** *  CYRET_LOCKED, if the spc is being used.
 429:.\Generated_Source\PSoC5/EEPROM.c **** *  CYRET_UNKNOWN, if there was an SPC error.
 430:.\Generated_Source\PSoC5/EEPROM.c **** *
 431:.\Generated_Source\PSoC5/EEPROM.c **** *******************************************************************************/
 432:.\Generated_Source\PSoC5/EEPROM.c **** cystatus EEPROM_ByteWrite(uint8 dataByte, uint8 rowNumber, uint8 byteNumber) \
 433:.\Generated_Source\PSoC5/EEPROM.c **** 
 434:.\Generated_Source\PSoC5/EEPROM.c **** {
 581              		.loc 1 434 0
 582              		.cfi_startproc
 583              		@ args = 0, pretend = 0, frame = 16
 584              		@ frame_needed = 1, uses_anonymous_args = 0
 585 0000 80B5     		push	{r7, lr}
 586              		.cfi_def_cfa_offset 8
 587              		.cfi_offset 7, -8
 588              		.cfi_offset 14, -4
 589 0002 84B0     		sub	sp, sp, #16
 590              		.cfi_def_cfa_offset 24
 591 0004 00AF     		add	r7, sp, #0
 592              		.cfi_def_cfa_register 7
ARM GAS  C:\Users\Robert\AppData\Local\Temp\ccjW3bki.s 			page 19


 593 0006 0346     		mov	r3, r0
 594 0008 FB71     		strb	r3, [r7, #7]
 595 000a 0B46     		mov	r3, r1
 596 000c BB71     		strb	r3, [r7, #6]
 597 000e 1346     		mov	r3, r2
 598 0010 7B71     		strb	r3, [r7, #5]
 435:.\Generated_Source\PSoC5/EEPROM.c ****     cystatus status;
 436:.\Generated_Source\PSoC5/EEPROM.c **** 
 437:.\Generated_Source\PSoC5/EEPROM.c ****     /* Start the SPC */
 438:.\Generated_Source\PSoC5/EEPROM.c ****     CySpcStart();
 599              		.loc 1 438 0
 600 0012 FFF7FEFF 		bl	CySpcStart
 439:.\Generated_Source\PSoC5/EEPROM.c **** 
 440:.\Generated_Source\PSoC5/EEPROM.c ****     if((rowNumber < (uint8) CY_EEPROM_NUMBER_ROWS) && (byteNumber < (uint8) SIZEOF_EEPROM_ROW))
 601              		.loc 1 440 0
 602 0016 BB79     		ldrb	r3, [r7, #6]	@ zero_extendqisi2
 603 0018 5BB2     		sxtb	r3, r3
 604 001a 002B     		cmp	r3, #0
 605 001c 66DB     		blt	.L55
 606              		.loc 1 440 0 is_stmt 0 discriminator 1
 607 001e 7B79     		ldrb	r3, [r7, #5]	@ zero_extendqisi2
 608 0020 0F2B     		cmp	r3, #15
 609 0022 63D8     		bhi	.L55
 441:.\Generated_Source\PSoC5/EEPROM.c ****     {
 442:.\Generated_Source\PSoC5/EEPROM.c ****         /* See if we can get the SPC. */
 443:.\Generated_Source\PSoC5/EEPROM.c ****         if(CySpcLock() == CYRET_SUCCESS)
 610              		.loc 1 443 0 is_stmt 1
 611 0024 FFF7FEFF 		bl	CySpcLock
 612 0028 0346     		mov	r3, r0
 613 002a 002B     		cmp	r3, #0
 614 002c 5BD1     		bne	.L56
 444:.\Generated_Source\PSoC5/EEPROM.c ****         {
 445:.\Generated_Source\PSoC5/EEPROM.c ****             /* Plan for failure */
 446:.\Generated_Source\PSoC5/EEPROM.c ****             status = CYRET_UNKNOWN;
 615              		.loc 1 446 0
 616 002e 4FF0FF33 		mov	r3, #-1
 617 0032 FB60     		str	r3, [r7, #12]
 447:.\Generated_Source\PSoC5/EEPROM.c **** 
 448:.\Generated_Source\PSoC5/EEPROM.c ****             /* Command to load a byte of data */
 449:.\Generated_Source\PSoC5/EEPROM.c ****             if(CySpcLoadMultiByte(CY_SPC_FIRST_EE_ARRAYID, (uint16)byteNumber, &dataByte,\
 618              		.loc 1 449 0
 619 0034 7B79     		ldrb	r3, [r7, #5]	@ zero_extendqisi2
 620 0036 9AB2     		uxth	r2, r3
 621 0038 FB1D     		adds	r3, r7, #7
 622 003a 4020     		movs	r0, #64
 623 003c 1146     		mov	r1, r2
 624 003e 1A46     		mov	r2, r3
 625 0040 0123     		movs	r3, #1
 626 0042 FFF7FEFF 		bl	CySpcLoadMultiByte
 627 0046 0346     		mov	r3, r0
 628 0048 072B     		cmp	r3, #7
 629 004a 49D1     		bne	.L57
 450:.\Generated_Source\PSoC5/EEPROM.c ****                                                                 EEPROM_SPC_BYTE_WRITE_SIZE) == CYRE
 451:.\Generated_Source\PSoC5/EEPROM.c ****             {
 452:.\Generated_Source\PSoC5/EEPROM.c ****                 while(CY_SPC_BUSY)
 630              		.loc 1 452 0
 631 004c 00BF     		nop
ARM GAS  C:\Users\Robert\AppData\Local\Temp\ccjW3bki.s 			page 20


 632              	.L58:
 633              		.loc 1 452 0 is_stmt 0 discriminator 1
 634 004e 2B4B     		ldr	r3, .L68
 635 0050 1B78     		ldrb	r3, [r3]
 636 0052 DBB2     		uxtb	r3, r3
 637 0054 03F00203 		and	r3, r3, #2
 638 0058 002B     		cmp	r3, #0
 639 005a F8D0     		beq	.L58
 453:.\Generated_Source\PSoC5/EEPROM.c ****                 {
 454:.\Generated_Source\PSoC5/EEPROM.c ****                     /* Wait until SPC becomes idle */
 455:.\Generated_Source\PSoC5/EEPROM.c ****                 }
 456:.\Generated_Source\PSoC5/EEPROM.c **** 
 457:.\Generated_Source\PSoC5/EEPROM.c ****                 /* SPC is idle now */
 458:.\Generated_Source\PSoC5/EEPROM.c ****                 if(CY_SPC_STATUS_SUCCESS == CY_SPC_READ_STATUS)
 640              		.loc 1 458 0 is_stmt 1
 641 005c 274B     		ldr	r3, .L68
 642 005e 1B78     		ldrb	r3, [r3]
 643 0060 DBB2     		uxtb	r3, r3
 644 0062 03F00203 		and	r3, r3, #2
 645 0066 002B     		cmp	r3, #0
 646 0068 08D0     		beq	.L59
 647              		.loc 1 458 0 is_stmt 0 discriminator 1
 648 006a 244B     		ldr	r3, .L68
 649 006c 1B78     		ldrb	r3, [r3]
 650 006e DBB2     		uxtb	r3, r3
 651 0070 9B08     		lsrs	r3, r3, #2
 652 0072 DBB2     		uxtb	r3, r3
 653 0074 002B     		cmp	r3, #0
 654 0076 01D1     		bne	.L59
 459:.\Generated_Source\PSoC5/EEPROM.c ****                 {
 460:.\Generated_Source\PSoC5/EEPROM.c ****                     status = CYRET_SUCCESS;
 655              		.loc 1 460 0 is_stmt 1
 656 0078 0023     		movs	r3, #0
 657 007a FB60     		str	r3, [r7, #12]
 658              	.L59:
 461:.\Generated_Source\PSoC5/EEPROM.c ****                 }
 462:.\Generated_Source\PSoC5/EEPROM.c **** 
 463:.\Generated_Source\PSoC5/EEPROM.c ****                 /* Command to erase and program the row. */
 464:.\Generated_Source\PSoC5/EEPROM.c ****                 if(status == CYRET_SUCCESS)
 659              		.loc 1 464 0
 660 007c FB68     		ldr	r3, [r7, #12]
 661 007e 002B     		cmp	r3, #0
 662 0080 2BD1     		bne	.L60
 465:.\Generated_Source\PSoC5/EEPROM.c ****                 {
 466:.\Generated_Source\PSoC5/EEPROM.c ****                     if(CySpcWriteRow(CY_SPC_FIRST_EE_ARRAYID, (uint16)rowNumber, dieTemperature[0],
 663              		.loc 1 466 0
 664 0082 BB79     		ldrb	r3, [r7, #6]	@ zero_extendqisi2
 665 0084 99B2     		uxth	r1, r3
 666 0086 1E4B     		ldr	r3, .L68+4
 667 0088 1A78     		ldrb	r2, [r3]	@ zero_extendqisi2
 668 008a 1D4B     		ldr	r3, .L68+4
 669 008c 5B78     		ldrb	r3, [r3, #1]	@ zero_extendqisi2
 670 008e 4020     		movs	r0, #64
 671 0090 FFF7FEFF 		bl	CySpcWriteRow
 672 0094 0346     		mov	r3, r0
 673 0096 072B     		cmp	r3, #7
 674 0098 1BD1     		bne	.L61
ARM GAS  C:\Users\Robert\AppData\Local\Temp\ccjW3bki.s 			page 21


 467:.\Generated_Source\PSoC5/EEPROM.c ****                     dieTemperature[1]) == CYRET_STARTED)
 468:.\Generated_Source\PSoC5/EEPROM.c ****                     {
 469:.\Generated_Source\PSoC5/EEPROM.c ****                         /* Plan for failure */
 470:.\Generated_Source\PSoC5/EEPROM.c ****                         status = CYRET_UNKNOWN;
 675              		.loc 1 470 0
 676 009a 4FF0FF33 		mov	r3, #-1
 677 009e FB60     		str	r3, [r7, #12]
 471:.\Generated_Source\PSoC5/EEPROM.c **** 
 472:.\Generated_Source\PSoC5/EEPROM.c ****                         while(CY_SPC_BUSY)
 678              		.loc 1 472 0
 679 00a0 00BF     		nop
 680              	.L62:
 681              		.loc 1 472 0 is_stmt 0 discriminator 1
 682 00a2 164B     		ldr	r3, .L68
 683 00a4 1B78     		ldrb	r3, [r3]
 684 00a6 DBB2     		uxtb	r3, r3
 685 00a8 03F00203 		and	r3, r3, #2
 686 00ac 002B     		cmp	r3, #0
 687 00ae F8D0     		beq	.L62
 473:.\Generated_Source\PSoC5/EEPROM.c ****                         {
 474:.\Generated_Source\PSoC5/EEPROM.c ****                             /* Wait until SPC becomes idle */
 475:.\Generated_Source\PSoC5/EEPROM.c ****                         }
 476:.\Generated_Source\PSoC5/EEPROM.c **** 
 477:.\Generated_Source\PSoC5/EEPROM.c ****                         /* SPC is idle now */
 478:.\Generated_Source\PSoC5/EEPROM.c ****                         if(CY_SPC_STATUS_SUCCESS == CY_SPC_READ_STATUS)
 688              		.loc 1 478 0 is_stmt 1
 689 00b0 124B     		ldr	r3, .L68
 690 00b2 1B78     		ldrb	r3, [r3]
 691 00b4 DBB2     		uxtb	r3, r3
 692 00b6 03F00203 		and	r3, r3, #2
 693 00ba 002B     		cmp	r3, #0
 694 00bc 10D0     		beq	.L57
 695              		.loc 1 478 0 is_stmt 0 discriminator 1
 696 00be 0F4B     		ldr	r3, .L68
 697 00c0 1B78     		ldrb	r3, [r3]
 698 00c2 DBB2     		uxtb	r3, r3
 699 00c4 9B08     		lsrs	r3, r3, #2
 700 00c6 DBB2     		uxtb	r3, r3
 701 00c8 002B     		cmp	r3, #0
 702 00ca 09D1     		bne	.L57
 479:.\Generated_Source\PSoC5/EEPROM.c ****                         {
 480:.\Generated_Source\PSoC5/EEPROM.c ****                             status = CYRET_SUCCESS;
 703              		.loc 1 480 0 is_stmt 1
 704 00cc 0023     		movs	r3, #0
 705 00ce FB60     		str	r3, [r7, #12]
 706 00d0 06E0     		b	.L57
 707              	.L61:
 481:.\Generated_Source\PSoC5/EEPROM.c ****                         }
 482:.\Generated_Source\PSoC5/EEPROM.c ****                     }
 483:.\Generated_Source\PSoC5/EEPROM.c ****                     else
 484:.\Generated_Source\PSoC5/EEPROM.c ****                     {
 485:.\Generated_Source\PSoC5/EEPROM.c ****                         status = CYRET_UNKNOWN;
 708              		.loc 1 485 0
 709 00d2 4FF0FF33 		mov	r3, #-1
 710 00d6 FB60     		str	r3, [r7, #12]
 711 00d8 02E0     		b	.L57
 712              	.L60:
ARM GAS  C:\Users\Robert\AppData\Local\Temp\ccjW3bki.s 			page 22


 486:.\Generated_Source\PSoC5/EEPROM.c ****                     }
 487:.\Generated_Source\PSoC5/EEPROM.c ****                 }
 488:.\Generated_Source\PSoC5/EEPROM.c ****                 else
 489:.\Generated_Source\PSoC5/EEPROM.c ****                 {
 490:.\Generated_Source\PSoC5/EEPROM.c ****                     status = CYRET_UNKNOWN;
 713              		.loc 1 490 0
 714 00da 4FF0FF33 		mov	r3, #-1
 715 00de FB60     		str	r3, [r7, #12]
 716              	.L57:
 491:.\Generated_Source\PSoC5/EEPROM.c ****                 }
 492:.\Generated_Source\PSoC5/EEPROM.c ****             }
 493:.\Generated_Source\PSoC5/EEPROM.c **** 
 494:.\Generated_Source\PSoC5/EEPROM.c ****             /* Unlock the SPC so someone else can use it. */
 495:.\Generated_Source\PSoC5/EEPROM.c ****             CySpcUnlock();
 717              		.loc 1 495 0
 718 00e0 FFF7FEFF 		bl	CySpcUnlock
 443:.\Generated_Source\PSoC5/EEPROM.c ****         {
 719              		.loc 1 443 0
 720 00e4 04E0     		b	.L66
 721              	.L56:
 496:.\Generated_Source\PSoC5/EEPROM.c ****         }
 497:.\Generated_Source\PSoC5/EEPROM.c ****         else
 498:.\Generated_Source\PSoC5/EEPROM.c ****         {
 499:.\Generated_Source\PSoC5/EEPROM.c ****             status = CYRET_LOCKED;
 722              		.loc 1 499 0
 723 00e6 0423     		movs	r3, #4
 724 00e8 FB60     		str	r3, [r7, #12]
 443:.\Generated_Source\PSoC5/EEPROM.c ****         {
 725              		.loc 1 443 0
 726 00ea 01E0     		b	.L66
 727              	.L55:
 500:.\Generated_Source\PSoC5/EEPROM.c ****         }
 501:.\Generated_Source\PSoC5/EEPROM.c ****     }
 502:.\Generated_Source\PSoC5/EEPROM.c ****     else
 503:.\Generated_Source\PSoC5/EEPROM.c ****     {
 504:.\Generated_Source\PSoC5/EEPROM.c ****         status = CYRET_BAD_PARAM;
 728              		.loc 1 504 0
 729 00ec 0123     		movs	r3, #1
 730 00ee FB60     		str	r3, [r7, #12]
 731              	.L66:
 505:.\Generated_Source\PSoC5/EEPROM.c ****     }
 506:.\Generated_Source\PSoC5/EEPROM.c **** 
 507:.\Generated_Source\PSoC5/EEPROM.c ****     return(status);
 732              		.loc 1 507 0
 733 00f0 FB68     		ldr	r3, [r7, #12]
 508:.\Generated_Source\PSoC5/EEPROM.c **** }
 734              		.loc 1 508 0
 735 00f2 1846     		mov	r0, r3
 736 00f4 1037     		adds	r7, r7, #16
 737              		.cfi_def_cfa_offset 8
 738 00f6 BD46     		mov	sp, r7
 739              		.cfi_def_cfa_register 13
 740              		@ sp needed
 741 00f8 80BD     		pop	{r7, pc}
 742              	.L69:
 743 00fa 00BF     		.align	2
 744              	.L68:
ARM GAS  C:\Users\Robert\AppData\Local\Temp\ccjW3bki.s 			page 23


 745 00fc 22470040 		.word	1073760034
 746 0100 00000000 		.word	dieTemperature
 747              		.cfi_endproc
 748              	.LFE7:
 749              		.size	EEPROM_ByteWrite, .-EEPROM_ByteWrite
 750              		.text
 751              	.Letext0:
 752              		.file 2 ".\\Generated_Source\\PSoC5\\cytypes.h"
 753              		.file 3 ".\\Generated_Source\\PSoC5\\CyFlash.h"