ARM GAS  C:\Users\Robert\AppData\Local\Temp\ccVyTq1o.s 			page 1


   1              		.syntax unified
   2              		.cpu cortex-m3
   3              		.fpu softvfp
   4              		.eabi_attribute 20, 1
   5              		.eabi_attribute 21, 1
   6              		.eabi_attribute 23, 3
   7              		.eabi_attribute 24, 1
   8              		.eabi_attribute 25, 1
   9              		.eabi_attribute 26, 1
  10              		.eabi_attribute 30, 6
  11              		.eabi_attribute 34, 1
  12              		.eabi_attribute 18, 4
  13              		.thumb
  14              		.file	"main.c"
  15              		.text
  16              	.Ltext0:
  17              		.cfi_sections	.debug_frame
  18              		.comm	vessel,16,4
  19              		.section	.text.main,"ax",%progbits
  20              		.align	2
  21              		.global	main
  22              		.thumb
  23              		.thumb_func
  24              		.type	main, %function
  25              	main:
  26              	.LFB56:
  27              		.file 1 ".\\main.c"
   1:.\main.c      **** /**
   2:.\main.c      **** * \file main.c
   3:.\main.c      **** * \brief This file is used to decide what kind of interface the RPiSoC will be used with, 
   4:.\main.c      **** *          and then choose the appropriate initializations and command parsers. The 
   5:.\main.c      **** *           parsed data is stored in a bit field, and this vessel is sent to mem1.c to execute
   6:.\main.c      **** *           the desired commands. main.c then gets the result of that command execuation, and will 
   7:.\main.c      **** *           it to the master device if needed.
   8:.\main.c      **** *   
   9:.\main.c      **** *
  10:.\main.c      **** * Version 1.2.4
  11:.\main.c      **** *
  12:.\main.c      **** * \author Brian Bradley
  13:.\main.c      **** *
  14:.\main.c      **** * \bug No known bugs, but new I2C implementation is untested
  15:.\main.c      **** *
  16:.\main.c      **** * 
  17:.\main.c      **** *
  18:.\main.c      **** * Copyright Embedit Electronics
  19:.\main.c      **** * 
  20:.\main.c      **** */
  21:.\main.c      **** #include <project.h>
  22:.\main.c      **** #include <stdio.h>
  23:.\main.c      **** #include <mem1.h>
  24:.\main.c      **** #include <LINX.h>
  25:.\main.c      **** //#include <Python.h>
  26:.\main.c      **** 
  27:.\main.c      **** #if defined(LINX_H) && defined(PYTHON_H)
  28:.\main.c      ****     #error "Attempted to include both a LINX and Python device."
  29:.\main.c      **** #endif
  30:.\main.c      **** 
ARM GAS  C:\Users\Robert\AppData\Local\Temp\ccVyTq1o.s 			page 2


  31:.\main.c      **** vessel_type vessel;
  32:.\main.c      **** 
  33:.\main.c      **** int main()
  34:.\main.c      **** {
  28              		.loc 1 34 0
  29              		.cfi_startproc
  30              		@ args = 0, pretend = 0, frame = 80
  31              		@ frame_needed = 1, uses_anonymous_args = 0
  32 0000 80B5     		push	{r7, lr}
  33              		.cfi_def_cfa_offset 8
  34              		.cfi_offset 7, -8
  35              		.cfi_offset 14, -4
  36 0002 94B0     		sub	sp, sp, #80
  37              		.cfi_def_cfa_offset 88
  38 0004 00AF     		add	r7, sp, #0
  39              		.cfi_def_cfa_register 7
  35:.\main.c      ****     CyGlobalIntEnable;  /* enable global interrupts. */
  40              		.loc 1 35 0
  41              	@ 35 ".\main.c" 1
  42 0006 62B6     		CPSIE   i
  43              	@ 0 "" 2
  36:.\main.c      ****     #if defined(LINX_H)
  37:.\main.c      ****         LINX_Initialize();
  44              		.loc 1 37 0
  45              		.thumb
  46 0008 FFF7FEFF 		bl	LINX_Initialize
  47              	.L3:
  38:.\main.c      ****         
  39:.\main.c      ****         uint8 LINX_Command[LINX_COMMAND_BUFFER_SIZE];
  40:.\main.c      ****         uint8 LINX_Response[LINX_RESPONSE_BUFFER_SIZE];
  41:.\main.c      ****     #elif defined(PYTHON_H)
  42:.\main.c      ****         Python_Initialize();
  43:.\main.c      ****     #else
  44:.\main.c      ****         #error "No device chosen! include LINX.h for use of the RPiSoC with LabVIEW, or Python.h fo
  45:.\main.c      ****     #endif
  46:.\main.c      ****     
  47:.\main.c      ****     for(;;)
  48:.\main.c      ****     {
  49:.\main.c      ****         #if defined(LINX_H)
  50:.\main.c      ****             if(USBUART_DataIsReady()) {
  48              		.loc 1 50 0
  49 000c FFF7FEFF 		bl	USBUART_DataIsReady
  50 0010 0346     		mov	r3, r0
  51 0012 002B     		cmp	r3, #0
  52 0014 12D0     		beq	.L2
  51:.\main.c      ****                 if (LINX_GetCommand(LINX_Command)) {
  53              		.loc 1 51 0
  54 0016 07F13003 		add	r3, r7, #48
  55 001a 1846     		mov	r0, r3
  56 001c FFF7FEFF 		bl	LINX_GetCommand
  57 0020 0346     		mov	r3, r0
  58 0022 002B     		cmp	r3, #0
  59 0024 0AD0     		beq	.L2
  52:.\main.c      ****                     LINX_ProcessCommand(LINX_Command, LINX_Response);
  60              		.loc 1 52 0
  61 0026 07F13002 		add	r2, r7, #48
  62 002a 3B46     		mov	r3, r7
ARM GAS  C:\Users\Robert\AppData\Local\Temp\ccVyTq1o.s 			page 3


  63 002c 1046     		mov	r0, r2
  64 002e 1946     		mov	r1, r3
  65 0030 FFF7FEFF 		bl	LINX_ProcessCommand
  53:.\main.c      ****                     LINX_SendResponse(LINX_Response);
  66              		.loc 1 53 0
  67 0034 3B46     		mov	r3, r7
  68 0036 1846     		mov	r0, r3
  69 0038 FFF7FEFF 		bl	LINX_SendResponse
  70              	.L2:
  54:.\main.c      ****                 }
  55:.\main.c      ****                 else {
  56:.\main.c      ****                     #ifdef DEBUG_LINX
  57:.\main.c      ****                         DEBUG_UART_PutString("Get command FAILED\r\n");
  58:.\main.c      ****                     #endif
  59:.\main.c      ****                 }
  60:.\main.c      ****                 
  61:.\main.c      ****             }
  62:.\main.c      ****         #elif defined(PYTHON_H)
  63:.\main.c      ****             Python_getData(&vessel);
  64:.\main.c      ****             Python_parser(&vessel);
  65:.\main.c      ****             uint32 result;
  66:.\main.c      ****             if (readData(vessel, &result)) {
  67:.\main.c      ****                 Python_sendData(result);
  68:.\main.c      ****             }
  69:.\main.c      ****         #endif
  70:.\main.c      ****         
  71:.\main.c      ****     }
  71              		.loc 1 71 0
  72 003c E6E7     		b	.L3
  73              		.cfi_endproc
  74              	.LFE56:
  75              		.size	main, .-main
  76 003e 00BF     		.text
  77              	.Letext0:
  78              		.file 2 "c:\\program files (x86)\\cypress\\psoc creator\\3.3\\psoc creator\\import\\gnu\\arm\\4.9.
  79              		.file 3 "c:\\program files (x86)\\cypress\\psoc creator\\3.3\\psoc creator\\import\\gnu\\arm\\4.9.
  80              		.file 4 "Generated_Source\\PSoC5/cytypes.h"
  81              		.file 5 "./mem1.h"
  82              		.file 6 "Generated_Source\\PSoC5/core_cm3.h"