ARM GAS  C:\Users\Robert\AppData\Local\Temp\cc7rr7YM.s 			page 1


   1              		.syntax unified
   2              		.cpu cortex-m3
   3              		.fpu softvfp
   4              		.eabi_attribute 20, 1
   5              		.eabi_attribute 21, 1
   6              		.eabi_attribute 23, 3
   7              		.eabi_attribute 24, 1
   8              		.eabi_attribute 25, 1
   9              		.eabi_attribute 26, 1
  10              		.eabi_attribute 30, 6
  11              		.eabi_attribute 34, 1
  12              		.eabi_attribute 18, 4
  13              		.thumb
  14              		.file	"mem1.c"
  15              		.text
  16              	.Ltext0:
  17              		.cfi_sections	.debug_frame
  18              		.section	.text.readData,"ax",%progbits
  19              		.align	2
  20              		.global	readData
  21              		.thumb
  22              		.thumb_func
  23              		.type	readData, %function
  24              	readData:
  25              	.LFB56:
  26              		.file 1 ".\\mem1.c"
   1:.\mem1.c      **** /**
   2:.\mem1.c      **** * \file mem1.c
   3:.\mem1.c      **** * \brief This file contains the source code for access or manipulation of 
   4:.\mem1.c      **** *        all components included in the build. It will do so according to
   5:.\mem1.c      **** *        sets of instructions provided by a Master Device.
   6:.\mem1.c      **** *
   7:.\mem1.c      **** * Version 1.2.4
   8:.\mem1.c      **** *
   9:.\mem1.c      **** * \author Brian Bradley
  10:.\mem1.c      **** *
  11:.\mem1.c      **** * \bug No known bugs
  12:.\mem1.c      **** *
  13:.\mem1.c      **** *
  14:.\mem1.c      **** * Copyright Embedit Electronics
  15:.\mem1.c      **** * 
  16:.\mem1.c      **** */
  17:.\mem1.c      **** 
  18:.\mem1.c      **** #ifndef MEM1_H
  19:.\mem1.c      ****     #include "mem1.h"
  20:.\mem1.c      **** #endif
  21:.\mem1.c      **** 
  22:.\mem1.c      **** #include <project.h>
  23:.\mem1.c      **** #include <stdbool.h>
  24:.\mem1.c      **** 
  25:.\mem1.c      **** #ifdef CY_SLIGHTS_StripLights_H
  26:.\mem1.c      ****     extern const uint32 StripLights_CLUT[ ];
  27:.\mem1.c      **** #endif
  28:.\mem1.c      **** 
  29:.\mem1.c      **** /*************************************************************************************************/
  30:.\mem1.c      **** *  @brief This function organizes each component of the build, and gives the 
  31:.\mem1.c      **** *         applicable information to the appropriate address for use.
ARM GAS  C:\Users\Robert\AppData\Local\Temp\cc7rr7YM.s 			page 2


  32:.\mem1.c      **** *
  33:.\mem1.c      **** *  @param addr: 8-bit number describing the address of the component being accessed
  34:.\mem1.c      **** *  @param cmd: 8-bit number describing a desired usage of a function associated with that component
  35:.\mem1.c      **** *  @param dat: 16-bit number containing a value that is to be written to that function, if applicab
  36:.\mem1.c      **** *
  37:.\mem1.c      **** ***************************************************************************************************
  38:.\mem1.c      **** bool readData(vessel_type vessel, uint32 *result)
  39:.\mem1.c      **** {
  27              		.loc 1 39 0
  28              		.cfi_startproc
  29              		@ args = 4, pretend = 0, frame = 24
  30              		@ frame_needed = 1, uses_anonymous_args = 0
  31 0000 F0B5     		push	{r4, r5, r6, r7, lr}
  32              		.cfi_def_cfa_offset 20
  33              		.cfi_offset 4, -20
  34              		.cfi_offset 5, -16
  35              		.cfi_offset 6, -12
  36              		.cfi_offset 7, -8
  37              		.cfi_offset 14, -4
  38 0002 8BB0     		sub	sp, sp, #44
  39              		.cfi_def_cfa_offset 64
  40 0004 04AF     		add	r7, sp, #16
  41              		.cfi_def_cfa 7, 48
  42 0006 3C46     		mov	r4, r7
  43 0008 84E80F00 		stmia	r4, {r0, r1, r2, r3}
  40:.\mem1.c      ****     bool return_flag = false;
  44              		.loc 1 40 0
  45 000c 0023     		movs	r3, #0
  46 000e FB75     		strb	r3, [r7, #23]
  41:.\mem1.c      ****     uint8 cmd = vessel.cmd;
  47              		.loc 1 41 0
  48 0010 7B78     		ldrb	r3, [r7, #1]
  49 0012 BB75     		strb	r3, [r7, #22]
  42:.\mem1.c      ****     uint16 dat = vessel.dat;
  50              		.loc 1 42 0
  51 0014 7B88     		ldrh	r3, [r7, #2]	@ movhi
  52 0016 BB82     		strh	r3, [r7, #20]	@ movhi
  43:.\mem1.c      ****     uint8 addr = vessel.addr;
  53              		.loc 1 43 0
  54 0018 3B78     		ldrb	r3, [r7]
  55 001a FB74     		strb	r3, [r7, #19]
  44:.\mem1.c      ****     
  45:.\mem1.c      ****     switch(addr)
  56              		.loc 1 45 0
  57 001c FB7C     		ldrb	r3, [r7, #19]	@ zero_extendqisi2
  58 001e 0F2B     		cmp	r3, #15
  59 0020 00F0A280 		beq	.L3
  60 0024 0F2B     		cmp	r3, #15
  61 0026 18DC     		bgt	.L4
  62 0028 0A2B     		cmp	r3, #10
  63 002a 6BD0     		beq	.L5
  64 002c 0A2B     		cmp	r3, #10
  65 002e 0BDC     		bgt	.L6
  66 0030 062B     		cmp	r3, #6
  67 0032 3ED0     		beq	.L7
  68 0034 062B     		cmp	r3, #6
  69 0036 02DC     		bgt	.L8
ARM GAS  C:\Users\Robert\AppData\Local\Temp\cc7rr7YM.s 			page 3


  70 0038 042B     		cmp	r3, #4
  71 003a 30D0     		beq	.L9
  72 003c 29E1     		b	.L2
  73              	.L8:
  74 003e 082B     		cmp	r3, #8
  75 0040 41D0     		beq	.L10
  76 0042 092B     		cmp	r3, #9
  77 0044 54D0     		beq	.L11
  78 0046 24E1     		b	.L2
  79              	.L6:
  80 0048 0C2B     		cmp	r3, #12
  81 004a 6FD0     		beq	.L12
  82 004c 0C2B     		cmp	r3, #12
  83 004e 63DB     		blt	.L13
  84 0050 0D2B     		cmp	r3, #13
  85 0052 75D0     		beq	.L14
  86 0054 0E2B     		cmp	r3, #14
  87 0056 7DD0     		beq	.L15
  88 0058 1BE1     		b	.L2
  89              	.L4:
  90 005a FB2B     		cmp	r3, #251
  91 005c 00F0D480 		beq	.L16
  92 0060 FB2B     		cmp	r3, #251
  93 0062 0FDC     		bgt	.L17
  94 0064 162B     		cmp	r3, #22
  95 0066 00F0F180 		beq	.L18
  96 006a 162B     		cmp	r3, #22
  97 006c 03DC     		bgt	.L19
  98 006e 102B     		cmp	r3, #16
  99 0070 00F08480 		beq	.L20
 100 0074 0DE1     		b	.L2
 101              	.L19:
 102 0076 172B     		cmp	r3, #23
 103 0078 00F08A80 		beq	.L21
 104 007c 182B     		cmp	r3, #24
 105 007e 00F09180 		beq	.L22
 106 0082 06E1     		b	.L2
 107              	.L17:
 108 0084 FD2B     		cmp	r3, #253
 109 0086 00F0D980 		beq	.L23
 110 008a FD2B     		cmp	r3, #253
 111 008c C0F29480 		blt	.L24
 112 0090 FE2B     		cmp	r3, #254
 113 0092 00F0F180 		beq	.L25
 114 0096 FF2B     		cmp	r3, #255
 115 0098 00F0F880 		beq	.L26
 116 009c F9E0     		b	.L2
 117              	.L9:
  46:.\mem1.c      ****     {
  47:.\mem1.c      ****         //delsig_adc
  48:.\mem1.c      ****         #ifdef CY_ADC_DELSIG_ADC_DelSig_1_H
  49:.\mem1.c      ****             case DELSIG_ADC_CONTROL: return_flag = DELSIG_ADC_Control(cmd,dat,result); break;
  50:.\mem1.c      ****         #endif
  51:.\mem1.c      ****         
  52:.\mem1.c      ****         //sar adc 1
  53:.\mem1.c      ****         #ifdef CY_ADC_SAR_ADC_SAR_1_H 
  54:.\mem1.c      ****             case SAR_ADC0_CONTROL: return_flag = SAR0_ADC_Control(cmd, dat, result); break;
ARM GAS  C:\Users\Robert\AppData\Local\Temp\cc7rr7YM.s 			page 4


  55:.\mem1.c      ****         #endif
  56:.\mem1.c      ****         
  57:.\mem1.c      ****         //sar adc 2
  58:.\mem1.c      ****         #ifdef CY_ADC_SAR_ADC_SAR_2_H 
  59:.\mem1.c      ****             case SAR_ADC1_CONTROL: return_flag = SAR1_ADC_Control(cmd, dat, result); break;
  60:.\mem1.c      ****         #endif
  61:.\mem1.c      ****         
  62:.\mem1.c      ****         //VDAC1
  63:.\mem1.c      ****         #ifdef CY_VDAC8_VDAC8_1_H
  64:.\mem1.c      ****             case VDAC0_CONTROL: return_flag = VDAC0_Control(cmd, dat, result); break;        
 118              		.loc 1 64 0
 119 009e BA7D     		ldrb	r2, [r7, #22]	@ zero_extendqisi2
 120 00a0 BB8A     		ldrh	r3, [r7, #20]
 121 00a2 1046     		mov	r0, r2
 122 00a4 1946     		mov	r1, r3
 123 00a6 3A6B     		ldr	r2, [r7, #48]
 124 00a8 FFF7FEFF 		bl	VDAC0_Control
 125 00ac 0346     		mov	r3, r0
 126 00ae FB75     		strb	r3, [r7, #23]
 127 00b0 EFE0     		b	.L2
 128              	.L7:
  65:.\mem1.c      ****         #endif
  66:.\mem1.c      ****         
  67:.\mem1.c      ****         //VDAC2
  68:.\mem1.c      ****         #ifdef CY_VDAC8_VDAC8_2_H
  69:.\mem1.c      ****             case VDAC1_CONTROL: return_flag = VDAC1_Control(cmd, dat, result); break;
  70:.\mem1.c      ****         #endif
  71:.\mem1.c      ****         
  72:.\mem1.c      ****         //IDAC1
  73:.\mem1.c      ****         #ifdef CY_IDAC8_IDAC8_1_H
  74:.\mem1.c      ****             case IDAC0_CONTROL: return_flag = IDAC0_Control(cmd,dat, result); break;     
 129              		.loc 1 74 0
 130 00b2 BA7D     		ldrb	r2, [r7, #22]	@ zero_extendqisi2
 131 00b4 BB8A     		ldrh	r3, [r7, #20]
 132 00b6 1046     		mov	r0, r2
 133 00b8 1946     		mov	r1, r3
 134 00ba 3A6B     		ldr	r2, [r7, #48]
 135 00bc FFF7FEFF 		bl	IDAC0_Control
 136 00c0 0346     		mov	r3, r0
 137 00c2 FB75     		strb	r3, [r7, #23]
 138 00c4 E5E0     		b	.L2
 139              	.L10:
  75:.\mem1.c      ****         #endif
  76:.\mem1.c      ****         
  77:.\mem1.c      ****         //IDAC2
  78:.\mem1.c      ****         #ifdef CY_IDAC8_IDAC8_2_H
  79:.\mem1.c      ****             case IDAC1_CONTROL: return_flag = IDAC1_Control(cmd, dat, result); break;     
  80:.\mem1.c      ****         #endif
  81:.\mem1.c      ****         
  82:.\mem1.c      ****         //Wave DAC
  83:.\mem1.c      ****         #ifdef CY_WaveDAC8_WaveDAC8_1_H
  84:.\mem1.c      ****             case WAVEDAC_CONTROL: return_flag = WAVEDAC_Control(cmd,dat, vessel.waveType, vessel.am
 140              		.loc 1 84 0
 141 00c6 BB79     		ldrb	r3, [r7, #6]
 142 00c8 C3F30203 		ubfx	r3, r3, #0, #3
 143 00cc DBB2     		uxtb	r3, r3
 144 00ce 1D46     		mov	r5, r3
ARM GAS  C:\Users\Robert\AppData\Local\Temp\cc7rr7YM.s 			page 5


 145 00d0 FC79     		ldrb	r4, [r7, #7]	@ zero_extendqisi2
 146 00d2 3B7A     		ldrb	r3, [r7, #8]	@ zero_extendqisi2
 147 00d4 B97D     		ldrb	r1, [r7, #22]	@ zero_extendqisi2
 148 00d6 BA8A     		ldrh	r2, [r7, #20]
 149 00d8 0093     		str	r3, [sp]
 150 00da 3B6B     		ldr	r3, [r7, #48]
 151 00dc 0193     		str	r3, [sp, #4]
 152 00de 0846     		mov	r0, r1
 153 00e0 1146     		mov	r1, r2
 154 00e2 2A46     		mov	r2, r5
 155 00e4 2346     		mov	r3, r4
 156 00e6 FFF7FEFF 		bl	WAVEDAC_Control
 157 00ea 0346     		mov	r3, r0
 158 00ec FB75     		strb	r3, [r7, #23]
 159 00ee D0E0     		b	.L2
 160              	.L11:
  85:.\mem1.c      ****         #endif
  86:.\mem1.c      ****         
  87:.\mem1.c      ****         //first PWM
  88:.\mem1.c      ****         #ifdef CY_PWM_PWM_1_H
  89:.\mem1.c      ****             case PWM_REGISTER0: return_flag = PWM_Control_0(cmd, dat, result); break;
 161              		.loc 1 89 0
 162 00f0 BA7D     		ldrb	r2, [r7, #22]	@ zero_extendqisi2
 163 00f2 BB8A     		ldrh	r3, [r7, #20]
 164 00f4 1046     		mov	r0, r2
 165 00f6 1946     		mov	r1, r3
 166 00f8 3A6B     		ldr	r2, [r7, #48]
 167 00fa FFF7FEFF 		bl	PWM_Control_0
 168 00fe 0346     		mov	r3, r0
 169 0100 FB75     		strb	r3, [r7, #23]
 170 0102 C6E0     		b	.L2
 171              	.L5:
  90:.\mem1.c      ****         #endif
  91:.\mem1.c      ****         
  92:.\mem1.c      ****         //second PWM
  93:.\mem1.c      ****         #ifdef CY_PWM_PWM_2_H
  94:.\mem1.c      ****             case PWM_REGISTER1: return_flag = PWM_Control_1(cmd, dat, result); break;
 172              		.loc 1 94 0
 173 0104 BA7D     		ldrb	r2, [r7, #22]	@ zero_extendqisi2
 174 0106 BB8A     		ldrh	r3, [r7, #20]
 175 0108 1046     		mov	r0, r2
 176 010a 1946     		mov	r1, r3
 177 010c 3A6B     		ldr	r2, [r7, #48]
 178 010e FFF7FEFF 		bl	PWM_Control_1
 179 0112 0346     		mov	r3, r0
 180 0114 FB75     		strb	r3, [r7, #23]
 181 0116 BCE0     		b	.L2
 182              	.L13:
  95:.\mem1.c      ****         #endif
  96:.\mem1.c      ****         
  97:.\mem1.c      ****         //third PWM
  98:.\mem1.c      ****         #ifdef CY_PWM_PWM_3_H
  99:.\mem1.c      ****             case PWM_REGISTER2: return_flag = PWM_Control_2(cmd, dat, result); break;
 183              		.loc 1 99 0
 184 0118 BA7D     		ldrb	r2, [r7, #22]	@ zero_extendqisi2
 185 011a BB8A     		ldrh	r3, [r7, #20]
 186 011c 1046     		mov	r0, r2
ARM GAS  C:\Users\Robert\AppData\Local\Temp\cc7rr7YM.s 			page 6


 187 011e 1946     		mov	r1, r3
 188 0120 3A6B     		ldr	r2, [r7, #48]
 189 0122 FFF7FEFF 		bl	PWM_Control_2
 190 0126 0346     		mov	r3, r0
 191 0128 FB75     		strb	r3, [r7, #23]
 192 012a B2E0     		b	.L2
 193              	.L12:
 100:.\mem1.c      ****         #endif
 101:.\mem1.c      ****         
 102:.\mem1.c      ****         //fourth PWM
 103:.\mem1.c      ****         #ifdef CY_PWM_PWM_4_H
 104:.\mem1.c      ****             case PWM_REGISTER3: return_flag = PWM_Control_3(cmd, dat, result); break;  
 194              		.loc 1 104 0
 195 012c BA7D     		ldrb	r2, [r7, #22]	@ zero_extendqisi2
 196 012e BB8A     		ldrh	r3, [r7, #20]
 197 0130 1046     		mov	r0, r2
 198 0132 1946     		mov	r1, r3
 199 0134 3A6B     		ldr	r2, [r7, #48]
 200 0136 FFF7FEFF 		bl	PWM_Control_3
 201 013a 0346     		mov	r3, r0
 202 013c FB75     		strb	r3, [r7, #23]
 203 013e A8E0     		b	.L2
 204              	.L14:
 105:.\mem1.c      ****         #endif
 106:.\mem1.c      ****         
 107:.\mem1.c      ****         //fifth PWM
 108:.\mem1.c      ****         #ifdef CY_PWM_PWM_5_H
 109:.\mem1.c      ****             case PWM_REGISTER4: return_flag = PWM_Control_4(cmd, dat, result); break;
 205              		.loc 1 109 0
 206 0140 BA7D     		ldrb	r2, [r7, #22]	@ zero_extendqisi2
 207 0142 BB8A     		ldrh	r3, [r7, #20]
 208 0144 1046     		mov	r0, r2
 209 0146 1946     		mov	r1, r3
 210 0148 3A6B     		ldr	r2, [r7, #48]
 211 014a FFF7FEFF 		bl	PWM_Control_4
 212 014e 0346     		mov	r3, r0
 213 0150 FB75     		strb	r3, [r7, #23]
 214 0152 9EE0     		b	.L2
 215              	.L15:
 110:.\mem1.c      ****         #endif
 111:.\mem1.c      ****         
 112:.\mem1.c      ****         //sixth PWM
 113:.\mem1.c      ****         #ifdef CY_PWM_PWM_6_H
 114:.\mem1.c      ****             case PWM_REGISTER5: return_flag = PWM_Control_5(cmd, dat, result); break;  
 216              		.loc 1 114 0
 217 0154 BA7D     		ldrb	r2, [r7, #22]	@ zero_extendqisi2
 218 0156 BB8A     		ldrh	r3, [r7, #20]
 219 0158 1046     		mov	r0, r2
 220 015a 1946     		mov	r1, r3
 221 015c 3A6B     		ldr	r2, [r7, #48]
 222 015e FFF7FEFF 		bl	PWM_Control_5
 223 0162 0346     		mov	r3, r0
 224 0164 FB75     		strb	r3, [r7, #23]
 225 0166 94E0     		b	.L2
 226              	.L3:
 115:.\mem1.c      ****         #endif
 116:.\mem1.c      ****         
ARM GAS  C:\Users\Robert\AppData\Local\Temp\cc7rr7YM.s 			page 7


 117:.\mem1.c      ****         //seventh PWM
 118:.\mem1.c      ****         #ifdef CY_PWM_PWM_7_H
 119:.\mem1.c      ****             case PWM_REGISTER6: return_flag = PWM_Control_6(cmd, dat, result); break;
 227              		.loc 1 119 0
 228 0168 BA7D     		ldrb	r2, [r7, #22]	@ zero_extendqisi2
 229 016a BB8A     		ldrh	r3, [r7, #20]
 230 016c 1046     		mov	r0, r2
 231 016e 1946     		mov	r1, r3
 232 0170 3A6B     		ldr	r2, [r7, #48]
 233 0172 FFF7FEFF 		bl	PWM_Control_6
 234 0176 0346     		mov	r3, r0
 235 0178 FB75     		strb	r3, [r7, #23]
 236 017a 8AE0     		b	.L2
 237              	.L20:
 120:.\mem1.c      ****         #endif
 121:.\mem1.c      ****         
 122:.\mem1.c      ****         //eighth PWM
 123:.\mem1.c      ****         #ifdef CY_PWM_PWM_8_H
 124:.\mem1.c      ****             case PWM_REGISTER7: return_flag = PWM_Control_7(cmd, dat, result); break;
 238              		.loc 1 124 0
 239 017c BA7D     		ldrb	r2, [r7, #22]	@ zero_extendqisi2
 240 017e BB8A     		ldrh	r3, [r7, #20]
 241 0180 1046     		mov	r0, r2
 242 0182 1946     		mov	r1, r3
 243 0184 3A6B     		ldr	r2, [r7, #48]
 244 0186 FFF7FEFF 		bl	PWM_Control_7
 245 018a 0346     		mov	r3, r0
 246 018c FB75     		strb	r3, [r7, #23]
 247 018e 80E0     		b	.L2
 248              	.L21:
 125:.\mem1.c      ****         #endif
 126:.\mem1.c      ****         
 127:.\mem1.c      ****         #ifdef CY_PWM_PWM_9_H
 128:.\mem1.c      ****             case PWM_REGISTER8: return_flag = PWM_Control_8(cmd, dat, result); break;
 129:.\mem1.c      ****         #endif
 130:.\mem1.c      ****         
 131:.\mem1.c      ****         #ifdef CY_PWM_PWM_10_H
 132:.\mem1.c      ****             case PWM_REGISTER9: return_flag = PWM_Control_9(cmd, dat, result); break;
 133:.\mem1.c      ****         #endif
 134:.\mem1.c      ****         
 135:.\mem1.c      ****         #ifdef CY_PWM_PWM_11_H
 136:.\mem1.c      ****             case PWM_REGISTER10: return_flag = PWM_Control_10(cmd, dat, result); break;
 137:.\mem1.c      ****         #endif
 138:.\mem1.c      ****         
 139:.\mem1.c      ****         #ifdef CY_PWM_PWM_12_H
 140:.\mem1.c      ****             case PWM_REGISTER11: return_flag = PWM_Control_11(cmd, dat, result); break;
 141:.\mem1.c      ****         #endif
 142:.\mem1.c      ****         
 143:.\mem1.c      ****         #ifdef CY_ADC_SAR_Seq_1_H
 144:.\mem1.c      ****             case ANALOG_IN_REGISTER: return_flag = Analog_Read(cmd, dat, result); break;
 249              		.loc 1 144 0
 250 0190 BA7D     		ldrb	r2, [r7, #22]	@ zero_extendqisi2
 251 0192 BB8A     		ldrh	r3, [r7, #20]
 252 0194 1046     		mov	r0, r2
 253 0196 1946     		mov	r1, r3
 254 0198 3A6B     		ldr	r2, [r7, #48]
 255 019a FFF7FEFF 		bl	Analog_Read
ARM GAS  C:\Users\Robert\AppData\Local\Temp\cc7rr7YM.s 			page 8


 256 019e 0346     		mov	r3, r0
 257 01a0 FB75     		strb	r3, [r7, #23]
 258 01a2 76E0     		b	.L2
 259              	.L22:
 145:.\mem1.c      ****         #endif
 146:.\mem1.c      ****         
 147:.\mem1.c      ****         #ifdef CY_CAPSENSE_CSD_CapSense_1_H
 148:.\mem1.c      ****             case CAPSENSE_REGISTER: return_flag = CapSense_Read(cmd, dat, result); break;
 260              		.loc 1 148 0
 261 01a4 BA7D     		ldrb	r2, [r7, #22]	@ zero_extendqisi2
 262 01a6 BB8A     		ldrh	r3, [r7, #20]
 263 01a8 1046     		mov	r0, r2
 264 01aa 1946     		mov	r1, r3
 265 01ac 3A6B     		ldr	r2, [r7, #48]
 266 01ae FFF7FEFF 		bl	CapSense_Read
 267 01b2 0346     		mov	r3, r0
 268 01b4 FB75     		strb	r3, [r7, #23]
 269 01b6 6CE0     		b	.L2
 270              	.L24:
 149:.\mem1.c      ****         #endif
 150:.\mem1.c      ****         
 151:.\mem1.c      ****         #ifdef CY_Timer_v2_60_Timer_H
 152:.\mem1.c      ****             case RANGE_FINDER: return_flag = Range_Finder(cmd, vessel.port, vessel.pin, vessel.trig
 271              		.loc 1 152 0
 272 01b8 3B79     		ldrb	r3, [r7, #4]
 273 01ba C3F30303 		ubfx	r3, r3, #0, #4
 274 01be DBB2     		uxtb	r3, r3
 275 01c0 1E46     		mov	r6, r3
 276 01c2 3B79     		ldrb	r3, [r7, #4]
 277 01c4 C3F30213 		ubfx	r3, r3, #4, #3
 278 01c8 DBB2     		uxtb	r3, r3
 279 01ca 1D46     		mov	r5, r3
 280 01cc 7B79     		ldrb	r3, [r7, #5]
 281 01ce C3F30303 		ubfx	r3, r3, #0, #4
 282 01d2 DBB2     		uxtb	r3, r3
 283 01d4 1C46     		mov	r4, r3
 284 01d6 7B79     		ldrb	r3, [r7, #5]
 285 01d8 C3F30213 		ubfx	r3, r3, #4, #3
 286 01dc DBB2     		uxtb	r3, r3
 287 01de 1946     		mov	r1, r3
 288 01e0 BB7A     		ldrb	r3, [r7, #10]
 289 01e2 C3F30503 		ubfx	r3, r3, #0, #6
 290 01e6 DBB2     		uxtb	r3, r3
 291 01e8 BA7D     		ldrb	r2, [r7, #22]	@ zero_extendqisi2
 292 01ea 0091     		str	r1, [sp]
 293 01ec 0193     		str	r3, [sp, #4]
 294 01ee BB8A     		ldrh	r3, [r7, #20]
 295 01f0 0293     		str	r3, [sp, #8]
 296 01f2 3B6B     		ldr	r3, [r7, #48]
 297 01f4 0393     		str	r3, [sp, #12]
 298 01f6 1046     		mov	r0, r2
 299 01f8 3146     		mov	r1, r6
 300 01fa 2A46     		mov	r2, r5
 301 01fc 2346     		mov	r3, r4
 302 01fe FFF7FEFF 		bl	Range_Finder
 303 0202 0346     		mov	r3, r0
 304 0204 FB75     		strb	r3, [r7, #23]
ARM GAS  C:\Users\Robert\AppData\Local\Temp\cc7rr7YM.s 			page 9


 305 0206 44E0     		b	.L2
 306              	.L16:
 153:.\mem1.c      ****         #endif
 154:.\mem1.c      ****         #ifdef CY_SLIGHTS_StripLights_H
 155:.\mem1.c      ****             case STRIPLIGHT_REGISTER: return_flag = StripLightsControl(cmd, dat, vessel.row, vessel
 307              		.loc 1 155 0
 308 0208 7B7A     		ldrb	r3, [r7, #9]
 309 020a C3F3C203 		ubfx	r3, r3, #3, #3
 310 020e DBB2     		uxtb	r3, r3
 311 0210 1D46     		mov	r5, r3
 312 0212 7B7A     		ldrb	r3, [r7, #9]
 313 0214 C3F30203 		ubfx	r3, r3, #0, #3
 314 0218 DBB2     		uxtb	r3, r3
 315 021a 1C46     		mov	r4, r3
 316 021c FB68     		ldr	r3, [r7, #12]
 317 021e C3F31703 		ubfx	r3, r3, #0, #24
 318 0222 1946     		mov	r1, r3
 319 0224 BA7D     		ldrb	r2, [r7, #22]	@ zero_extendqisi2
 320 0226 BB8A     		ldrh	r3, [r7, #20]
 321 0228 0091     		str	r1, [sp]
 322 022a 1046     		mov	r0, r2
 323 022c 1946     		mov	r1, r3
 324 022e 2A46     		mov	r2, r5
 325 0230 2346     		mov	r3, r4
 326 0232 FFF7FEFF 		bl	StripLightsControl
 327 0236 0346     		mov	r3, r0
 328 0238 FB75     		strb	r3, [r7, #23]
 329 023a 2AE0     		b	.L2
 330              	.L23:
 156:.\mem1.c      ****         #endif
 157:.\mem1.c      ****         
 158:.\mem1.c      ****         case TEST_REGISTER: return_flag = test_read(dat, result); break;
 331              		.loc 1 158 0
 332 023c BB8A     		ldrh	r3, [r7, #20]
 333 023e 1846     		mov	r0, r3
 334 0240 396B     		ldr	r1, [r7, #48]
 335 0242 FFF7FEFF 		bl	test_read
 336 0246 0346     		mov	r3, r0
 337 0248 FB75     		strb	r3, [r7, #23]
 338 024a 22E0     		b	.L2
 339              	.L18:
 159:.\mem1.c      ****         
 160:.\mem1.c      ****         case GPIO_REGISTER: return_flag = GPIO_Control(cmd, vessel.port, vessel.pin, dat, result); 
 340              		.loc 1 160 0
 341 024c 3B79     		ldrb	r3, [r7, #4]
 342 024e C3F30303 		ubfx	r3, r3, #0, #4
 343 0252 DBB2     		uxtb	r3, r3
 344 0254 1946     		mov	r1, r3
 345 0256 3B79     		ldrb	r3, [r7, #4]
 346 0258 C3F30213 		ubfx	r3, r3, #4, #3
 347 025c DBB2     		uxtb	r3, r3
 348 025e 1D46     		mov	r5, r3
 349 0260 BA7D     		ldrb	r2, [r7, #22]	@ zero_extendqisi2
 350 0262 BC8A     		ldrh	r4, [r7, #20]
 351 0264 3B6B     		ldr	r3, [r7, #48]
 352 0266 0093     		str	r3, [sp]
 353 0268 1046     		mov	r0, r2
ARM GAS  C:\Users\Robert\AppData\Local\Temp\cc7rr7YM.s 			page 10


 354 026a 2A46     		mov	r2, r5
 355 026c 2346     		mov	r3, r4
 356 026e FFF7FEFF 		bl	GPIO_Control
 357 0272 0346     		mov	r3, r0
 358 0274 FB75     		strb	r3, [r7, #23]
 359 0276 0CE0     		b	.L2
 360              	.L25:
 161:.\mem1.c      ****         
 162:.\mem1.c      ****         case CHECK_BUILD: return_flag = CheckBuild(cmd, dat, result); break;
 361              		.loc 1 162 0
 362 0278 BA7D     		ldrb	r2, [r7, #22]	@ zero_extendqisi2
 363 027a BB8A     		ldrh	r3, [r7, #20]
 364 027c 1046     		mov	r0, r2
 365 027e 1946     		mov	r1, r3
 366 0280 3A6B     		ldr	r2, [r7, #48]
 367 0282 FFF7FEFF 		bl	CheckBuild
 368 0286 0346     		mov	r3, r0
 369 0288 FB75     		strb	r3, [r7, #23]
 370 028a 02E0     		b	.L2
 371              	.L26:
 163:.\mem1.c      ****         
 164:.\mem1.c      ****         case RESET_ADDRESS: CySoftwareReset(); break;
 372              		.loc 1 164 0
 373 028c FFF7FEFF 		bl	CySoftwareReset
 374 0290 00BF     		nop
 375              	.L2:
 165:.\mem1.c      ****         
 166:.\mem1.c      ****     }
 167:.\mem1.c      ****     
 168:.\mem1.c      ****     return return_flag;
 376              		.loc 1 168 0
 377 0292 FB7D     		ldrb	r3, [r7, #23]	@ zero_extendqisi2
 169:.\mem1.c      **** }
 378              		.loc 1 169 0
 379 0294 1846     		mov	r0, r3
 380 0296 1C37     		adds	r7, r7, #28
 381              		.cfi_def_cfa_offset 20
 382 0298 BD46     		mov	sp, r7
 383              		.cfi_def_cfa_register 13
 384              		@ sp needed
 385 029a F0BD     		pop	{r4, r5, r6, r7, pc}
 386              		.cfi_endproc
 387              	.LFE56:
 388              		.size	readData, .-readData
 389              		.section	.text.CheckBuild,"ax",%progbits
 390              		.align	2
 391              		.global	CheckBuild
 392              		.thumb
 393              		.thumb_func
 394              		.type	CheckBuild, %function
 395              	CheckBuild:
 396              	.LFB57:
 170:.\mem1.c      **** /*This function is used during init to tell the master device what is in the PSoC Creator file */
 171:.\mem1.c      **** /* This should not be edited */
 172:.\mem1.c      **** bool CheckBuild(uint8 cmd, uint16 val, uint32 *result)
 173:.\mem1.c      **** {
 397              		.loc 1 173 0
ARM GAS  C:\Users\Robert\AppData\Local\Temp\cc7rr7YM.s 			page 11


 398              		.cfi_startproc
 399              		@ args = 0, pretend = 0, frame = 24
 400              		@ frame_needed = 1, uses_anonymous_args = 0
 401 0000 80B5     		push	{r7, lr}
 402              		.cfi_def_cfa_offset 8
 403              		.cfi_offset 7, -8
 404              		.cfi_offset 14, -4
 405 0002 86B0     		sub	sp, sp, #24
 406              		.cfi_def_cfa_offset 32
 407 0004 00AF     		add	r7, sp, #0
 408              		.cfi_def_cfa_register 7
 409 0006 0346     		mov	r3, r0
 410 0008 3A60     		str	r2, [r7]
 411 000a FB71     		strb	r3, [r7, #7]
 412 000c 0B46     		mov	r3, r1	@ movhi
 413 000e BB80     		strh	r3, [r7, #4]	@ movhi
 174:.\mem1.c      ****     *result = 0;
 414              		.loc 1 174 0
 415 0010 3B68     		ldr	r3, [r7]
 416 0012 0022     		movs	r2, #0
 417 0014 1A60     		str	r2, [r3]
 175:.\mem1.c      ****     
 176:.\mem1.c      ****     uint8 PORT0 = 0x00;
 418              		.loc 1 176 0
 419 0016 0023     		movs	r3, #0
 420 0018 BB75     		strb	r3, [r7, #22]
 177:.\mem1.c      ****     uint8 PORT2 = 0x00;
 421              		.loc 1 177 0
 422 001a 0023     		movs	r3, #0
 423 001c 7B75     		strb	r3, [r7, #21]
 178:.\mem1.c      ****     uint8 PORT3 = 0x00;
 424              		.loc 1 178 0
 425 001e 0023     		movs	r3, #0
 426 0020 3B75     		strb	r3, [r7, #20]
 179:.\mem1.c      ****     uint8 PORT4 = 0x00;
 427              		.loc 1 179 0
 428 0022 0023     		movs	r3, #0
 429 0024 FB74     		strb	r3, [r7, #19]
 180:.\mem1.c      ****     uint8 PORT5 = 0x00;
 430              		.loc 1 180 0
 431 0026 0023     		movs	r3, #0
 432 0028 BB74     		strb	r3, [r7, #18]
 181:.\mem1.c      ****     uint8 PORT6 = 0x00;
 433              		.loc 1 181 0
 434 002a 0023     		movs	r3, #0
 435 002c 7B74     		strb	r3, [r7, #17]
 182:.\mem1.c      ****     uint8 PORT12 = 0x00;
 436              		.loc 1 182 0
 437 002e 0023     		movs	r3, #0
 438 0030 3B74     		strb	r3, [r7, #16]
 183:.\mem1.c      ****     uint8 PORT15 = 0x00;
 439              		.loc 1 183 0
 440 0032 0023     		movs	r3, #0
 441 0034 FB73     		strb	r3, [r7, #15]
 184:.\mem1.c      ****     uint8 cap_sensors = 0;
 442              		.loc 1 184 0
 443 0036 0023     		movs	r3, #0
ARM GAS  C:\Users\Robert\AppData\Local\Temp\cc7rr7YM.s 			page 12


 444 0038 BB73     		strb	r3, [r7, #14]
 185:.\mem1.c      ****     uint8 analogPins = 0;
 445              		.loc 1 185 0
 446 003a 0023     		movs	r3, #0
 447 003c 7B73     		strb	r3, [r7, #13]
 186:.\mem1.c      ****     
 187:.\mem1.c      ****     uint8 freq = 0x00;
 448              		.loc 1 187 0
 449 003e 0023     		movs	r3, #0
 450 0040 FB75     		strb	r3, [r7, #23]
 188:.\mem1.c      ****     
 189:.\mem1.c      ****    
 190:.\mem1.c      ****     switch(cmd)
 451              		.loc 1 190 0
 452 0042 FB79     		ldrb	r3, [r7, #7]	@ zero_extendqisi2
 453 0044 082B     		cmp	r3, #8
 454 0046 00F20482 		bhi	.L29
 455 004a 01A2     		adr	r2, .L31
 456 004c 52F823F0 		ldr	pc, [r2, r3, lsl #2]
 457              		.p2align 2
 458              	.L31:
 459 0050 75000000 		.word	.L30+1
 460 0054 CB000000 		.word	.L32+1
 461 0058 D3000000 		.word	.L33+1
 462 005c 29010000 		.word	.L34+1
 463 0060 7F010000 		.word	.L35+1
 464 0064 53040000 		.word	.L29+1
 465 0068 53040000 		.word	.L29+1
 466 006c CF010000 		.word	.L36+1
 467 0070 61030000 		.word	.L37+1
 468              		.p2align 1
 469              	.L30:
 191:.\mem1.c      ****     {
 192:.\mem1.c      ****         /* Check analog */
 193:.\mem1.c      ****         case 0x00: 
 194:.\mem1.c      **** 
 195:.\mem1.c      ****             #ifdef CY_ADC_DELSIG_ADC_DelSig_1_H
 196:.\mem1.c      ****                 *result |= 0x01;
 197:.\mem1.c      ****             #endif
 198:.\mem1.c      ****             
 199:.\mem1.c      ****             #ifdef CY_ADC_SAR_ADC_SAR_1_H 
 200:.\mem1.c      ****                 *result |= 0x01<<1;
 201:.\mem1.c      ****             #endif
 202:.\mem1.c      ****             
 203:.\mem1.c      ****             #ifdef CY_ADC_SAR_ADC_SAR_2_H 
 204:.\mem1.c      ****                 *result |= 0x01<<2;
 205:.\mem1.c      ****             #endif
 206:.\mem1.c      ****             
 207:.\mem1.c      ****             #ifdef CY_VDAC8_VDAC8_1_H
 208:.\mem1.c      ****                 *result |= 0x01<<3;      
 470              		.loc 1 208 0
 471 0074 3B68     		ldr	r3, [r7]
 472 0076 1B68     		ldr	r3, [r3]
 473 0078 43F00802 		orr	r2, r3, #8
 474 007c 3B68     		ldr	r3, [r7]
 475 007e 1A60     		str	r2, [r3]
 209:.\mem1.c      ****                 if (VDAC8_1_DEFAULT_RANGE == VDAC8_1_RANGE_4V)
ARM GAS  C:\Users\Robert\AppData\Local\Temp\cc7rr7YM.s 			page 13


 210:.\mem1.c      ****                 {
 211:.\mem1.c      ****                  *result|=(0x01<<20);   
 476              		.loc 1 211 0
 477 0080 3B68     		ldr	r3, [r7]
 478 0082 1B68     		ldr	r3, [r3]
 479 0084 43F48012 		orr	r2, r3, #1048576
 480 0088 3B68     		ldr	r3, [r7]
 481 008a 1A60     		str	r2, [r3]
 212:.\mem1.c      ****                 }
 213:.\mem1.c      ****             #endif
 214:.\mem1.c      ****          
 215:.\mem1.c      ****             #ifdef CY_VDAC8_VDAC8_2_H
 216:.\mem1.c      ****                 *result |= 0x01<<4;
 217:.\mem1.c      ****                 if (VDAC8_2_DEFAULT_RANGE == VDAC8_2_RANGE_4V)
 218:.\mem1.c      ****                 {
 219:.\mem1.c      ****                  *result|=(0x01<<21);   
 220:.\mem1.c      ****                 }
 221:.\mem1.c      ****             #endif
 222:.\mem1.c      ****             
 223:.\mem1.c      ****             #ifdef CY_IDAC8_IDAC8_1_H
 224:.\mem1.c      ****                 *result |= 0x01<<5; 
 482              		.loc 1 224 0
 483 008c 3B68     		ldr	r3, [r7]
 484 008e 1B68     		ldr	r3, [r3]
 485 0090 43F02002 		orr	r2, r3, #32
 486 0094 3B68     		ldr	r3, [r7]
 487 0096 1A60     		str	r2, [r3]
 225:.\mem1.c      ****                 if (IDAC8_1_DEFAULT_RANGE == IDAC8_1_RANGE_32uA)
 226:.\mem1.c      ****                 {
 227:.\mem1.c      ****                  *result|=(0x01<<23);   
 228:.\mem1.c      ****                 }
 229:.\mem1.c      ****                 else if (IDAC8_1_DEFAULT_RANGE == IDAC8_1_RANGE_255uA)
 230:.\mem1.c      ****                 {
 231:.\mem1.c      ****                  *result|=(0x10<<23);   
 232:.\mem1.c      ****                 }
 233:.\mem1.c      ****             #endif
 234:.\mem1.c      ****             
 235:.\mem1.c      ****             #ifdef CY_IDAC8_IDAC8_2_H
 236:.\mem1.c      ****                 *result |= 0x01<<6;
 237:.\mem1.c      ****                 if (IDAC8_2_DEFAULT_RANGE == IDAC8_2_RANGE_32uA)
 238:.\mem1.c      ****                 {
 239:.\mem1.c      ****                  *result|=(0x01<<25);   
 240:.\mem1.c      ****                 }
 241:.\mem1.c      ****                 else if (IDAC8_2_DEFAULT_RANGE == IDAC8_2_RANGE_32uA)
 242:.\mem1.c      ****                 {
 243:.\mem1.c      ****                  *result|=(0x10<<25);   
 244:.\mem1.c      ****                 }
 245:.\mem1.c      ****             #endif
 246:.\mem1.c      ****             
 247:.\mem1.c      ****             #ifdef CY_WaveDAC8_WaveDAC8_1_H
 248:.\mem1.c      ****                 *result |= 0x01<<7;    
 488              		.loc 1 248 0
 489 0098 3B68     		ldr	r3, [r7]
 490 009a 1B68     		ldr	r3, [r3]
 491 009c 43F08002 		orr	r2, r3, #128
 492 00a0 3B68     		ldr	r3, [r7]
 493 00a2 1A60     		str	r2, [r3]
ARM GAS  C:\Users\Robert\AppData\Local\Temp\cc7rr7YM.s 			page 14


 249:.\mem1.c      ****             #endif
 250:.\mem1.c      ****             
 251:.\mem1.c      ****             #ifdef CY_CAPSENSE_CSD_CapSense_1_H
 252:.\mem1.c      ****                 cap_sensors = CapSense_1_TOTAL_SENSOR_COUNT;
 494              		.loc 1 252 0
 495 00a4 0823     		movs	r3, #8
 496 00a6 BB73     		strb	r3, [r7, #14]
 253:.\mem1.c      ****             #endif
 254:.\mem1.c      ****             
 255:.\mem1.c      ****             #ifdef CY_ADC_SAR_Seq_1_H
 256:.\mem1.c      ****                 analogPins = ADC_SAR_Seq_1_NUMBER_OF_CHANNELS;
 497              		.loc 1 256 0
 498 00a8 0823     		movs	r3, #8
 499 00aa 7B73     		strb	r3, [r7, #13]
 257:.\mem1.c      ****             #endif
 258:.\mem1.c      ****             /* iiiivvccccccaaaaaaWIIVVSSD*/
 259:.\mem1.c      ****             *result|=(analogPins<<8);
 500              		.loc 1 259 0
 501 00ac 3B68     		ldr	r3, [r7]
 502 00ae 1B68     		ldr	r3, [r3]
 503 00b0 7A7B     		ldrb	r2, [r7, #13]	@ zero_extendqisi2
 504 00b2 1202     		lsls	r2, r2, #8
 505 00b4 1A43     		orrs	r2, r2, r3
 506 00b6 3B68     		ldr	r3, [r7]
 507 00b8 1A60     		str	r2, [r3]
 260:.\mem1.c      ****             *result|=(cap_sensors<<14);
 508              		.loc 1 260 0
 509 00ba 3B68     		ldr	r3, [r7]
 510 00bc 1B68     		ldr	r3, [r3]
 511 00be BA7B     		ldrb	r2, [r7, #14]	@ zero_extendqisi2
 512 00c0 9203     		lsls	r2, r2, #14
 513 00c2 1A43     		orrs	r2, r2, r3
 514 00c4 3B68     		ldr	r3, [r7]
 515 00c6 1A60     		str	r2, [r3]
 261:.\mem1.c      ****             
 262:.\mem1.c      ****             
 263:.\mem1.c      ****             
 264:.\mem1.c      ****                       
 265:.\mem1.c      ****             break;
 516              		.loc 1 265 0
 517 00c8 C3E1     		b	.L29
 518              	.L32:
 266:.\mem1.c      ****     
 267:.\mem1.c      ****     /* Check PWMs and clocks */
 268:.\mem1.c      ****         case 0x01: 
 269:.\mem1.c      ****             //result = (PWM_NUM<<16)|(CLK_NUM<<12)|(analogPins<<6)|cap_sensors;
 270:.\mem1.c      ****             /* ppppppCCCC*/            
 271:.\mem1.c      ****             *result = (PWM_NUM<<4)|CLK_NUM;
 519              		.loc 1 271 0
 520 00ca 3B68     		ldr	r3, [r7]
 521 00cc 8422     		movs	r2, #132
 522 00ce 1A60     		str	r2, [r3]
 272:.\mem1.c      ****             break;
 523              		.loc 1 272 0
 524 00d0 BFE1     		b	.L29
 525              	.L33:
 273:.\mem1.c      ****     
ARM GAS  C:\Users\Robert\AppData\Local\Temp\cc7rr7YM.s 			page 15


 274:.\mem1.c      ****     /* Check GPIO ports 0, 2, 3 */
 275:.\mem1.c      ****         case 0x02: 
 276:.\mem1.c      ****             /* PORT 0 */
 277:.\mem1.c      ****             #ifdef CY_PINS_GPIO_0_0_H
 278:.\mem1.c      ****                 PORT0 |= 0x01;
 279:.\mem1.c      ****             #endif
 280:.\mem1.c      ****             
 281:.\mem1.c      ****             #ifdef CY_PINS_GPIO_0_1_H
 282:.\mem1.c      ****                 PORT0 |= 0x01<<1;
 283:.\mem1.c      ****             #endif
 284:.\mem1.c      ****             
 285:.\mem1.c      ****             #ifdef CY_PINS_GPIO_0_2_H
 286:.\mem1.c      ****                 PORT0 |= 0x01<<2;
 287:.\mem1.c      ****             #endif
 288:.\mem1.c      ****             
 289:.\mem1.c      ****             #ifdef CY_PINS_GPIO_0_3_H
 290:.\mem1.c      ****                 PORT0 |= 0x01<<3;
 291:.\mem1.c      ****             #endif
 292:.\mem1.c      ****             
 293:.\mem1.c      ****             #ifdef CY_PINS_GPIO_0_4_H
 294:.\mem1.c      ****                 PORT0 |= 0x01<<4;
 295:.\mem1.c      ****             #endif
 296:.\mem1.c      ****             
 297:.\mem1.c      ****             #ifdef CY_PINS_GPIO_0_5_H
 298:.\mem1.c      ****                 PORT0 |= 0x01<<5;
 299:.\mem1.c      ****             #endif
 300:.\mem1.c      ****             
 301:.\mem1.c      ****             #ifdef CY_PINS_GPIO_0_6_H
 302:.\mem1.c      ****                 PORT0 |= 0x01<<6;
 303:.\mem1.c      ****             #endif
 304:.\mem1.c      ****             
 305:.\mem1.c      ****             #ifdef CY_PINS_GPIO_0_7_H
 306:.\mem1.c      ****                 PORT0 |= 0x01<<7;
 307:.\mem1.c      ****             #endif
 308:.\mem1.c      ****             
 309:.\mem1.c      ****             /* PORT 2 */
 310:.\mem1.c      ****             #ifdef CY_PINS_GPIO_2_0_H
 311:.\mem1.c      ****                 PORT2 |= 0x01;
 526              		.loc 1 311 0
 527 00d2 7B7D     		ldrb	r3, [r7, #21]
 528 00d4 43F00103 		orr	r3, r3, #1
 529 00d8 7B75     		strb	r3, [r7, #21]
 312:.\mem1.c      ****             #endif
 313:.\mem1.c      ****             
 314:.\mem1.c      ****             #ifdef CY_PINS_GPIO_2_1_H
 315:.\mem1.c      ****                 PORT2 |= 0x01<<1;
 530              		.loc 1 315 0
 531 00da 7B7D     		ldrb	r3, [r7, #21]
 532 00dc 43F00203 		orr	r3, r3, #2
 533 00e0 7B75     		strb	r3, [r7, #21]
 316:.\mem1.c      ****             #endif
 317:.\mem1.c      ****             
 318:.\mem1.c      ****             #ifdef CY_PINS_GPIO_2_2_H
 319:.\mem1.c      ****                 PORT2 |= 0x01<<2;
 534              		.loc 1 319 0
 535 00e2 7B7D     		ldrb	r3, [r7, #21]
 536 00e4 43F00403 		orr	r3, r3, #4
ARM GAS  C:\Users\Robert\AppData\Local\Temp\cc7rr7YM.s 			page 16


 537 00e8 7B75     		strb	r3, [r7, #21]
 320:.\mem1.c      ****             #endif
 321:.\mem1.c      ****             
 322:.\mem1.c      ****             #ifdef CY_PINS_GPIO_2_3_H
 323:.\mem1.c      ****                 PORT2 |= 0x01<<3;
 538              		.loc 1 323 0
 539 00ea 7B7D     		ldrb	r3, [r7, #21]
 540 00ec 43F00803 		orr	r3, r3, #8
 541 00f0 7B75     		strb	r3, [r7, #21]
 324:.\mem1.c      ****             #endif
 325:.\mem1.c      ****             
 326:.\mem1.c      ****             #ifdef CY_PINS_GPIO_2_4_H
 327:.\mem1.c      ****                 PORT2 |= 0x01<<4;
 542              		.loc 1 327 0
 543 00f2 7B7D     		ldrb	r3, [r7, #21]
 544 00f4 43F01003 		orr	r3, r3, #16
 545 00f8 7B75     		strb	r3, [r7, #21]
 328:.\mem1.c      ****             #endif
 329:.\mem1.c      ****             
 330:.\mem1.c      ****             #ifdef CY_PINS_GPIO_2_5_H
 331:.\mem1.c      ****                 PORT2 |= 0x01<<5;
 546              		.loc 1 331 0
 547 00fa 7B7D     		ldrb	r3, [r7, #21]
 548 00fc 43F02003 		orr	r3, r3, #32
 549 0100 7B75     		strb	r3, [r7, #21]
 332:.\mem1.c      ****             #endif
 333:.\mem1.c      ****             
 334:.\mem1.c      ****             #ifdef CY_PINS_GPIO_2_6_H
 335:.\mem1.c      ****                 PORT2 |= 0x01<<6;
 550              		.loc 1 335 0
 551 0102 7B7D     		ldrb	r3, [r7, #21]
 552 0104 43F04003 		orr	r3, r3, #64
 553 0108 7B75     		strb	r3, [r7, #21]
 336:.\mem1.c      ****             #endif
 337:.\mem1.c      ****             
 338:.\mem1.c      ****             #ifdef CY_PINS_GPIO_2_7_H
 339:.\mem1.c      ****                 PORT2 |= 0x01<<7;
 554              		.loc 1 339 0
 555 010a 7B7D     		ldrb	r3, [r7, #21]
 556 010c 63F07F03 		orn	r3, r3, #127
 557 0110 7B75     		strb	r3, [r7, #21]
 340:.\mem1.c      ****             #endif
 341:.\mem1.c      ****             
 342:.\mem1.c      ****             /* PORT 3 */
 343:.\mem1.c      ****             #ifdef CY_PINS_GPIO_3_0_H
 344:.\mem1.c      ****                 PORT3 |= 0x01;
 345:.\mem1.c      ****             #endif
 346:.\mem1.c      ****             
 347:.\mem1.c      ****             #ifdef CY_PINS_GPIO_3_1_H
 348:.\mem1.c      ****                 PORT3 |= 0x01<<1;
 349:.\mem1.c      ****             #endif
 350:.\mem1.c      ****             
 351:.\mem1.c      ****             #ifdef CY_PINS_GPIO_3_2_H
 352:.\mem1.c      ****                 PORT3 |= 0x01<<2;
 353:.\mem1.c      ****             #endif
 354:.\mem1.c      ****             
 355:.\mem1.c      ****             #ifdef CY_PINS_GPIO_3_3_H
ARM GAS  C:\Users\Robert\AppData\Local\Temp\cc7rr7YM.s 			page 17


 356:.\mem1.c      ****                 PORT3 |= 0x01<<3;
 357:.\mem1.c      ****             #endif
 358:.\mem1.c      ****             
 359:.\mem1.c      ****             #ifdef CY_PINS_GPIO_3_4_H
 360:.\mem1.c      ****                 PORT3 |= 0x01<<4;
 361:.\mem1.c      ****             #endif
 362:.\mem1.c      ****             
 363:.\mem1.c      ****             #ifdef CY_PINS_GPIO_3_5_H
 364:.\mem1.c      ****                 PORT3 |= 0x01<<5;
 365:.\mem1.c      ****             #endif
 366:.\mem1.c      ****             
 367:.\mem1.c      ****             #ifdef CY_PINS_GPIO_3_6_H
 368:.\mem1.c      ****                 PORT3 |= 0x01<<6;
 369:.\mem1.c      ****             #endif
 370:.\mem1.c      ****             
 371:.\mem1.c      ****             #ifdef CY_PINS_GPIO_3_7_H
 372:.\mem1.c      ****                 PORT3 |= 0x01<<7;
 373:.\mem1.c      ****             #endif
 374:.\mem1.c      ****             
 375:.\mem1.c      ****             *result = (((PORT3<<16)|PORT2<<8)|PORT0);
 558              		.loc 1 375 0
 559 0112 3B7D     		ldrb	r3, [r7, #20]	@ zero_extendqisi2
 560 0114 1A04     		lsls	r2, r3, #16
 561 0116 7B7D     		ldrb	r3, [r7, #21]	@ zero_extendqisi2
 562 0118 1B02     		lsls	r3, r3, #8
 563 011a 1A43     		orrs	r2, r2, r3
 564 011c BB7D     		ldrb	r3, [r7, #22]	@ zero_extendqisi2
 565 011e 1343     		orrs	r3, r3, r2
 566 0120 1A46     		mov	r2, r3
 567 0122 3B68     		ldr	r3, [r7]
 568 0124 1A60     		str	r2, [r3]
 376:.\mem1.c      ****             
 377:.\mem1.c      ****             break;
 569              		.loc 1 377 0
 570 0126 94E1     		b	.L29
 571              	.L34:
 378:.\mem1.c      ****             
 379:.\mem1.c      ****     /* Check GPIO ports 4, 5, 6 */
 380:.\mem1.c      ****         case 0x03: 
 381:.\mem1.c      ****             
 382:.\mem1.c      ****             /* PORT 4 */
 383:.\mem1.c      ****             #ifdef CY_PINS_GPIO_4_0_H
 384:.\mem1.c      ****                 PORT4 |= 0x01;
 385:.\mem1.c      ****             #endif
 386:.\mem1.c      ****             
 387:.\mem1.c      ****             #ifdef CY_PINS_GPIO_4_1_H
 388:.\mem1.c      ****                 PORT4 |= 0x01<<1;
 389:.\mem1.c      ****             #endif
 390:.\mem1.c      ****             
 391:.\mem1.c      ****             #ifdef CY_PINS_GPIO_4_2_H
 392:.\mem1.c      ****                 PORT4 |= 0x01<<2;
 393:.\mem1.c      ****             #endif
 394:.\mem1.c      ****             
 395:.\mem1.c      ****             #ifdef CY_PINS_GPIO_4_3_H
 396:.\mem1.c      ****                 PORT4 |= 0x01<<3;
 397:.\mem1.c      ****             #endif
 398:.\mem1.c      ****             
ARM GAS  C:\Users\Robert\AppData\Local\Temp\cc7rr7YM.s 			page 18


 399:.\mem1.c      ****             #ifdef CY_PINS_GPIO_4_4_H
 400:.\mem1.c      ****                 PORT4 |= 0x01<<4;
 401:.\mem1.c      ****             #endif
 402:.\mem1.c      ****             
 403:.\mem1.c      ****             #ifdef CY_PINS_GPIO_4_5_H
 404:.\mem1.c      ****                 PORT4 |= 0x01<<5;
 405:.\mem1.c      ****             #endif
 406:.\mem1.c      ****             
 407:.\mem1.c      ****             #ifdef CY_PINS_GPIO_4_6_H
 408:.\mem1.c      ****                 PORT4 |= 0x01<<6;
 409:.\mem1.c      ****             #endif
 410:.\mem1.c      ****             
 411:.\mem1.c      ****             #ifdef CY_PINS_GPIO_4_7_H
 412:.\mem1.c      ****                 PORT4 |= 0x01<<7;
 413:.\mem1.c      ****             #endif
 414:.\mem1.c      ****             
 415:.\mem1.c      ****             /* PORT 5 */
 416:.\mem1.c      ****             #ifdef CY_PINS_GPIO_5_0_H
 417:.\mem1.c      ****                 PORT5 |= 0x01;
 572              		.loc 1 417 0
 573 0128 BB7C     		ldrb	r3, [r7, #18]
 574 012a 43F00103 		orr	r3, r3, #1
 575 012e BB74     		strb	r3, [r7, #18]
 418:.\mem1.c      ****             #endif
 419:.\mem1.c      ****             
 420:.\mem1.c      ****             #ifdef CY_PINS_GPIO_5_1_H
 421:.\mem1.c      ****                 PORT5 |= 0x01<<1;
 576              		.loc 1 421 0
 577 0130 BB7C     		ldrb	r3, [r7, #18]
 578 0132 43F00203 		orr	r3, r3, #2
 579 0136 BB74     		strb	r3, [r7, #18]
 422:.\mem1.c      ****             #endif
 423:.\mem1.c      ****             
 424:.\mem1.c      ****             #ifdef CY_PINS_GPIO_5_2_H
 425:.\mem1.c      ****                 PORT5 |= 0x01<<2;
 580              		.loc 1 425 0
 581 0138 BB7C     		ldrb	r3, [r7, #18]
 582 013a 43F00403 		orr	r3, r3, #4
 583 013e BB74     		strb	r3, [r7, #18]
 426:.\mem1.c      ****             #endif
 427:.\mem1.c      ****             
 428:.\mem1.c      ****             #ifdef CY_PINS_GPIO_5_3_H
 429:.\mem1.c      ****                 PORT5 |= 0x01<<3;
 584              		.loc 1 429 0
 585 0140 BB7C     		ldrb	r3, [r7, #18]
 586 0142 43F00803 		orr	r3, r3, #8
 587 0146 BB74     		strb	r3, [r7, #18]
 430:.\mem1.c      ****             #endif
 431:.\mem1.c      ****             
 432:.\mem1.c      ****             #ifdef CY_PINS_GPIO_5_4_H
 433:.\mem1.c      ****                 PORT5 |= 0x01<<4;
 588              		.loc 1 433 0
 589 0148 BB7C     		ldrb	r3, [r7, #18]
 590 014a 43F01003 		orr	r3, r3, #16
 591 014e BB74     		strb	r3, [r7, #18]
 434:.\mem1.c      ****             #endif
 435:.\mem1.c      ****             
ARM GAS  C:\Users\Robert\AppData\Local\Temp\cc7rr7YM.s 			page 19


 436:.\mem1.c      ****             #ifdef CY_PINS_GPIO_5_5_H
 437:.\mem1.c      ****                 PORT5 |= 0x01<<5;
 592              		.loc 1 437 0
 593 0150 BB7C     		ldrb	r3, [r7, #18]
 594 0152 43F02003 		orr	r3, r3, #32
 595 0156 BB74     		strb	r3, [r7, #18]
 438:.\mem1.c      ****             #endif
 439:.\mem1.c      ****             
 440:.\mem1.c      ****             #ifdef CY_PINS_GPIO_5_6_H
 441:.\mem1.c      ****                 PORT5 |= 0x01<<6;
 596              		.loc 1 441 0
 597 0158 BB7C     		ldrb	r3, [r7, #18]
 598 015a 43F04003 		orr	r3, r3, #64
 599 015e BB74     		strb	r3, [r7, #18]
 442:.\mem1.c      ****             #endif
 443:.\mem1.c      ****             
 444:.\mem1.c      ****             #ifdef CY_PINS_GPIO_5_7_H
 445:.\mem1.c      ****                 PORT5 |= 0x01<<7;
 600              		.loc 1 445 0
 601 0160 BB7C     		ldrb	r3, [r7, #18]
 602 0162 63F07F03 		orn	r3, r3, #127
 603 0166 BB74     		strb	r3, [r7, #18]
 446:.\mem1.c      ****             #endif
 447:.\mem1.c      ****             
 448:.\mem1.c      ****             /* PORT 6 */
 449:.\mem1.c      ****             #ifdef CY_PINS_GPIO_6_0_H
 450:.\mem1.c      ****                 PORT6 |= 0x01;
 451:.\mem1.c      ****             #endif
 452:.\mem1.c      ****             
 453:.\mem1.c      ****             #ifdef CY_PINS_GPIO_6_1_H
 454:.\mem1.c      ****                 PORT6 |= 0x01<<1;
 455:.\mem1.c      ****             #endif
 456:.\mem1.c      ****             
 457:.\mem1.c      ****             #ifdef CY_PINS_GPIO_6_2_H
 458:.\mem1.c      ****                 PORT6 |= 0x01<<2;
 459:.\mem1.c      ****             #endif
 460:.\mem1.c      ****             
 461:.\mem1.c      ****             #ifdef CY_PINS_GPIO_6_3_H
 462:.\mem1.c      ****                 PORT6 |= 0x01<<3;
 463:.\mem1.c      ****             #endif
 464:.\mem1.c      ****             
 465:.\mem1.c      ****             #ifdef CY_PINS_GPIO_6_4_H
 466:.\mem1.c      ****                 PORT6 |= 0x01<<4;
 467:.\mem1.c      ****             #endif
 468:.\mem1.c      ****             
 469:.\mem1.c      ****             #ifdef CY_PINS_GPIO_6_5_H
 470:.\mem1.c      ****                 PORT6 |= 0x01<<5;
 471:.\mem1.c      ****             #endif
 472:.\mem1.c      ****             
 473:.\mem1.c      ****             #ifdef CY_PINS_GPIO_6_6_H
 474:.\mem1.c      ****                 PORT6 |= 0x01<<6;
 475:.\mem1.c      ****             #endif
 476:.\mem1.c      ****             
 477:.\mem1.c      ****             #ifdef CY_PINS_GPIO_6_7_H
 478:.\mem1.c      ****                 PORT6 |= 0x01<<7;
 479:.\mem1.c      ****             #endif
 480:.\mem1.c      ****             
ARM GAS  C:\Users\Robert\AppData\Local\Temp\cc7rr7YM.s 			page 20


 481:.\mem1.c      ****             *result = (((PORT6<<16)|PORT5<<8)|PORT4);
 604              		.loc 1 481 0
 605 0168 7B7C     		ldrb	r3, [r7, #17]	@ zero_extendqisi2
 606 016a 1A04     		lsls	r2, r3, #16
 607 016c BB7C     		ldrb	r3, [r7, #18]	@ zero_extendqisi2
 608 016e 1B02     		lsls	r3, r3, #8
 609 0170 1A43     		orrs	r2, r2, r3
 610 0172 FB7C     		ldrb	r3, [r7, #19]	@ zero_extendqisi2
 611 0174 1343     		orrs	r3, r3, r2
 612 0176 1A46     		mov	r2, r3
 613 0178 3B68     		ldr	r3, [r7]
 614 017a 1A60     		str	r2, [r3]
 482:.\mem1.c      ****            
 483:.\mem1.c      ****             break;
 615              		.loc 1 483 0
 616 017c 69E1     		b	.L29
 617              	.L35:
 484:.\mem1.c      ****             
 485:.\mem1.c      ****     /* Check GPIO ports 12, 15 */
 486:.\mem1.c      ****         case 0x04: 
 487:.\mem1.c      ****             /* PORT 12 */
 488:.\mem1.c      ****             #ifdef CY_PINS_GPIO_12_0_H
 489:.\mem1.c      ****                 PORT12 |= 0x01;
 618              		.loc 1 489 0
 619 017e 3B7C     		ldrb	r3, [r7, #16]
 620 0180 43F00103 		orr	r3, r3, #1
 621 0184 3B74     		strb	r3, [r7, #16]
 490:.\mem1.c      ****             #endif
 491:.\mem1.c      ****             
 492:.\mem1.c      ****             #ifdef CY_PINS_GPIO_12_1_H
 493:.\mem1.c      ****                 PORT12 |= 0x01<<1;
 622              		.loc 1 493 0
 623 0186 3B7C     		ldrb	r3, [r7, #16]
 624 0188 43F00203 		orr	r3, r3, #2
 625 018c 3B74     		strb	r3, [r7, #16]
 494:.\mem1.c      ****             #endif
 495:.\mem1.c      ****             
 496:.\mem1.c      ****             #ifdef CY_PINS_GPIO_12_2_H
 497:.\mem1.c      ****                 PORT12 |= 0x01<<2;
 626              		.loc 1 497 0
 627 018e 3B7C     		ldrb	r3, [r7, #16]
 628 0190 43F00403 		orr	r3, r3, #4
 629 0194 3B74     		strb	r3, [r7, #16]
 498:.\mem1.c      ****             #endif
 499:.\mem1.c      ****             
 500:.\mem1.c      ****             #ifdef CY_PINS_GPIO_12_3_H
 501:.\mem1.c      ****                 PORT12 |= 0x01<<3;
 630              		.loc 1 501 0
 631 0196 3B7C     		ldrb	r3, [r7, #16]
 632 0198 43F00803 		orr	r3, r3, #8
 633 019c 3B74     		strb	r3, [r7, #16]
 502:.\mem1.c      ****             #endif
 503:.\mem1.c      ****             
 504:.\mem1.c      ****             #ifdef CY_PINS_GPIO_12_4_H
 505:.\mem1.c      ****                 PORT12 |= 0x01<<4;
 634              		.loc 1 505 0
 635 019e 3B7C     		ldrb	r3, [r7, #16]
ARM GAS  C:\Users\Robert\AppData\Local\Temp\cc7rr7YM.s 			page 21


 636 01a0 43F01003 		orr	r3, r3, #16
 637 01a4 3B74     		strb	r3, [r7, #16]
 506:.\mem1.c      ****             #endif
 507:.\mem1.c      ****             
 508:.\mem1.c      ****             #ifdef CY_PINS_GPIO_12_5_H
 509:.\mem1.c      ****                 PORT12 |= 0x01<<5;
 638              		.loc 1 509 0
 639 01a6 3B7C     		ldrb	r3, [r7, #16]
 640 01a8 43F02003 		orr	r3, r3, #32
 641 01ac 3B74     		strb	r3, [r7, #16]
 510:.\mem1.c      ****             #endif
 511:.\mem1.c      ****             
 512:.\mem1.c      ****             #ifdef CY_PINS_GPIO_12_6_H
 513:.\mem1.c      ****                 PORT12 |= 0x01<<6;
 642              		.loc 1 513 0
 643 01ae 3B7C     		ldrb	r3, [r7, #16]
 644 01b0 43F04003 		orr	r3, r3, #64
 645 01b4 3B74     		strb	r3, [r7, #16]
 514:.\mem1.c      ****             #endif
 515:.\mem1.c      ****             
 516:.\mem1.c      ****             #ifdef CY_PINS_GPIO_12_7_H
 517:.\mem1.c      ****                 PORT12 |= 0x01<<7;
 646              		.loc 1 517 0
 647 01b6 3B7C     		ldrb	r3, [r7, #16]
 648 01b8 63F07F03 		orn	r3, r3, #127
 649 01bc 3B74     		strb	r3, [r7, #16]
 518:.\mem1.c      ****             #endif
 519:.\mem1.c      ****             
 520:.\mem1.c      ****              /* PORT 15 */
 521:.\mem1.c      ****             #ifdef CY_PINS_GPIO_15_0_H
 522:.\mem1.c      ****                 PORT15 |= 0x01;
 523:.\mem1.c      ****             #endif
 524:.\mem1.c      ****             
 525:.\mem1.c      ****             #ifdef CY_PINS_GPIO_15_1_H
 526:.\mem1.c      ****                 PORT15 |= 0x01<<1;
 527:.\mem1.c      ****             #endif
 528:.\mem1.c      ****             
 529:.\mem1.c      ****             #ifdef CY_PINS_GPIO_15_2_H
 530:.\mem1.c      ****                 PORT15 |= 0x01<<2;
 531:.\mem1.c      ****             #endif
 532:.\mem1.c      ****             
 533:.\mem1.c      ****             #ifdef CY_PINS_GPIO_15_3_H
 534:.\mem1.c      ****                 PORT15 |= 0x01<<3;
 535:.\mem1.c      ****             #endif
 536:.\mem1.c      ****             
 537:.\mem1.c      ****             #ifdef CY_PINS_GPIO_15_4_H
 538:.\mem1.c      ****                 PORT15 |= 0x01<<4;
 539:.\mem1.c      ****             #endif
 540:.\mem1.c      ****             
 541:.\mem1.c      ****             #ifdef CY_PINS_GPIO_15_5_H
 542:.\mem1.c      ****                 PORT15 |= 0x01<<5;
 543:.\mem1.c      ****             #endif
 544:.\mem1.c      ****             
 545:.\mem1.c      ****             #ifdef CY_PINS_GPIO_15_6_H
 546:.\mem1.c      ****                 PORT15 |= 0x01<<6;
 547:.\mem1.c      ****             #endif
 548:.\mem1.c      ****             
ARM GAS  C:\Users\Robert\AppData\Local\Temp\cc7rr7YM.s 			page 22


 549:.\mem1.c      ****             #ifdef CY_PINS_GPIO_15_7_H
 550:.\mem1.c      ****                 PORT15 |= 0x01<<7;
 551:.\mem1.c      ****             #endif
 552:.\mem1.c      ****             
 553:.\mem1.c      ****             *result = (PORT15<<8)|(PORT12);
 650              		.loc 1 553 0
 651 01be FB7B     		ldrb	r3, [r7, #15]	@ zero_extendqisi2
 652 01c0 1A02     		lsls	r2, r3, #8
 653 01c2 3B7C     		ldrb	r3, [r7, #16]	@ zero_extendqisi2
 654 01c4 1343     		orrs	r3, r3, r2
 655 01c6 1A46     		mov	r2, r3
 656 01c8 3B68     		ldr	r3, [r7]
 657 01ca 1A60     		str	r2, [r3]
 554:.\mem1.c      ****            
 555:.\mem1.c      ****             break;
 658              		.loc 1 555 0
 659 01cc 41E1     		b	.L29
 660              	.L36:
 556:.\mem1.c      ****   
 557:.\mem1.c      ****     /* Check PWM CLOCKS */
 558:.\mem1.c      ****         //test
 559:.\mem1.c      ****         case 0x07:
 560:.\mem1.c      ****             switch(val)
 661              		.loc 1 560 0
 662 01ce BB88     		ldrh	r3, [r7, #4]
 663 01d0 0B2B     		cmp	r3, #11
 664 01d2 00F23B81 		bhi	.L85
 665 01d6 01A2     		adr	r2, .L40
 666 01d8 52F823F0 		ldr	pc, [r2, r3, lsl #2]
 667              		.p2align 2
 668              	.L40:
 669 01dc 0D020000 		.word	.L39+1
 670 01e0 61020000 		.word	.L41+1
 671 01e4 B5020000 		.word	.L42+1
 672 01e8 09030000 		.word	.L43+1
 673 01ec 5D030000 		.word	.L86+1
 674 01f0 5D030000 		.word	.L86+1
 675 01f4 5D030000 		.word	.L86+1
 676 01f8 5D030000 		.word	.L86+1
 677 01fc 5D030000 		.word	.L86+1
 678 0200 5D030000 		.word	.L86+1
 679 0204 5D030000 		.word	.L86+1
 680 0208 5D030000 		.word	.L86+1
 681              		.p2align 1
 682              	.L39:
 561:.\mem1.c      ****             {
 562:.\mem1.c      ****                 case 0x00:
 563:.\mem1.c      ****                     #ifdef PWM_CLK_1
 564:.\mem1.c      ****                         switch(PWM_CLK_1__SOURCE)
 683              		.loc 1 564 0
 684 020c FFF7FEFF 		bl	PWM_CLK_1_GetSourceRegister
 685 0210 0346     		mov	r3, r0
 686 0212 042B     		cmp	r3, #4
 687 0214 18D8     		bhi	.L52
 688 0216 01A2     		adr	r2, .L54
 689 0218 52F823F0 		ldr	pc, [r2, r3, lsl #2]
 690              		.p2align 2
ARM GAS  C:\Users\Robert\AppData\Local\Temp\cc7rr7YM.s 			page 23


 691              	.L54:
 692 021c 31020000 		.word	.L53+1
 693 0220 37020000 		.word	.L55+1
 694 0224 49020000 		.word	.L52+1
 695 0228 3D020000 		.word	.L56+1
 696 022c 43020000 		.word	.L57+1
 697              		.p2align 1
 698              	.L53:
 565:.\mem1.c      ****                         {
 566:.\mem1.c      ****                             case CYCLK_SRC_SEL_SYNC_DIG: freq = 0x01;break;
 699              		.loc 1 566 0
 700 0230 0123     		movs	r3, #1
 701 0232 FB75     		strb	r3, [r7, #23]
 702 0234 08E0     		b	.L52
 703              	.L55:
 567:.\mem1.c      ****                             case CYCLK_SRC_SEL_IMO: freq = 0x02;break;
 704              		.loc 1 567 0
 705 0236 0223     		movs	r3, #2
 706 0238 FB75     		strb	r3, [r7, #23]
 707 023a 05E0     		b	.L52
 708              	.L56:
 568:.\mem1.c      ****                             case CYCLK_SRC_SEL_ILO: freq = 0x03;break;
 709              		.loc 1 568 0
 710 023c 0323     		movs	r3, #3
 711 023e FB75     		strb	r3, [r7, #23]
 712 0240 02E0     		b	.L52
 713              	.L57:
 569:.\mem1.c      ****                             case CYCLK_SRC_SEL_PLL: freq = 0x04;break;
 714              		.loc 1 569 0
 715 0242 0423     		movs	r3, #4
 716 0244 FB75     		strb	r3, [r7, #23]
 717 0246 00BF     		nop
 718              	.L52:
 570:.\mem1.c      ****                         }
 571:.\mem1.c      ****                         
 572:.\mem1.c      ****                     *result = (PWM_CLK_1__DIV)|(freq<<16)|(PWM_CLK_1<<19);
 719              		.loc 1 572 0
 720 0248 FFF7FEFF 		bl	PWM_CLK_1_GetDividerRegister
 721 024c 0346     		mov	r3, r0
 722 024e 0133     		adds	r3, r3, #1
 723 0250 FA7D     		ldrb	r2, [r7, #23]	@ zero_extendqisi2
 724 0252 1204     		lsls	r2, r2, #16
 725 0254 1343     		orrs	r3, r3, r2
 726 0256 43F40022 		orr	r2, r3, #524288
 727 025a 3B68     		ldr	r3, [r7]
 728 025c 1A60     		str	r2, [r3]
 573:.\mem1.c      ****                     /* ccccfffdddddddddddddddd*/
 574:.\mem1.c      ****                     #endif
 575:.\mem1.c      ****                     break;
 729              		.loc 1 575 0
 730 025e 7EE0     		b	.L38
 731              	.L41:
 576:.\mem1.c      ****                     
 577:.\mem1.c      ****                 case 0x01:
 578:.\mem1.c      ****                     #ifdef PWM_CLK_2
 579:.\mem1.c      ****                         switch(PWM_CLK_2__SOURCE)
 732              		.loc 1 579 0
ARM GAS  C:\Users\Robert\AppData\Local\Temp\cc7rr7YM.s 			page 24


 733 0260 FFF7FEFF 		bl	PWM_CLK_2_GetSourceRegister
 734 0264 0346     		mov	r3, r0
 735 0266 042B     		cmp	r3, #4
 736 0268 18D8     		bhi	.L58
 737 026a 01A2     		adr	r2, .L60
 738 026c 52F823F0 		ldr	pc, [r2, r3, lsl #2]
 739              		.p2align 2
 740              	.L60:
 741 0270 85020000 		.word	.L59+1
 742 0274 8B020000 		.word	.L61+1
 743 0278 9D020000 		.word	.L58+1
 744 027c 91020000 		.word	.L62+1
 745 0280 97020000 		.word	.L63+1
 746              		.p2align 1
 747              	.L59:
 580:.\mem1.c      ****                         {
 581:.\mem1.c      ****                             case CYCLK_SRC_SEL_SYNC_DIG: freq = 0x01;break;
 748              		.loc 1 581 0
 749 0284 0123     		movs	r3, #1
 750 0286 FB75     		strb	r3, [r7, #23]
 751 0288 08E0     		b	.L58
 752              	.L61:
 582:.\mem1.c      ****                             case CYCLK_SRC_SEL_IMO: freq = 0x02;break;
 753              		.loc 1 582 0
 754 028a 0223     		movs	r3, #2
 755 028c FB75     		strb	r3, [r7, #23]
 756 028e 05E0     		b	.L58
 757              	.L62:
 583:.\mem1.c      ****                             case CYCLK_SRC_SEL_ILO: freq = 0x03;break;
 758              		.loc 1 583 0
 759 0290 0323     		movs	r3, #3
 760 0292 FB75     		strb	r3, [r7, #23]
 761 0294 02E0     		b	.L58
 762              	.L63:
 584:.\mem1.c      ****                             case CYCLK_SRC_SEL_PLL: freq = 0x04;break;
 763              		.loc 1 584 0
 764 0296 0423     		movs	r3, #4
 765 0298 FB75     		strb	r3, [r7, #23]
 766 029a 00BF     		nop
 767              	.L58:
 585:.\mem1.c      ****                         }
 586:.\mem1.c      ****                         
 587:.\mem1.c      ****                     *result = (PWM_CLK_2__DIV)|(freq<<16)|(PWM_CLK_2<<19);
 768              		.loc 1 587 0
 769 029c FFF7FEFF 		bl	PWM_CLK_2_GetDividerRegister
 770 02a0 0346     		mov	r3, r0
 771 02a2 0133     		adds	r3, r3, #1
 772 02a4 FA7D     		ldrb	r2, [r7, #23]	@ zero_extendqisi2
 773 02a6 1204     		lsls	r2, r2, #16
 774 02a8 1343     		orrs	r3, r3, r2
 775 02aa 43F48012 		orr	r2, r3, #1048576
 776 02ae 3B68     		ldr	r3, [r7]
 777 02b0 1A60     		str	r2, [r3]
 588:.\mem1.c      ****                     #endif
 589:.\mem1.c      ****                     break;
 778              		.loc 1 589 0
 779 02b2 54E0     		b	.L38
ARM GAS  C:\Users\Robert\AppData\Local\Temp\cc7rr7YM.s 			page 25


 780              	.L42:
 590:.\mem1.c      ****                     
 591:.\mem1.c      ****                 case 0x02:
 592:.\mem1.c      ****                     #ifdef PWM_CLK_3
 593:.\mem1.c      ****                         switch(PWM_CLK_3__SOURCE)
 781              		.loc 1 593 0
 782 02b4 FFF7FEFF 		bl	PWM_CLK_3_GetSourceRegister
 783 02b8 0346     		mov	r3, r0
 784 02ba 042B     		cmp	r3, #4
 785 02bc 18D8     		bhi	.L64
 786 02be 01A2     		adr	r2, .L66
 787 02c0 52F823F0 		ldr	pc, [r2, r3, lsl #2]
 788              		.p2align 2
 789              	.L66:
 790 02c4 D9020000 		.word	.L65+1
 791 02c8 DF020000 		.word	.L67+1
 792 02cc F1020000 		.word	.L64+1
 793 02d0 E5020000 		.word	.L68+1
 794 02d4 EB020000 		.word	.L69+1
 795              		.p2align 1
 796              	.L65:
 594:.\mem1.c      ****                         {
 595:.\mem1.c      ****                             case CYCLK_SRC_SEL_SYNC_DIG: freq = 0x01;break;
 797              		.loc 1 595 0
 798 02d8 0123     		movs	r3, #1
 799 02da FB75     		strb	r3, [r7, #23]
 800 02dc 08E0     		b	.L64
 801              	.L67:
 596:.\mem1.c      ****                             case CYCLK_SRC_SEL_IMO: freq = 0x02;break;
 802              		.loc 1 596 0
 803 02de 0223     		movs	r3, #2
 804 02e0 FB75     		strb	r3, [r7, #23]
 805 02e2 05E0     		b	.L64
 806              	.L68:
 597:.\mem1.c      ****                             case CYCLK_SRC_SEL_ILO: freq = 0x03;break;
 807              		.loc 1 597 0
 808 02e4 0323     		movs	r3, #3
 809 02e6 FB75     		strb	r3, [r7, #23]
 810 02e8 02E0     		b	.L64
 811              	.L69:
 598:.\mem1.c      ****                             case CYCLK_SRC_SEL_PLL: freq = 0x04;break;
 812              		.loc 1 598 0
 813 02ea 0423     		movs	r3, #4
 814 02ec FB75     		strb	r3, [r7, #23]
 815 02ee 00BF     		nop
 816              	.L64:
 599:.\mem1.c      ****                         }
 600:.\mem1.c      ****                         
 601:.\mem1.c      ****                     *result = (PWM_CLK_3__DIV)|(freq<<16)|(PWM_CLK_3<<19);
 817              		.loc 1 601 0
 818 02f0 FFF7FEFF 		bl	PWM_CLK_3_GetDividerRegister
 819 02f4 0346     		mov	r3, r0
 820 02f6 0133     		adds	r3, r3, #1
 821 02f8 FA7D     		ldrb	r2, [r7, #23]	@ zero_extendqisi2
 822 02fa 1204     		lsls	r2, r2, #16
 823 02fc 1343     		orrs	r3, r3, r2
 824 02fe 43F4C012 		orr	r2, r3, #1572864
ARM GAS  C:\Users\Robert\AppData\Local\Temp\cc7rr7YM.s 			page 26


 825 0302 3B68     		ldr	r3, [r7]
 826 0304 1A60     		str	r2, [r3]
 602:.\mem1.c      ****                     #endif
 603:.\mem1.c      ****                     break;
 827              		.loc 1 603 0
 828 0306 2AE0     		b	.L38
 829              	.L43:
 604:.\mem1.c      ****                     
 605:.\mem1.c      ****                 case 0x03:
 606:.\mem1.c      ****                     #ifdef PWM_CLK_4
 607:.\mem1.c      ****                         switch(PWM_CLK_4__SOURCE)
 830              		.loc 1 607 0
 831 0308 FFF7FEFF 		bl	PWM_CLK_4_GetSourceRegister
 832 030c 0346     		mov	r3, r0
 833 030e 042B     		cmp	r3, #4
 834 0310 18D8     		bhi	.L70
 835 0312 01A2     		adr	r2, .L72
 836 0314 52F823F0 		ldr	pc, [r2, r3, lsl #2]
 837              		.p2align 2
 838              	.L72:
 839 0318 2D030000 		.word	.L71+1
 840 031c 33030000 		.word	.L73+1
 841 0320 45030000 		.word	.L70+1
 842 0324 39030000 		.word	.L74+1
 843 0328 3F030000 		.word	.L75+1
 844              		.p2align 1
 845              	.L71:
 608:.\mem1.c      ****                         {
 609:.\mem1.c      ****                             case CYCLK_SRC_SEL_SYNC_DIG: freq = 0x01;break;
 846              		.loc 1 609 0
 847 032c 0123     		movs	r3, #1
 848 032e FB75     		strb	r3, [r7, #23]
 849 0330 08E0     		b	.L70
 850              	.L73:
 610:.\mem1.c      ****                             case CYCLK_SRC_SEL_IMO: freq = 0x02;break;
 851              		.loc 1 610 0
 852 0332 0223     		movs	r3, #2
 853 0334 FB75     		strb	r3, [r7, #23]
 854 0336 05E0     		b	.L70
 855              	.L74:
 611:.\mem1.c      ****                             case CYCLK_SRC_SEL_ILO: freq = 0x03;break;
 856              		.loc 1 611 0
 857 0338 0323     		movs	r3, #3
 858 033a FB75     		strb	r3, [r7, #23]
 859 033c 02E0     		b	.L70
 860              	.L75:
 612:.\mem1.c      ****                             case CYCLK_SRC_SEL_PLL: freq = 0x04;break;
 861              		.loc 1 612 0
 862 033e 0423     		movs	r3, #4
 863 0340 FB75     		strb	r3, [r7, #23]
 864 0342 00BF     		nop
 865              	.L70:
 613:.\mem1.c      ****                         }
 614:.\mem1.c      ****                         
 615:.\mem1.c      ****                     *result = (PWM_CLK_4__DIV)|(freq<<16)|(PWM_CLK_4<<19);
 866              		.loc 1 615 0
 867 0344 FFF7FEFF 		bl	PWM_CLK_4_GetDividerRegister
ARM GAS  C:\Users\Robert\AppData\Local\Temp\cc7rr7YM.s 			page 27


 868 0348 0346     		mov	r3, r0
 869 034a 0133     		adds	r3, r3, #1
 870 034c FA7D     		ldrb	r2, [r7, #23]	@ zero_extendqisi2
 871 034e 1204     		lsls	r2, r2, #16
 872 0350 1343     		orrs	r3, r3, r2
 873 0352 43F40012 		orr	r2, r3, #2097152
 874 0356 3B68     		ldr	r3, [r7]
 875 0358 1A60     		str	r2, [r3]
 616:.\mem1.c      ****                     #endif
 617:.\mem1.c      ****                     break;
 876              		.loc 1 617 0
 877 035a 00E0     		b	.L38
 878              	.L86:
 618:.\mem1.c      ****                     
 619:.\mem1.c      ****                 case 0x04:
 620:.\mem1.c      ****                     #ifdef PWM_CLK_5
 621:.\mem1.c      ****                         switch(PWM_CLK_5__SOURCE)
 622:.\mem1.c      ****                         {
 623:.\mem1.c      ****                             case CYCLK_SRC_SEL_SYNC_DIG: freq = 0x01;break;
 624:.\mem1.c      ****                             case CYCLK_SRC_SEL_IMO: freq = 0x02;break;
 625:.\mem1.c      ****                             case CYCLK_SRC_SEL_ILO: freq = 0x03;break;
 626:.\mem1.c      ****                             case CYCLK_SRC_SEL_PLL: freq = 0x04;break;
 627:.\mem1.c      ****                         }
 628:.\mem1.c      ****                         
 629:.\mem1.c      ****                     *result = (PWM_CLK_5__DIV)|(freq<<16)|(PWM_CLK_5<<19);
 630:.\mem1.c      ****                     /* 
 631:.\mem1.c      ****                         ccccfffdddddddddddddddd*/
 632:.\mem1.c      ****                     #endif
 633:.\mem1.c      ****                     break;
 879              		.loc 1 633 0
 880 035c 00BF     		nop
 881              	.L38:
 634:.\mem1.c      ****                     
 635:.\mem1.c      ****                     
 636:.\mem1.c      ****                 case 0x05:
 637:.\mem1.c      ****                     #ifdef PWM_CLK_6
 638:.\mem1.c      ****                         switch(PWM_CLK_6__SOURCE)
 639:.\mem1.c      ****                         {
 640:.\mem1.c      ****                             case CYCLK_SRC_SEL_SYNC_DIG: freq = 0x01;break;
 641:.\mem1.c      ****                             case CYCLK_SRC_SEL_IMO: freq = 0x02;break;
 642:.\mem1.c      ****                             case CYCLK_SRC_SEL_ILO: freq = 0x03;break;
 643:.\mem1.c      ****                             case CYCLK_SRC_SEL_PLL: freq = 0x04;break;
 644:.\mem1.c      ****                         }
 645:.\mem1.c      ****                         
 646:.\mem1.c      ****                     *result = (PWM_CLK_6__DIV)|(freq<<16)|(PWM_CLK_6<<19);
 647:.\mem1.c      ****                     #endif
 648:.\mem1.c      ****                     break;
 649:.\mem1.c      ****                     
 650:.\mem1.c      ****                 case 0x06:
 651:.\mem1.c      ****                     #ifdef PWM_CLK_7
 652:.\mem1.c      ****                         switch(PWM_CLK_7__SOURCE)
 653:.\mem1.c      ****                         {
 654:.\mem1.c      ****                             case CYCLK_SRC_SEL_SYNC_DIG: freq = 0x01;break;
 655:.\mem1.c      ****                             case CYCLK_SRC_SEL_IMO: freq = 0x02;break;
 656:.\mem1.c      ****                             case CYCLK_SRC_SEL_ILO: freq = 0x03;break;
 657:.\mem1.c      ****                             case CYCLK_SRC_SEL_PLL: freq = 0x04;break;
 658:.\mem1.c      ****                         }
ARM GAS  C:\Users\Robert\AppData\Local\Temp\cc7rr7YM.s 			page 28


 659:.\mem1.c      ****                         
 660:.\mem1.c      ****                     *result = (PWM_CLK_7__DIV)|(freq<<16)|(PWM_CLK_7<<19);
 661:.\mem1.c      ****                     #endif
 662:.\mem1.c      ****                     break;
 663:.\mem1.c      ****                     
 664:.\mem1.c      ****                 case 0x07:
 665:.\mem1.c      ****                     #ifdef PWM_CLK_8
 666:.\mem1.c      ****                         switch(PWM_CLK_8__SOURCE)
 667:.\mem1.c      ****                         {
 668:.\mem1.c      ****                             case CYCLK_SRC_SEL_SYNC_DIG: freq = 0x01;break;
 669:.\mem1.c      ****                             case CYCLK_SRC_SEL_IMO: freq = 0x02;break;
 670:.\mem1.c      ****                             case CYCLK_SRC_SEL_ILO: freq = 0x03;break;
 671:.\mem1.c      ****                             case CYCLK_SRC_SEL_PLL: freq = 0x04;break;
 672:.\mem1.c      ****                         }
 673:.\mem1.c      ****                         
 674:.\mem1.c      ****                     *result = (PWM_CLK_8__DIV)|(freq<<16)|(PWM_CLK_8<<19);
 675:.\mem1.c      ****                     #endif
 676:.\mem1.c      ****                     break;
 677:.\mem1.c      ****                     
 678:.\mem1.c      ****                 case 0x08:
 679:.\mem1.c      ****                     #ifdef PWM_CLK_9
 680:.\mem1.c      ****                         switch(PWM_CLK_9__SOURCE)
 681:.\mem1.c      ****                         {
 682:.\mem1.c      ****                             case CYCLK_SRC_SEL_SYNC_DIG: freq = 0x01;break;
 683:.\mem1.c      ****                             case CYCLK_SRC_SEL_IMO: freq = 0x02;break;
 684:.\mem1.c      ****                             case CYCLK_SRC_SEL_ILO: freq = 0x03;break;
 685:.\mem1.c      ****                             case CYCLK_SRC_SEL_PLL: freq = 0x04;break;
 686:.\mem1.c      ****                         }
 687:.\mem1.c      ****                         
 688:.\mem1.c      ****                     *result = (PWM_CLK_9__DIV)|(freq<<16)|(PWM_CLK_9<<19);
 689:.\mem1.c      ****                     #endif
 690:.\mem1.c      ****                     break;
 691:.\mem1.c      ****                     
 692:.\mem1.c      ****                 case 0x09:
 693:.\mem1.c      ****                     #ifdef PWM_CLK_10
 694:.\mem1.c      ****                         switch(PWM_CLK_10__SOURCE)
 695:.\mem1.c      ****                         {
 696:.\mem1.c      ****                             case CYCLK_SRC_SEL_SYNC_DIG: freq = 0x01;break;
 697:.\mem1.c      ****                             case CYCLK_SRC_SEL_IMO: freq = 0x02;break;
 698:.\mem1.c      ****                             case CYCLK_SRC_SEL_ILO: freq = 0x03;break;
 699:.\mem1.c      ****                             case CYCLK_SRC_SEL_PLL: freq = 0x04;break;
 700:.\mem1.c      ****                         }
 701:.\mem1.c      ****                         
 702:.\mem1.c      ****                     *result = (PWM_CLK_10__DIV)|(freq<<16)|(PWM_CLK_10<<19);
 703:.\mem1.c      ****                     #endif
 704:.\mem1.c      ****                     break;
 705:.\mem1.c      ****                     
 706:.\mem1.c      ****                 case 0x0A:
 707:.\mem1.c      ****                     #ifdef PWM_CLK_11
 708:.\mem1.c      ****                         switch(PWM_CLK_11__SOURCE)
 709:.\mem1.c      ****                         {
 710:.\mem1.c      ****                             case CYCLK_SRC_SEL_SYNC_DIG: freq = 0x01;break;
 711:.\mem1.c      ****                             case CYCLK_SRC_SEL_IMO: freq = 0x02;break;
 712:.\mem1.c      ****                             case CYCLK_SRC_SEL_ILO: freq = 0x03;break;
 713:.\mem1.c      ****                             case CYCLK_SRC_SEL_PLL: freq = 0x04;break;
 714:.\mem1.c      ****                         }
 715:.\mem1.c      ****                         
ARM GAS  C:\Users\Robert\AppData\Local\Temp\cc7rr7YM.s 			page 29


 716:.\mem1.c      ****                     *result = (PWM_CLK_11__DIV)|(freq<<16)|(PWM_CLK_11<<19);
 717:.\mem1.c      ****                     #endif
 718:.\mem1.c      ****                     break;
 719:.\mem1.c      ****                     
 720:.\mem1.c      ****                 case 0x0B:
 721:.\mem1.c      ****                     #ifdef PWM_CLK_12
 722:.\mem1.c      ****                         switch(PWM_CLK_12__SOURCE)
 723:.\mem1.c      ****                         {
 724:.\mem1.c      ****                             case CYCLK_SRC_SEL_SYNC_DIG: freq = 0x01;break;
 725:.\mem1.c      ****                             case CYCLK_SRC_SEL_IMO: freq = 0x02;break;
 726:.\mem1.c      ****                             case CYCLK_SRC_SEL_ILO: freq = 0x03;break;
 727:.\mem1.c      ****                             case CYCLK_SRC_SEL_PLL: freq = 0x04;break;
 728:.\mem1.c      ****                         }
 729:.\mem1.c      ****                         
 730:.\mem1.c      ****                     *result = (PWM_CLK_12__DIV)|(freq<<16)|(PWM_CLK_12<<19);
 731:.\mem1.c      ****                     #endif
 732:.\mem1.c      ****                     break;
 733:.\mem1.c      ****                     
 734:.\mem1.c      ****              
 735:.\mem1.c      ****             }
 736:.\mem1.c      ****             break;
 882              		.loc 1 736 0 discriminator 1
 883 035e 75E0     		b	.L85
 884              	.L37:
 737:.\mem1.c      ****             
 738:.\mem1.c      ****         case 0x08:
 739:.\mem1.c      ****             if (PWM_NUM>0)
 740:.\mem1.c      ****             {
 741:.\mem1.c      ****                 switch(val)
 885              		.loc 1 741 0
 886 0360 BB88     		ldrh	r3, [r7, #4]
 887 0362 052B     		cmp	r3, #5
 888 0364 74D8     		bhi	.L87
 889 0366 01A2     		adr	r2, .L78
 890 0368 52F823F0 		ldr	pc, [r2, r3, lsl #2]
 891              		.p2align 2
 892              	.L78:
 893 036c 85030000 		.word	.L77+1
 894 0370 E7030000 		.word	.L79+1
 895 0374 49040000 		.word	.L88+1
 896 0378 49040000 		.word	.L88+1
 897 037c 49040000 		.word	.L88+1
 898 0380 49040000 		.word	.L88+1
 899              		.p2align 1
 900              	.L77:
 742:.\mem1.c      ****                 {
 743:.\mem1.c      ****                     case 0x00: 
 744:.\mem1.c      ****                         #ifdef PWM_1_CLK
 745:.\mem1.c      ****                             *result|=PWM_1_CLK;
 901              		.loc 1 745 0
 902 0384 3B68     		ldr	r3, [r7]
 903 0386 1B68     		ldr	r3, [r3]
 904 0388 43F00102 		orr	r2, r3, #1
 905 038c 3B68     		ldr	r3, [r7]
 906 038e 1A60     		str	r2, [r3]
 746:.\mem1.c      ****                             if (PWM_1_Resolution == 16u){*result|=0x01<<4;}
 907              		.loc 1 746 0
ARM GAS  C:\Users\Robert\AppData\Local\Temp\cc7rr7YM.s 			page 30


 908 0390 3B68     		ldr	r3, [r7]
 909 0392 1B68     		ldr	r3, [r3]
 910 0394 43F01002 		orr	r2, r3, #16
 911 0398 3B68     		ldr	r3, [r7]
 912 039a 1A60     		str	r2, [r3]
 747:.\mem1.c      ****                         #endif
 748:.\mem1.c      ****                         #ifdef PWM_2_CLK
 749:.\mem1.c      ****                             *result|=PWM_2_CLK<<5;
 913              		.loc 1 749 0
 914 039c 3B68     		ldr	r3, [r7]
 915 039e 1B68     		ldr	r3, [r3]
 916 03a0 43F02002 		orr	r2, r3, #32
 917 03a4 3B68     		ldr	r3, [r7]
 918 03a6 1A60     		str	r2, [r3]
 750:.\mem1.c      ****                             if (PWM_2_Resolution == 16u){*result|=0x01<<9;}
 919              		.loc 1 750 0
 920 03a8 3B68     		ldr	r3, [r7]
 921 03aa 1B68     		ldr	r3, [r3]
 922 03ac 43F40072 		orr	r2, r3, #512
 923 03b0 3B68     		ldr	r3, [r7]
 924 03b2 1A60     		str	r2, [r3]
 751:.\mem1.c      ****                         #endif
 752:.\mem1.c      ****                         #ifdef PWM_3_CLK
 753:.\mem1.c      ****                             *result|=PWM_3_CLK<<10;
 925              		.loc 1 753 0
 926 03b4 3B68     		ldr	r3, [r7]
 927 03b6 1B68     		ldr	r3, [r3]
 928 03b8 43F40062 		orr	r2, r3, #2048
 929 03bc 3B68     		ldr	r3, [r7]
 930 03be 1A60     		str	r2, [r3]
 754:.\mem1.c      ****                             if (PWM_3_Resolution == 16u){*result|=0x01<<14;}
 931              		.loc 1 754 0
 932 03c0 3B68     		ldr	r3, [r7]
 933 03c2 1B68     		ldr	r3, [r3]
 934 03c4 43F48042 		orr	r2, r3, #16384
 935 03c8 3B68     		ldr	r3, [r7]
 936 03ca 1A60     		str	r2, [r3]
 755:.\mem1.c      ****                         #endif
 756:.\mem1.c      ****                         #ifdef PWM_4_CLK
 757:.\mem1.c      ****                             *result|=PWM_4_CLK<<15;
 937              		.loc 1 757 0
 938 03cc 3B68     		ldr	r3, [r7]
 939 03ce 1B68     		ldr	r3, [r3]
 940 03d0 43F48032 		orr	r2, r3, #65536
 941 03d4 3B68     		ldr	r3, [r7]
 942 03d6 1A60     		str	r2, [r3]
 758:.\mem1.c      ****                             if (PWM_4_Resolution == 16u){*result|=0x01<<19;}
 943              		.loc 1 758 0
 944 03d8 3B68     		ldr	r3, [r7]
 945 03da 1B68     		ldr	r3, [r3]
 946 03dc 43F40022 		orr	r2, r3, #524288
 947 03e0 3B68     		ldr	r3, [r7]
 948 03e2 1A60     		str	r2, [r3]
 759:.\mem1.c      ****                         #endif
 760:.\mem1.c      ****                     /* r4444r3333r2222r1111*/
 761:.\mem1.c      ****                     break;
 949              		.loc 1 761 0
ARM GAS  C:\Users\Robert\AppData\Local\Temp\cc7rr7YM.s 			page 31


 950 03e4 31E0     		b	.L76
 951              	.L79:
 762:.\mem1.c      ****                     case 0x01:
 763:.\mem1.c      ****                         #ifdef PWM_5_CLK
 764:.\mem1.c      ****                             *result|=PWM_5_CLK;
 952              		.loc 1 764 0
 953 03e6 3B68     		ldr	r3, [r7]
 954 03e8 1B68     		ldr	r3, [r3]
 955 03ea 43F00302 		orr	r2, r3, #3
 956 03ee 3B68     		ldr	r3, [r7]
 957 03f0 1A60     		str	r2, [r3]
 765:.\mem1.c      ****                             if (PWM_5_Resolution == 16u){*result|=0x01<<4;}
 958              		.loc 1 765 0
 959 03f2 3B68     		ldr	r3, [r7]
 960 03f4 1B68     		ldr	r3, [r3]
 961 03f6 43F01002 		orr	r2, r3, #16
 962 03fa 3B68     		ldr	r3, [r7]
 963 03fc 1A60     		str	r2, [r3]
 766:.\mem1.c      ****                         #endif
 767:.\mem1.c      ****                         #ifdef PWM_6_CLK
 768:.\mem1.c      ****                             *result|=PWM_6_CLK<<5;
 964              		.loc 1 768 0
 965 03fe 3B68     		ldr	r3, [r7]
 966 0400 1B68     		ldr	r3, [r3]
 967 0402 43F06002 		orr	r2, r3, #96
 968 0406 3B68     		ldr	r3, [r7]
 969 0408 1A60     		str	r2, [r3]
 769:.\mem1.c      ****                             if (PWM_6_Resolution == 16u){*result|=0x01<<9;}
 970              		.loc 1 769 0
 971 040a 3B68     		ldr	r3, [r7]
 972 040c 1B68     		ldr	r3, [r3]
 973 040e 43F40072 		orr	r2, r3, #512
 974 0412 3B68     		ldr	r3, [r7]
 975 0414 1A60     		str	r2, [r3]
 770:.\mem1.c      ****                         #endif
 771:.\mem1.c      ****                 
 772:.\mem1.c      ****                         #ifdef PWM_7_CLK
 773:.\mem1.c      ****                             *result|=PWM_7_CLK<<10;
 976              		.loc 1 773 0
 977 0416 3B68     		ldr	r3, [r7]
 978 0418 1B68     		ldr	r3, [r3]
 979 041a 43F48052 		orr	r2, r3, #4096
 980 041e 3B68     		ldr	r3, [r7]
 981 0420 1A60     		str	r2, [r3]
 774:.\mem1.c      ****                             if (PWM_7_Resolution == 16u){*result|=0x01<<14;}
 982              		.loc 1 774 0
 983 0422 3B68     		ldr	r3, [r7]
 984 0424 1B68     		ldr	r3, [r3]
 985 0426 43F48042 		orr	r2, r3, #16384
 986 042a 3B68     		ldr	r3, [r7]
 987 042c 1A60     		str	r2, [r3]
 775:.\mem1.c      ****                         #endif
 776:.\mem1.c      ****                         #ifdef PWM_8_CLK
 777:.\mem1.c      ****                             *result|=PWM_8_CLK<<15;
 988              		.loc 1 777 0
 989 042e 3B68     		ldr	r3, [r7]
 990 0430 1B68     		ldr	r3, [r3]
ARM GAS  C:\Users\Robert\AppData\Local\Temp\cc7rr7YM.s 			page 32


 991 0432 43F40032 		orr	r2, r3, #131072
 992 0436 3B68     		ldr	r3, [r7]
 993 0438 1A60     		str	r2, [r3]
 778:.\mem1.c      ****                             if (PWM_8_Resolution == 16u){*result|=0x01<<19;}
 994              		.loc 1 778 0
 995 043a 3B68     		ldr	r3, [r7]
 996 043c 1B68     		ldr	r3, [r3]
 997 043e 43F40022 		orr	r2, r3, #524288
 998 0442 3B68     		ldr	r3, [r7]
 999 0444 1A60     		str	r2, [r3]
 779:.\mem1.c      ****                         #endif
 780:.\mem1.c      ****                     break;
 1000              		.loc 1 780 0
 1001 0446 00E0     		b	.L76
 1002              	.L88:
 781:.\mem1.c      ****                         
 782:.\mem1.c      ****                     case 0x02: 
 783:.\mem1.c      ****                         #ifdef PWM_9_CLK
 784:.\mem1.c      ****                             *result|=PWM_9_CLK;
 785:.\mem1.c      ****                             if (PWM_9_Resolution == 16u){*result|=0x01<<4;}
 786:.\mem1.c      ****                         #endif
 787:.\mem1.c      ****                         #ifdef PWM_10_CLK
 788:.\mem1.c      ****                             *result|=PWM_10_CLK<<5;
 789:.\mem1.c      ****                             if (PWM_10_Resolution == 16u){*result|=0x01<<9;}
 790:.\mem1.c      ****                         #endif
 791:.\mem1.c      ****                         #ifdef PWM_11_CLK
 792:.\mem1.c      ****                             *result|=PWM_11_CLK<<10;
 793:.\mem1.c      ****                             if (PWM_11_Resolution == 16u){*result|=0x01<<14;}
 794:.\mem1.c      ****                         #endif
 795:.\mem1.c      ****                         #ifdef PWM_12_CLK
 796:.\mem1.c      ****                             *result|=PWM_12_CLK<<15;
 797:.\mem1.c      ****                             if (PWM_12_Resolution == 16u){*result|=0x01<<19;}
 798:.\mem1.c      ****                         #endif
 799:.\mem1.c      ****                     /* r4444r3333r2222r1111*/
 800:.\mem1.c      ****                     break;
 1003              		.loc 1 800 0
 1004 0448 00BF     		nop
 1005              	.L76:
 801:.\mem1.c      ****                     case 0x03:
 802:.\mem1.c      ****                         #ifdef PWM_13_CLK
 803:.\mem1.c      ****                             *result|=PWM_13_CLK;
 804:.\mem1.c      ****                             if (PWM_13_Resolution == 16u){*result|=0x01<<4;}
 805:.\mem1.c      ****                         #endif
 806:.\mem1.c      ****                         #ifdef PWM_14_CLK
 807:.\mem1.c      ****                             *result|=PWM_14_CLK<<5;
 808:.\mem1.c      ****                             if (PWM_14_Resolution == 16u){*result|=0x01<<9;}
 809:.\mem1.c      ****                         #endif
 810:.\mem1.c      ****                 
 811:.\mem1.c      ****                         #ifdef PWM_15_CLK
 812:.\mem1.c      ****                             *result|=PWM_15_CLK<<10;
 813:.\mem1.c      ****                             if (PWM_15_Resolution == 16u){*result|=0x01<<14;}
 814:.\mem1.c      ****                         #endif
 815:.\mem1.c      ****                         #ifdef PWM_16_CLK
 816:.\mem1.c      ****                             *result|=PWM_16_CLK<<15;
 817:.\mem1.c      ****                             if (PWM_16_Resolution == 16u){*result|=0x01<<19;}
 818:.\mem1.c      ****                         #endif
 819:.\mem1.c      ****                     break;
ARM GAS  C:\Users\Robert\AppData\Local\Temp\cc7rr7YM.s 			page 33


 820:.\mem1.c      ****                         
 821:.\mem1.c      ****                     case 0x04: 
 822:.\mem1.c      ****                         #ifdef PWM_17_CLK
 823:.\mem1.c      ****                             *result|=PWM_17_CLK;
 824:.\mem1.c      ****                             if (PWM_17_Resolution == 16u){*result|=0x01<<4;}
 825:.\mem1.c      ****                         #endif
 826:.\mem1.c      ****                         #ifdef PWM_18_CLK
 827:.\mem1.c      ****                             *result|=PWM_18_CLK<<5;
 828:.\mem1.c      ****                             if (PWM_18_Resolution == 16u){*result|=0x01<<9;}
 829:.\mem1.c      ****                         #endif
 830:.\mem1.c      ****                         #ifdef PWM_19_CLK
 831:.\mem1.c      ****                             *result|=PWM_19_CLK<<10;
 832:.\mem1.c      ****                             if (PWM_19_Resolution == 16u){*result|=0x01<<14;}
 833:.\mem1.c      ****                         #endif
 834:.\mem1.c      ****                         #ifdef PWM_20_CLK
 835:.\mem1.c      ****                             *result|=PWM_20_CLK<<15;
 836:.\mem1.c      ****                             if (PWM_20_Resolution == 16u){*result|=0x01<<19;}
 837:.\mem1.c      ****                         #endif
 838:.\mem1.c      ****                     /* r4444r3333r2222r1111*/
 839:.\mem1.c      ****                     break;
 840:.\mem1.c      ****                     case 0x05:
 841:.\mem1.c      ****                         #ifdef PWM_21_CLK
 842:.\mem1.c      ****                             *result|=PWM_21_CLK;
 843:.\mem1.c      ****                             if (PWM_21_Resolution == 16u){*result|=0x01<<4;}
 844:.\mem1.c      ****                         #endif
 845:.\mem1.c      ****                         #ifdef PWM_22_CLK
 846:.\mem1.c      ****                             *result|=PWM_22_CLK<<5;
 847:.\mem1.c      ****                             if (PWM_22_Resolution == 16u){*result|=0x01<<9;}
 848:.\mem1.c      ****                         #endif
 849:.\mem1.c      ****                 
 850:.\mem1.c      ****                         #ifdef PWM_23_CLK
 851:.\mem1.c      ****                             *result|=PWM_23_CLK<<10;
 852:.\mem1.c      ****                             if (PWM_23_Resolution == 16u){*result|=0x01<<14;}
 853:.\mem1.c      ****                         #endif
 854:.\mem1.c      ****                         #ifdef PWM_24_CLK
 855:.\mem1.c      ****                             *result|=PWM_24_CLK<<15;
 856:.\mem1.c      ****                             if (PWM_24_Resolution == 16u){*result|=0x01<<19;}
 857:.\mem1.c      ****                         #endif
 858:.\mem1.c      ****                     break;
 859:.\mem1.c      ****                                      
 860:.\mem1.c      ****                 }
 861:.\mem1.c      ****             }
 862:.\mem1.c      ****             else {*result = 0;}
 863:.\mem1.c      ****         break;//case 0x08
 1006              		.loc 1 863 0 discriminator 9
 1007 044a 01E0     		b	.L87
 1008              	.L85:
 736:.\mem1.c      ****             
 1009              		.loc 1 736 0
 1010 044c 00BF     		nop
 1011 044e 00E0     		b	.L29
 1012              	.L87:
 1013              		.loc 1 863 0
 1014 0450 00BF     		nop
 1015              	.L29:
 864:.\mem1.c      ****            
 865:.\mem1.c      ****          
ARM GAS  C:\Users\Robert\AppData\Local\Temp\cc7rr7YM.s 			page 34


 866:.\mem1.c      ****     }
 867:.\mem1.c      ****     
 868:.\mem1.c      ****     return true;
 1016              		.loc 1 868 0
 1017 0452 0123     		movs	r3, #1
 869:.\mem1.c      **** }
 1018              		.loc 1 869 0
 1019 0454 1846     		mov	r0, r3
 1020 0456 1837     		adds	r7, r7, #24
 1021              		.cfi_def_cfa_offset 8
 1022 0458 BD46     		mov	sp, r7
 1023              		.cfi_def_cfa_register 13
 1024              		@ sp needed
 1025 045a 80BD     		pop	{r7, pc}
 1026              		.cfi_endproc
 1027              	.LFE57:
 1028              		.size	CheckBuild, .-CheckBuild
 1029              		.section	.text.VDAC0_Control,"ax",%progbits
 1030              		.align	2
 1031              		.global	VDAC0_Control
 1032              		.thumb
 1033              		.thumb_func
 1034              		.type	VDAC0_Control, %function
 1035              	VDAC0_Control:
 1036              	.LFB58:
 870:.\mem1.c      **** 
 871:.\mem1.c      **** /****************************************************************************************//**
 872:.\mem1.c      **** *  @brief Contains usage scenarios of the DELSIG ADC for use by a Master device. 
 873:.\mem1.c      **** *
 874:.\mem1.c      **** *  @param cmd: 8-bit number describing a desired usage of a function associated 
 875:.\mem1.c      **** *              with the DELSIG ADC
 876:.\mem1.c      **** *  @param val: 16-bit number containing a value that is to be written to that 
 877:.\mem1.c      **** *              function, or modify the component's operation, if applicable.
 878:.\mem1.c      **** *
 879:.\mem1.c      **** *********************************************************************************************/
 880:.\mem1.c      **** 
 881:.\mem1.c      ****     #ifdef CY_ADC_DELSIG_ADC_DelSig_1_H
 882:.\mem1.c      ****         bool DELSIG_ADC_Control(uint8 cmd, uint16 val, uint32 *result)
 883:.\mem1.c      ****         {
 884:.\mem1.c      ****             bool return_flag = 0;
 885:.\mem1.c      ****            
 886:.\mem1.c      ****             switch(cmd)
 887:.\mem1.c      ****             {
 888:.\mem1.c      ****                 //start_adc
 889:.\mem1.c      ****                 case 0x00: ADC_DelSig_1_Start();break;
 890:.\mem1.c      ****                 case 0x01: ADC_DelSig_1_Stop(); break;
 891:.\mem1.c      ****                 case 0x02: 
 892:.\mem1.c      ****                     switch(val)
 893:.\mem1.c      ****                     {
 894:.\mem1.c      ****                         case 1: ADC_DelSig_1_SetBufferGain(ADC_DelSig_1_BUF_GAIN_1X); break;
 895:.\mem1.c      ****                         case 2: ADC_DelSig_1_SetBufferGain(ADC_DelSig_1_BUF_GAIN_2X); break;
 896:.\mem1.c      ****                         case 4: ADC_DelSig_1_SetBufferGain(ADC_DelSig_1_BUF_GAIN_4X); break;
 897:.\mem1.c      ****                         case 8: ADC_DelSig_1_SetBufferGain(ADC_DelSig_1_BUF_GAIN_8X); break;
 898:.\mem1.c      ****                     }
 899:.\mem1.c      ****                     break;
 900:.\mem1.c      ****                 case 0x03: ADC_DelSig_1_StartConvert(); break;
 901:.\mem1.c      ****                 case 0x04: ADC_DelSig_1_StopConvert(); break;
ARM GAS  C:\Users\Robert\AppData\Local\Temp\cc7rr7YM.s 			page 35


 902:.\mem1.c      ****                 case 0x07: *result = ADC_DelSig_1_IsEndConversion(ADC_DelSig_1_RETURN_STATUS); retu
 903:.\mem1.c      ****                 case 0x0A: *result = ADC_DelSig_1_GetResult32(); return_flag = 1; break;
 904:.\mem1.c      ****                 case 0x0D: *result = ADC_DelSig_1_Read32(); return_flag = 1; break;
 905:.\mem1.c      ****                 case 0x0E: ADC_DelSig_1_SetOffset(val); break;
 906:.\mem1.c      ****                 case 0x0F: ADC_DelSig_1_SetGain(val); break;
 907:.\mem1.c      ****                 case 0x10: *result = ADC_DelSig_1_CountsTo_uVolts(val); return_flag = 1; break;
 908:.\mem1.c      ****                 case 0x14: ADC_DelSig_1_Sleep(); break;
 909:.\mem1.c      ****                 case 0x15: ADC_DelSig_1_Wakeup(); break;
 910:.\mem1.c      ****                     
 911:.\mem1.c      ****                         
 912:.\mem1.c      ****             }
 913:.\mem1.c      ****             
 914:.\mem1.c      ****             return return_flag;
 915:.\mem1.c      ****         }
 916:.\mem1.c      ****     #endif
 917:.\mem1.c      ****     
 918:.\mem1.c      **** /****************************************************************************************//**
 919:.\mem1.c      **** *  @brief Contains usage scenarios of the first SAR ADC for use by a Master device. 
 920:.\mem1.c      **** *
 921:.\mem1.c      **** *  @param cmd: 8-bit number describing a desired usage of a function associated 
 922:.\mem1.c      **** *              with the first SAR ADC
 923:.\mem1.c      **** *  @param val: 16-bit number containing a value that is to be written to that 
 924:.\mem1.c      **** *              function, or modify the component's operation, if applicable.
 925:.\mem1.c      **** *
 926:.\mem1.c      **** *********************************************************************************************/
 927:.\mem1.c      ****     
 928:.\mem1.c      ****     #ifdef CY_ADC_SAR_ADC_SAR_1_H
 929:.\mem1.c      ****         bool SAR0_ADC_Control(uint8 cmd, uint16 val, uint32 *result)
 930:.\mem1.c      ****         {
 931:.\mem1.c      ****             bool return_flag = 0;
 932:.\mem1.c      ****             switch(cmd)
 933:.\mem1.c      ****             {
 934:.\mem1.c      ****                 //start_adc
 935:.\mem1.c      ****                 case 0x00: ADC_SAR_1_Start(); break;
 936:.\mem1.c      ****                 case 0x01: ADC_SAR_1_Stop(); break;
 937:.\mem1.c      ****                 case 0x03: 
 938:.\mem1.c      ****                     switch(val)
 939:.\mem1.c      ****                     {
 940:.\mem1.c      ****                         case 8: ADC_SAR_1_SetResolution(ADC_SAR_1__BITS_8); break;
 941:.\mem1.c      ****                         case 10: ADC_SAR_1_SetResolution(ADC_SAR_1__BITS_10); break;
 942:.\mem1.c      ****                         case 12: ADC_SAR_1_SetResolution(ADC_SAR_1__BITS_12); break;
 943:.\mem1.c      ****                     }
 944:.\mem1.c      ****                     break;
 945:.\mem1.c      ****                 case 0x04: ADC_SAR_1_StartConvert(); break;
 946:.\mem1.c      ****                 case 0x05: ADC_SAR_1_StopConvert(); break;
 947:.\mem1.c      ****                 case 0x08: *result = ADC_SAR_1_IsEndConversion(ADC_SAR_1_RETURN_STATUS); return_fla
 948:.\mem1.c      ****                 case 0x0A: *result = ADC_SAR_1_GetResult16(); return_flag = 1; break;
 949:.\mem1.c      ****                 case 0x0B: ADC_SAR_1_SetOffset(val); break;
 950:.\mem1.c      ****                 case 0x0C: ADC_SAR_1_SetGain(val); break;
 951:.\mem1.c      ****                 case 0x0D: *result = ADC_SAR_1_CountsTo_uVolts(val); return_flag = 1; break;
 952:.\mem1.c      ****                 case 0x10: ADC_SAR_1_Sleep(); break;
 953:.\mem1.c      ****                 case 0x11: ADC_SAR_1_Wakeup(); break;       
 954:.\mem1.c      ****             }
 955:.\mem1.c      ****             
 956:.\mem1.c      ****             return return_flag;
 957:.\mem1.c      ****         }
 958:.\mem1.c      ****      #endif
ARM GAS  C:\Users\Robert\AppData\Local\Temp\cc7rr7YM.s 			page 36


 959:.\mem1.c      **** /****************************************************************************************//**
 960:.\mem1.c      **** *  @brief Contains usage scenarios of the second SAR ADC for use by a Master device. 
 961:.\mem1.c      **** *
 962:.\mem1.c      **** *  @param cmd: 8-bit number describing a desired usage of a function associated 
 963:.\mem1.c      **** *              with the second SAR ADC
 964:.\mem1.c      **** *  @param val: 16-bit number containing a value that is to be written to that 
 965:.\mem1.c      **** *              function, or modify the component's operation, if applicable.
 966:.\mem1.c      **** *
 967:.\mem1.c      **** *********************************************************************************************/
 968:.\mem1.c      ****     #ifdef CY_ADC_SAR_ADC_SAR_2_H
 969:.\mem1.c      ****          bool SAR1_ADC_Control(uint8 cmd, uint16 val, uint32 *result)
 970:.\mem1.c      ****         {
 971:.\mem1.c      ****             bool return_flag = 0;
 972:.\mem1.c      ****             switch(cmd)
 973:.\mem1.c      ****             {
 974:.\mem1.c      ****                 case 0x00: ADC_SAR_2_Start(); break;
 975:.\mem1.c      ****                 case 0x01: ADC_SAR_2_Stop(); break;
 976:.\mem1.c      ****                 case 0x03: 
 977:.\mem1.c      ****                     switch(val)
 978:.\mem1.c      ****                     {
 979:.\mem1.c      ****                         case 8: ADC_SAR_2_SetResolution(ADC_SAR_2__BITS_8); break;
 980:.\mem1.c      ****                         case 10: ADC_SAR_2_SetResolution(ADC_SAR_2__BITS_10); break;
 981:.\mem1.c      ****                         case 12: ADC_SAR_2_SetResolution(ADC_SAR_2__BITS_12); break;
 982:.\mem1.c      ****                     }
 983:.\mem1.c      ****                     break;
 984:.\mem1.c      ****                 case 0x04: ADC_SAR_2_StartConvert(); break;
 985:.\mem1.c      ****                 case 0x05: ADC_SAR_2_StopConvert(); break;
 986:.\mem1.c      ****                 case 0x08: *result = ADC_SAR_2_IsEndConversion(ADC_SAR_2_RETURN_STATUS); return_fla
 987:.\mem1.c      ****                 case 0x0A: *result = ADC_SAR_2_GetResult16(); return_flag = 1; break;
 988:.\mem1.c      ****                 case 0x0B: ADC_SAR_2_SetOffset(val); break;
 989:.\mem1.c      ****                 case 0x0C: ADC_SAR_2_SetGain(val); break;
 990:.\mem1.c      ****                 case 0x0D: *result = ADC_SAR_2_CountsTo_uVolts(val); return_flag = 1; break;//Chang
 991:.\mem1.c      ****                 case 0x10: ADC_SAR_2_Sleep(); break;
 992:.\mem1.c      ****                 case 0x11: ADC_SAR_2_Wakeup(); break;     
 993:.\mem1.c      ****                 
 994:.\mem1.c      ****             }
 995:.\mem1.c      ****             return return_flag;
 996:.\mem1.c      ****         }
 997:.\mem1.c      ****     #endif
 998:.\mem1.c      ****     
 999:.\mem1.c      **** /****************************************************************************************//**
1000:.\mem1.c      **** *  @brief Contains usage scenarios of the first VDAC for use by a Master device. 
1001:.\mem1.c      **** *
1002:.\mem1.c      **** *  @param cmd: 8-bit number describing a desired usage of a function associated 
1003:.\mem1.c      **** *              with the first VDAC
1004:.\mem1.c      **** *  @param val: 16-bit number containing a value that is to be written to that 
1005:.\mem1.c      **** *              function, or modify the component's operation, if applicable.
1006:.\mem1.c      **** *
1007:.\mem1.c      **** *********************************************************************************************/
1008:.\mem1.c      ****     
1009:.\mem1.c      ****     #ifdef CY_VDAC8_VDAC8_1_H
1010:.\mem1.c      ****         bool VDAC0_Control(uint8 cmd, uint16 val, uint32 *result)
1011:.\mem1.c      ****         {
 1037              		.loc 1 1011 0
 1038              		.cfi_startproc
 1039              		@ args = 0, pretend = 0, frame = 16
 1040              		@ frame_needed = 1, uses_anonymous_args = 0
ARM GAS  C:\Users\Robert\AppData\Local\Temp\cc7rr7YM.s 			page 37


 1041 0000 80B5     		push	{r7, lr}
 1042              		.cfi_def_cfa_offset 8
 1043              		.cfi_offset 7, -8
 1044              		.cfi_offset 14, -4
 1045 0002 84B0     		sub	sp, sp, #16
 1046              		.cfi_def_cfa_offset 24
 1047 0004 00AF     		add	r7, sp, #0
 1048              		.cfi_def_cfa_register 7
 1049 0006 0346     		mov	r3, r0
 1050 0008 3A60     		str	r2, [r7]
 1051 000a FB71     		strb	r3, [r7, #7]
 1052 000c 0B46     		mov	r3, r1	@ movhi
 1053 000e BB80     		strh	r3, [r7, #4]	@ movhi
1012:.\mem1.c      ****             bool return_flag = 0;
 1054              		.loc 1 1012 0
 1055 0010 0023     		movs	r3, #0
 1056 0012 FB73     		strb	r3, [r7, #15]
1013:.\mem1.c      ****             switch(cmd)
 1057              		.loc 1 1013 0
 1058 0014 FB79     		ldrb	r3, [r7, #7]	@ zero_extendqisi2
 1059 0016 062B     		cmp	r3, #6
 1060 0018 40D8     		bhi	.L90
 1061 001a 01A2     		adr	r2, .L92
 1062 001c 52F823F0 		ldr	pc, [r2, r3, lsl #2]
 1063              		.p2align 2
 1064              	.L92:
 1065 0020 3D000000 		.word	.L91+1
 1066 0024 43000000 		.word	.L93+1
 1067 0028 49000000 		.word	.L94+1
 1068 002c 67000000 		.word	.L95+1
 1069 0030 85000000 		.word	.L96+1
 1070 0034 91000000 		.word	.L97+1
 1071 0038 97000000 		.word	.L98+1
 1072              		.p2align 1
 1073              	.L91:
1014:.\mem1.c      ****             {
1015:.\mem1.c      ****                 case 0x00: VDAC8_1_Start(); break;
 1074              		.loc 1 1015 0
 1075 003c FFF7FEFF 		bl	VDAC8_1_Start
 1076 0040 2CE0     		b	.L90
 1077              	.L93:
1016:.\mem1.c      ****                 case 0x01: VDAC8_1_Stop(); break;
 1078              		.loc 1 1016 0
 1079 0042 FFF7FEFF 		bl	VDAC8_1_Stop
 1080 0046 29E0     		b	.L90
 1081              	.L94:
1017:.\mem1.c      ****                 case 0x02: 
1018:.\mem1.c      ****                     switch(val)
 1082              		.loc 1 1018 0
 1083 0048 BB88     		ldrh	r3, [r7, #4]
 1084 004a 002B     		cmp	r3, #0
 1085 004c 02D0     		beq	.L100
 1086 004e 012B     		cmp	r3, #1
 1087 0050 04D0     		beq	.L101
1019:.\mem1.c      ****                     {
1020:.\mem1.c      ****                     case 0: VDAC8_1_SetSpeed(VDAC8_1_LOWSPEED); break;
1021:.\mem1.c      ****                     case 1: VDAC8_1_SetSpeed(VDAC8_1_HIGHSPEED); break;
ARM GAS  C:\Users\Robert\AppData\Local\Temp\cc7rr7YM.s 			page 38


1022:.\mem1.c      ****                     }
1023:.\mem1.c      ****                     break;
 1088              		.loc 1 1023 0
 1089 0052 23E0     		b	.L90
 1090              	.L100:
1020:.\mem1.c      ****                     case 1: VDAC8_1_SetSpeed(VDAC8_1_HIGHSPEED); break;
 1091              		.loc 1 1020 0
 1092 0054 0020     		movs	r0, #0
 1093 0056 FFF7FEFF 		bl	VDAC8_1_SetSpeed
 1094 005a 03E0     		b	.L99
 1095              	.L101:
1021:.\mem1.c      ****                     }
 1096              		.loc 1 1021 0
 1097 005c 0220     		movs	r0, #2
 1098 005e FFF7FEFF 		bl	VDAC8_1_SetSpeed
 1099 0062 00BF     		nop
 1100              	.L99:
 1101              		.loc 1 1023 0
 1102 0064 1AE0     		b	.L90
 1103              	.L95:
1024:.\mem1.c      ****                 case 0x03:
1025:.\mem1.c      ****                     switch(val)
 1104              		.loc 1 1025 0
 1105 0066 BB88     		ldrh	r3, [r7, #4]
 1106 0068 002B     		cmp	r3, #0
 1107 006a 02D0     		beq	.L103
 1108 006c 012B     		cmp	r3, #1
 1109 006e 04D0     		beq	.L104
1026:.\mem1.c      ****                     {
1027:.\mem1.c      ****                     case 0: VDAC8_1_SetRange(VDAC8_1_RANGE_1V); break;
1028:.\mem1.c      ****                     case 1: VDAC8_1_SetRange(VDAC8_1_RANGE_4V); break;
1029:.\mem1.c      ****                     }
1030:.\mem1.c      ****                     break;
 1110              		.loc 1 1030 0
 1111 0070 14E0     		b	.L90
 1112              	.L103:
1027:.\mem1.c      ****                     case 1: VDAC8_1_SetRange(VDAC8_1_RANGE_4V); break;
 1113              		.loc 1 1027 0
 1114 0072 0020     		movs	r0, #0
 1115 0074 FFF7FEFF 		bl	VDAC8_1_SetRange
 1116 0078 03E0     		b	.L102
 1117              	.L104:
1028:.\mem1.c      ****                     }
 1118              		.loc 1 1028 0
 1119 007a 0420     		movs	r0, #4
 1120 007c FFF7FEFF 		bl	VDAC8_1_SetRange
 1121 0080 00BF     		nop
 1122              	.L102:
 1123              		.loc 1 1030 0
 1124 0082 0BE0     		b	.L90
 1125              	.L96:
1031:.\mem1.c      ****                 case 0x04: VDAC8_1_SetValue(val); break; 
 1126              		.loc 1 1031 0
 1127 0084 BB88     		ldrh	r3, [r7, #4]	@ movhi
 1128 0086 DBB2     		uxtb	r3, r3
 1129 0088 1846     		mov	r0, r3
 1130 008a FFF7FEFF 		bl	VDAC8_1_SetValue
ARM GAS  C:\Users\Robert\AppData\Local\Temp\cc7rr7YM.s 			page 39


 1131 008e 05E0     		b	.L90
 1132              	.L97:
1032:.\mem1.c      ****                 case 0x05: VDAC8_1_Sleep(); break;
 1133              		.loc 1 1032 0
 1134 0090 FFF7FEFF 		bl	VDAC8_1_Sleep
 1135 0094 02E0     		b	.L90
 1136              	.L98:
1033:.\mem1.c      ****                 case 0x06: VDAC8_1_Wakeup(); break;     
 1137              		.loc 1 1033 0
 1138 0096 FFF7FEFF 		bl	VDAC8_1_Wakeup
 1139 009a 00BF     		nop
 1140              	.L90:
1034:.\mem1.c      ****                 
1035:.\mem1.c      ****             }
1036:.\mem1.c      ****             
1037:.\mem1.c      ****             return return_flag;
 1141              		.loc 1 1037 0
 1142 009c FB7B     		ldrb	r3, [r7, #15]	@ zero_extendqisi2
1038:.\mem1.c      ****         }
 1143              		.loc 1 1038 0
 1144 009e 1846     		mov	r0, r3
 1145 00a0 1037     		adds	r7, r7, #16
 1146              		.cfi_def_cfa_offset 8
 1147 00a2 BD46     		mov	sp, r7
 1148              		.cfi_def_cfa_register 13
 1149              		@ sp needed
 1150 00a4 80BD     		pop	{r7, pc}
 1151              		.cfi_endproc
 1152              	.LFE58:
 1153              		.size	VDAC0_Control, .-VDAC0_Control
 1154 00a6 00BF     		.section	.text.IDAC0_Control,"ax",%progbits
 1155              		.align	2
 1156              		.global	IDAC0_Control
 1157              		.thumb
 1158              		.thumb_func
 1159              		.type	IDAC0_Control, %function
 1160              	IDAC0_Control:
 1161              	.LFB59:
1039:.\mem1.c      ****     #endif
1040:.\mem1.c      ****     
1041:.\mem1.c      **** /****************************************************************************************//**
1042:.\mem1.c      **** *  @brief Contains usage scenarios of the second VDAC for use by a Master device. 
1043:.\mem1.c      **** *
1044:.\mem1.c      **** *  @param cmd: 8-bit number describing a desired usage of a function associated 
1045:.\mem1.c      **** *              with the second VDAC
1046:.\mem1.c      **** *  @param val: 16-bit number containing a value that is to be written to that 
1047:.\mem1.c      **** *              function, or modify the component's operation, if applicable.
1048:.\mem1.c      **** *
1049:.\mem1.c      **** *********************************************************************************************/
1050:.\mem1.c      ****     #ifdef CY_VDAC8_VDAC8_2_H
1051:.\mem1.c      ****         bool VDAC1_Control(uint8 cmd, uint16 val, uint32 *result)
1052:.\mem1.c      ****         {
1053:.\mem1.c      ****             bool return_flag = 0;
1054:.\mem1.c      ****                 switch(cmd)
1055:.\mem1.c      ****                 {
1056:.\mem1.c      ****                     case 0x00: VDAC8_2_Start(); break;
1057:.\mem1.c      ****                     case 0x01: VDAC8_2_Stop(); break;
ARM GAS  C:\Users\Robert\AppData\Local\Temp\cc7rr7YM.s 			page 40


1058:.\mem1.c      ****                     case 0x02: 
1059:.\mem1.c      ****                         switch(val)
1060:.\mem1.c      ****                         {
1061:.\mem1.c      ****                         case 0: VDAC8_2_SetSpeed(VDAC8_2_LOWSPEED); break;
1062:.\mem1.c      ****                         case 1: VDAC8_2_SetSpeed(VDAC8_2_HIGHSPEED); break;
1063:.\mem1.c      ****                         }
1064:.\mem1.c      ****                         break;
1065:.\mem1.c      ****                     case 0x03:
1066:.\mem1.c      ****                         switch(val)
1067:.\mem1.c      ****                         {
1068:.\mem1.c      ****                         case 0: VDAC8_2_SetRange(VDAC8_2_RANGE_1V); break;
1069:.\mem1.c      ****                         case 1: VDAC8_2_SetRange(VDAC8_2_RANGE_4V); break;
1070:.\mem1.c      ****                         }
1071:.\mem1.c      ****                         break;
1072:.\mem1.c      ****                     case 0x04: VDAC8_2_SetValue(val); break; 
1073:.\mem1.c      ****                     case 0x05: VDAC8_2_Sleep(); break;
1074:.\mem1.c      ****                     case 0x06: VDAC8_2_Wakeup(); break;     
1075:.\mem1.c      ****                     
1076:.\mem1.c      ****                 }
1077:.\mem1.c      ****             return return_flag;
1078:.\mem1.c      ****         }
1079:.\mem1.c      ****     #endif
1080:.\mem1.c      ****     
1081:.\mem1.c      **** /****************************************************************************************//**
1082:.\mem1.c      **** *  @brief Contains usage scenarios of the first IDAC for use by a Master device. 
1083:.\mem1.c      **** *
1084:.\mem1.c      **** *  @param cmd: 8-bit number describing a desired usage of a function associated 
1085:.\mem1.c      **** *              with the first IDAC
1086:.\mem1.c      **** *  @param val: 16-bit number containing a value that is to be written to that 
1087:.\mem1.c      **** *              function, or modify the component's operation, if applicable.
1088:.\mem1.c      **** *
1089:.\mem1.c      **** *********************************************************************************************/
1090:.\mem1.c      ****     
1091:.\mem1.c      ****     #ifdef CY_IDAC8_IDAC8_1_H
1092:.\mem1.c      ****         bool IDAC0_Control(uint8 cmd, uint16 val, uint32 *result)
1093:.\mem1.c      ****             {
 1162              		.loc 1 1093 0
 1163              		.cfi_startproc
 1164              		@ args = 0, pretend = 0, frame = 16
 1165              		@ frame_needed = 1, uses_anonymous_args = 0
 1166 0000 80B5     		push	{r7, lr}
 1167              		.cfi_def_cfa_offset 8
 1168              		.cfi_offset 7, -8
 1169              		.cfi_offset 14, -4
 1170 0002 84B0     		sub	sp, sp, #16
 1171              		.cfi_def_cfa_offset 24
 1172 0004 00AF     		add	r7, sp, #0
 1173              		.cfi_def_cfa_register 7
 1174 0006 0346     		mov	r3, r0
 1175 0008 3A60     		str	r2, [r7]
 1176 000a FB71     		strb	r3, [r7, #7]
 1177 000c 0B46     		mov	r3, r1	@ movhi
 1178 000e BB80     		strh	r3, [r7, #4]	@ movhi
1094:.\mem1.c      ****                 bool return_flag = 0;
 1179              		.loc 1 1094 0
 1180 0010 0023     		movs	r3, #0
 1181 0012 FB73     		strb	r3, [r7, #15]
ARM GAS  C:\Users\Robert\AppData\Local\Temp\cc7rr7YM.s 			page 41


1095:.\mem1.c      ****                     switch(cmd)
 1182              		.loc 1 1095 0
 1183 0014 FB79     		ldrb	r3, [r7, #7]	@ zero_extendqisi2
 1184 0016 072B     		cmp	r3, #7
 1185 0018 57D8     		bhi	.L107
 1186 001a 01A2     		adr	r2, .L109
 1187 001c 52F823F0 		ldr	pc, [r2, r3, lsl #2]
 1188              		.p2align 2
 1189              	.L109:
 1190 0020 41000000 		.word	.L108+1
 1191 0024 47000000 		.word	.L110+1
 1192 0028 4D000000 		.word	.L111+1
 1193 002c 6B000000 		.word	.L112+1
 1194 0030 89000000 		.word	.L113+1
 1195 0034 B3000000 		.word	.L114+1
 1196 0038 BF000000 		.word	.L115+1
 1197 003c C5000000 		.word	.L116+1
 1198              		.p2align 1
 1199              	.L108:
1096:.\mem1.c      ****                     {
1097:.\mem1.c      ****                         case 0x00: IDAC8_1_Start(); break;
 1200              		.loc 1 1097 0
 1201 0040 FFF7FEFF 		bl	IDAC8_1_Start
 1202 0044 41E0     		b	.L107
 1203              	.L110:
1098:.\mem1.c      ****                         case 0x01: IDAC8_1_Stop(); break;
 1204              		.loc 1 1098 0
 1205 0046 FFF7FEFF 		bl	IDAC8_1_Stop
 1206 004a 3EE0     		b	.L107
 1207              	.L111:
1099:.\mem1.c      ****                         case 0x02: 
1100:.\mem1.c      ****                             switch(val)
 1208              		.loc 1 1100 0
 1209 004c BB88     		ldrh	r3, [r7, #4]
 1210 004e 002B     		cmp	r3, #0
 1211 0050 02D0     		beq	.L118
 1212 0052 012B     		cmp	r3, #1
 1213 0054 04D0     		beq	.L119
1101:.\mem1.c      ****                             {
1102:.\mem1.c      ****                                 case 0: IDAC8_1_SetSpeed(IDAC8_1_LOWSPEED); break;
1103:.\mem1.c      ****                                 case 1: IDAC8_1_SetSpeed(IDAC8_1_HIGHSPEED); break;
1104:.\mem1.c      ****                             }
1105:.\mem1.c      ****                             break;
 1214              		.loc 1 1105 0
 1215 0056 38E0     		b	.L107
 1216              	.L118:
1102:.\mem1.c      ****                                 case 1: IDAC8_1_SetSpeed(IDAC8_1_HIGHSPEED); break;
 1217              		.loc 1 1102 0
 1218 0058 0020     		movs	r0, #0
 1219 005a FFF7FEFF 		bl	IDAC8_1_SetSpeed
 1220 005e 03E0     		b	.L117
 1221              	.L119:
1103:.\mem1.c      ****                             }
 1222              		.loc 1 1103 0
 1223 0060 0220     		movs	r0, #2
 1224 0062 FFF7FEFF 		bl	IDAC8_1_SetSpeed
 1225 0066 00BF     		nop
ARM GAS  C:\Users\Robert\AppData\Local\Temp\cc7rr7YM.s 			page 42


 1226              	.L117:
 1227              		.loc 1 1105 0
 1228 0068 2FE0     		b	.L107
 1229              	.L112:
1106:.\mem1.c      ****                         case 0x03:
1107:.\mem1.c      ****                             switch(val)
 1230              		.loc 1 1107 0
 1231 006a BB88     		ldrh	r3, [r7, #4]
 1232 006c 002B     		cmp	r3, #0
 1233 006e 02D0     		beq	.L121
 1234 0070 012B     		cmp	r3, #1
 1235 0072 04D0     		beq	.L122
1108:.\mem1.c      ****                             {
1109:.\mem1.c      ****                                 case 0: IDAC8_1_SetPolarity(IDAC8_1_SOURCE); break;
1110:.\mem1.c      ****                                 case 1: IDAC8_1_SetPolarity(IDAC8_1_SINK); break;
1111:.\mem1.c      ****                             }
1112:.\mem1.c      ****                             break;
 1236              		.loc 1 1112 0
 1237 0074 29E0     		b	.L107
 1238              	.L121:
1109:.\mem1.c      ****                                 case 1: IDAC8_1_SetPolarity(IDAC8_1_SINK); break;
 1239              		.loc 1 1109 0
 1240 0076 0020     		movs	r0, #0
 1241 0078 FFF7FEFF 		bl	IDAC8_1_SetPolarity
 1242 007c 03E0     		b	.L120
 1243              	.L122:
1110:.\mem1.c      ****                             }
 1244              		.loc 1 1110 0
 1245 007e 0420     		movs	r0, #4
 1246 0080 FFF7FEFF 		bl	IDAC8_1_SetPolarity
 1247 0084 00BF     		nop
 1248              	.L120:
 1249              		.loc 1 1112 0
 1250 0086 20E0     		b	.L107
 1251              	.L113:
1113:.\mem1.c      ****                         case 0x04:
1114:.\mem1.c      ****                             switch(val)
 1252              		.loc 1 1114 0
 1253 0088 BB88     		ldrh	r3, [r7, #4]
 1254 008a 012B     		cmp	r3, #1
 1255 008c 08D0     		beq	.L124
 1256 008e 022B     		cmp	r3, #2
 1257 0090 0AD0     		beq	.L125
 1258 0092 002B     		cmp	r3, #0
 1259 0094 00D0     		beq	.L126
1115:.\mem1.c      ****                             {
1116:.\mem1.c      ****                                 case 0: IDAC8_1_SetRange(IDAC8_1_RANGE_32uA); break;
1117:.\mem1.c      ****                                 case 1: IDAC8_1_SetRange(IDAC8_1_RANGE_255uA); break;
1118:.\mem1.c      ****                                 case 2: IDAC8_1_SetRange(IDAC8_1_RANGE_2mA); break;
1119:.\mem1.c      ****                             }
1120:.\mem1.c      ****                             break;
 1260              		.loc 1 1120 0
 1261 0096 18E0     		b	.L107
 1262              	.L126:
1116:.\mem1.c      ****                                 case 1: IDAC8_1_SetRange(IDAC8_1_RANGE_255uA); break;
 1263              		.loc 1 1116 0
 1264 0098 0020     		movs	r0, #0
ARM GAS  C:\Users\Robert\AppData\Local\Temp\cc7rr7YM.s 			page 43


 1265 009a FFF7FEFF 		bl	IDAC8_1_SetRange
 1266 009e 07E0     		b	.L123
 1267              	.L124:
1117:.\mem1.c      ****                                 case 2: IDAC8_1_SetRange(IDAC8_1_RANGE_2mA); break;
 1268              		.loc 1 1117 0
 1269 00a0 0420     		movs	r0, #4
 1270 00a2 FFF7FEFF 		bl	IDAC8_1_SetRange
 1271 00a6 03E0     		b	.L123
 1272              	.L125:
1118:.\mem1.c      ****                             }
 1273              		.loc 1 1118 0
 1274 00a8 0820     		movs	r0, #8
 1275 00aa FFF7FEFF 		bl	IDAC8_1_SetRange
 1276 00ae 00BF     		nop
 1277              	.L123:
 1278              		.loc 1 1120 0
 1279 00b0 0BE0     		b	.L107
 1280              	.L114:
1121:.\mem1.c      ****                         case 0x05: IDAC8_1_SetValue(val); break;
 1281              		.loc 1 1121 0
 1282 00b2 BB88     		ldrh	r3, [r7, #4]	@ movhi
 1283 00b4 DBB2     		uxtb	r3, r3
 1284 00b6 1846     		mov	r0, r3
 1285 00b8 FFF7FEFF 		bl	IDAC8_1_SetValue
 1286 00bc 05E0     		b	.L107
 1287              	.L115:
1122:.\mem1.c      ****                         case 0x06: IDAC8_1_Sleep(); break;
 1288              		.loc 1 1122 0
 1289 00be FFF7FEFF 		bl	IDAC8_1_Sleep
 1290 00c2 02E0     		b	.L107
 1291              	.L116:
1123:.\mem1.c      ****                         case 0x07: IDAC8_1_Wakeup(); break;     
 1292              		.loc 1 1123 0
 1293 00c4 FFF7FEFF 		bl	IDAC8_1_Wakeup
 1294 00c8 00BF     		nop
 1295              	.L107:
1124:.\mem1.c      ****                         
1125:.\mem1.c      ****                     }
1126:.\mem1.c      ****                 return return_flag;
 1296              		.loc 1 1126 0
 1297 00ca FB7B     		ldrb	r3, [r7, #15]	@ zero_extendqisi2
1127:.\mem1.c      ****             }
 1298              		.loc 1 1127 0
 1299 00cc 1846     		mov	r0, r3
 1300 00ce 1037     		adds	r7, r7, #16
 1301              		.cfi_def_cfa_offset 8
 1302 00d0 BD46     		mov	sp, r7
 1303              		.cfi_def_cfa_register 13
 1304              		@ sp needed
 1305 00d2 80BD     		pop	{r7, pc}
 1306              		.cfi_endproc
 1307              	.LFE59:
 1308              		.size	IDAC0_Control, .-IDAC0_Control
 1309              		.section	.text.WAVEDAC_Control,"ax",%progbits
 1310              		.align	2
 1311              		.global	WAVEDAC_Control
 1312              		.thumb
ARM GAS  C:\Users\Robert\AppData\Local\Temp\cc7rr7YM.s 			page 44


 1313              		.thumb_func
 1314              		.type	WAVEDAC_Control, %function
 1315              	WAVEDAC_Control:
 1316              	.LFB60:
1128:.\mem1.c      ****     #endif
1129:.\mem1.c      ****     
1130:.\mem1.c      **** /****************************************************************************************//**
1131:.\mem1.c      **** *  @brief Contains usage scenarios of the second IDAC for use by a Master device. 
1132:.\mem1.c      **** *
1133:.\mem1.c      **** *  @param cmd: 8-bit number describing a desired usage of a function associated 
1134:.\mem1.c      **** *              with the second IDAC
1135:.\mem1.c      **** *  @param val: 16-bit number containing a value that is to be written to that 
1136:.\mem1.c      **** *              function, or modify the component's operation, if applicable.
1137:.\mem1.c      **** *
1138:.\mem1.c      **** *********************************************************************************************/
1139:.\mem1.c      ****     
1140:.\mem1.c      ****     #ifdef CY_IDAC8_IDAC8_2_H
1141:.\mem1.c      ****         bool IDAC1_Control(uint8 cmd, uint16 val, uint32 *result)
1142:.\mem1.c      ****         {
1143:.\mem1.c      ****             bool return_flag = 0;
1144:.\mem1.c      ****                 switch(cmd)
1145:.\mem1.c      ****                 {
1146:.\mem1.c      ****                     case 0x00: IDAC8_2_Start(); break;
1147:.\mem1.c      ****                     case 0x01: IDAC8_2_Stop(); break;
1148:.\mem1.c      ****                     case 0x02: 
1149:.\mem1.c      ****                             switch(val)
1150:.\mem1.c      ****                             {
1151:.\mem1.c      ****                             case 0: IDAC8_2_SetSpeed(IDAC8_2_LOWSPEED); break;
1152:.\mem1.c      ****                             case 1: IDAC8_2_SetSpeed(IDAC8_2_HIGHSPEED); break;
1153:.\mem1.c      ****                             }
1154:.\mem1.c      ****                             break;
1155:.\mem1.c      ****                         case 0x03:
1156:.\mem1.c      ****                             switch(val)
1157:.\mem1.c      ****                             {
1158:.\mem1.c      ****                             case 0: IDAC8_2_SetPolarity(IDAC8_2_SOURCE); break;
1159:.\mem1.c      ****                             case 1: IDAC8_2_SetPolarity(IDAC8_2_SINK); break;
1160:.\mem1.c      ****                             }
1161:.\mem1.c      ****                             break;
1162:.\mem1.c      ****                         case 0x04:
1163:.\mem1.c      ****                             switch(val)
1164:.\mem1.c      ****                             {
1165:.\mem1.c      ****                             case 0: IDAC8_2_SetRange(IDAC8_2_RANGE_32uA); break;
1166:.\mem1.c      ****                             case 1: IDAC8_2_SetRange(IDAC8_2_RANGE_255uA); break;
1167:.\mem1.c      ****                             case 2: IDAC8_2_SetRange(IDAC8_2_RANGE_2mA); break;
1168:.\mem1.c      ****                             }
1169:.\mem1.c      ****                             break;
1170:.\mem1.c      ****                     case 0x05: IDAC8_2_SetValue(val); break;
1171:.\mem1.c      ****                     case 0x06: IDAC8_2_Sleep(); break;
1172:.\mem1.c      ****                     case 0x07: IDAC8_2_Wakeup(); break;     
1173:.\mem1.c      ****                     
1174:.\mem1.c      ****                 }
1175:.\mem1.c      ****                 return return_flag;
1176:.\mem1.c      ****         }
1177:.\mem1.c      ****     #endif
1178:.\mem1.c      ****     
1179:.\mem1.c      **** /****************************************************************************************//**
1180:.\mem1.c      **** *  @brief Contains usage scenarios of the WaveDAC8 for use by a Master device. 
ARM GAS  C:\Users\Robert\AppData\Local\Temp\cc7rr7YM.s 			page 45


1181:.\mem1.c      **** *
1182:.\mem1.c      **** *  @param cmd: 8-bit number describing a desired usage of a function associated 
1183:.\mem1.c      **** *              with the WaveDAC8
1184:.\mem1.c      **** *  @param val: 16-bit number containing a value that is to be written to that 
1185:.\mem1.c      **** *              function, or modify the component's operation, if applicable.
1186:.\mem1.c      **** *
1187:.\mem1.c      **** *********************************************************************************************/
1188:.\mem1.c      ****     
1189:.\mem1.c      ****     #ifdef CY_WaveDAC8_WaveDAC8_1_H
1190:.\mem1.c      ****         bool WAVEDAC_Control(uint8 cmd, uint16 val, uint8 waveType, uint8 amp, uint8 dcB, uint32 *r
1191:.\mem1.c      ****         {
 1317              		.loc 1 1191 0
 1318              		.cfi_startproc
 1319              		@ args = 8, pretend = 0, frame = 16
 1320              		@ frame_needed = 1, uses_anonymous_args = 0
 1321 0000 90B5     		push	{r4, r7, lr}
 1322              		.cfi_def_cfa_offset 12
 1323              		.cfi_offset 4, -12
 1324              		.cfi_offset 7, -8
 1325              		.cfi_offset 14, -4
 1326 0002 85B0     		sub	sp, sp, #20
 1327              		.cfi_def_cfa_offset 32
 1328 0004 00AF     		add	r7, sp, #0
 1329              		.cfi_def_cfa_register 7
 1330 0006 0446     		mov	r4, r0
 1331 0008 0846     		mov	r0, r1
 1332 000a 1146     		mov	r1, r2
 1333 000c 1A46     		mov	r2, r3
 1334 000e 2346     		mov	r3, r4
 1335 0010 FB71     		strb	r3, [r7, #7]
 1336 0012 0346     		mov	r3, r0	@ movhi
 1337 0014 BB80     		strh	r3, [r7, #4]	@ movhi
 1338 0016 0B46     		mov	r3, r1
 1339 0018 BB71     		strb	r3, [r7, #6]
 1340 001a 1346     		mov	r3, r2
 1341 001c FB70     		strb	r3, [r7, #3]
1192:.\mem1.c      ****             bool return_flag = 0;
 1342              		.loc 1 1192 0
 1343 001e 0023     		movs	r3, #0
 1344 0020 FB73     		strb	r3, [r7, #15]
1193:.\mem1.c      ****             
1194:.\mem1.c      ****             switch(cmd)
 1345              		.loc 1 1194 0
 1346 0022 FB79     		ldrb	r3, [r7, #7]	@ zero_extendqisi2
 1347 0024 092B     		cmp	r3, #9
 1348 0026 3AD0     		beq	.L130
 1349 0028 092B     		cmp	r3, #9
 1350 002a 0BDC     		bgt	.L131
 1351 002c 012B     		cmp	r3, #1
 1352 002e 1AD0     		beq	.L132
 1353 0030 012B     		cmp	r3, #1
 1354 0032 02DC     		bgt	.L133
 1355 0034 002B     		cmp	r3, #0
 1356 0036 13D0     		beq	.L134
 1357 0038 53E0     		b	.L129
 1358              	.L133:
 1359 003a 042B     		cmp	r3, #4
ARM GAS  C:\Users\Robert\AppData\Local\Temp\cc7rr7YM.s 			page 46


 1360 003c 16D0     		beq	.L135
 1361 003e 072B     		cmp	r3, #7
 1362 0040 1ED0     		beq	.L136
 1363 0042 4EE0     		b	.L129
 1364              	.L131:
 1365 0044 FD2B     		cmp	r3, #253
 1366 0046 36D0     		beq	.L137
 1367 0048 FD2B     		cmp	r3, #253
 1368 004a 04DC     		bgt	.L138
 1369 004c 0B2B     		cmp	r3, #11
 1370 004e 2CD0     		beq	.L139
 1371 0050 0C2B     		cmp	r3, #12
 1372 0052 2DD0     		beq	.L140
 1373 0054 45E0     		b	.L129
 1374              	.L138:
 1375 0056 FE2B     		cmp	r3, #254
 1376 0058 30D0     		beq	.L141
 1377 005a FF2B     		cmp	r3, #255
 1378 005c 31D0     		beq	.L142
 1379 005e 40E0     		b	.L129
 1380              	.L134:
1195:.\mem1.c      ****                 {
1196:.\mem1.c      ****                     case 0x00: WaveDAC8_1_Start(); break;
 1381              		.loc 1 1196 0
 1382 0060 FFF7FEFF 		bl	WaveDAC8_1_Start
 1383 0064 3DE0     		b	.L129
 1384              	.L132:
1197:.\mem1.c      ****                     case 0x01: WaveDAC8_1_Stop(); break;
 1385              		.loc 1 1197 0
 1386 0066 FFF7FEFF 		bl	WaveDAC8_1_Stop
 1387 006a 3AE0     		b	.L129
 1388              	.L135:
1198:.\mem1.c      ****                     case 0x04: Generate_Wave(waveType, amp, dcB); break;
 1389              		.loc 1 1198 0
 1390 006c B979     		ldrb	r1, [r7, #6]	@ zero_extendqisi2
 1391 006e FA78     		ldrb	r2, [r7, #3]	@ zero_extendqisi2
 1392 0070 97F82030 		ldrb	r3, [r7, #32]	@ zero_extendqisi2
 1393 0074 0846     		mov	r0, r1
 1394 0076 1146     		mov	r1, r2
 1395 0078 1A46     		mov	r2, r3
 1396 007a FFF7FEFF 		bl	Generate_Wave
 1397 007e 30E0     		b	.L129
 1398              	.L136:
1199:.\mem1.c      ****                     case 0x07: 
1200:.\mem1.c      ****                         switch (val)
 1399              		.loc 1 1200 0
 1400 0080 BB88     		ldrh	r3, [r7, #4]
 1401 0082 002B     		cmp	r3, #0
 1402 0084 02D0     		beq	.L144
 1403 0086 012B     		cmp	r3, #1
 1404 0088 04D0     		beq	.L145
1201:.\mem1.c      ****                         {
1202:.\mem1.c      ****                         case 0: WaveDAC8_1_SetSpeed(WaveDAC8_1_LOWSPEED); break;
1203:.\mem1.c      ****                         case 1: WaveDAC8_1_SetSpeed(WaveDAC8_1_HIGHSPEED); break;
1204:.\mem1.c      ****                         }
1205:.\mem1.c      ****                         break;
 1405              		.loc 1 1205 0
ARM GAS  C:\Users\Robert\AppData\Local\Temp\cc7rr7YM.s 			page 47


 1406 008a 2AE0     		b	.L129
 1407              	.L144:
1202:.\mem1.c      ****                         case 1: WaveDAC8_1_SetSpeed(WaveDAC8_1_HIGHSPEED); break;
 1408              		.loc 1 1202 0
 1409 008c 0020     		movs	r0, #0
 1410 008e FFF7FEFF 		bl	WaveDAC8_1_VDAC8_SetSpeed
 1411 0092 03E0     		b	.L143
 1412              	.L145:
1203:.\mem1.c      ****                         }
 1413              		.loc 1 1203 0
 1414 0094 0220     		movs	r0, #2
 1415 0096 FFF7FEFF 		bl	WaveDAC8_1_VDAC8_SetSpeed
 1416 009a 00BF     		nop
 1417              	.L143:
 1418              		.loc 1 1205 0
 1419 009c 21E0     		b	.L129
 1420              	.L130:
1206:.\mem1.c      ****                     case 0x09: WaveDAC8_1_SetValue(val); break;
 1421              		.loc 1 1206 0
 1422 009e BB88     		ldrh	r3, [r7, #4]	@ movhi
 1423 00a0 DBB2     		uxtb	r3, r3
 1424 00a2 1846     		mov	r0, r3
 1425 00a4 FFF7FEFF 		bl	WaveDAC8_1_VDAC8_SetValue
 1426 00a8 1BE0     		b	.L129
 1427              	.L139:
1207:.\mem1.c      ****                     case 0x0B: WaveDAC8_1_Sleep(); break;
 1428              		.loc 1 1207 0
 1429 00aa FFF7FEFF 		bl	WaveDAC8_1_Sleep
 1430 00ae 18E0     		b	.L129
 1431              	.L140:
1208:.\mem1.c      ****                     case 0x0C: WaveDAC8_1_Wakeup(); break;
 1432              		.loc 1 1208 0
 1433 00b0 FFF7FEFF 		bl	WaveDAC8_1_Wakeup
 1434 00b4 15E0     		b	.L129
 1435              	.L137:
1209:.\mem1.c      ****                     case 0xFD: WaveDAC_clk_Start(); break;
 1436              		.loc 1 1209 0
 1437 00b6 FFF7FEFF 		bl	WaveDAC_clk_Start
 1438 00ba 12E0     		b	.L129
 1439              	.L141:
1210:.\mem1.c      ****                     case 0xFE: WaveDAC_clk_Stop(); break;
 1440              		.loc 1 1210 0
 1441 00bc FFF7FEFF 		bl	WaveDAC_clk_Stop
 1442 00c0 0FE0     		b	.L129
 1443              	.L142:
1211:.\mem1.c      ****                     case 0xFF: WaveDAC_clk_SetDividerValue(val); *result = WaveDAC_clk_GetDividerRe
 1444              		.loc 1 1211 0
 1445 00c2 BB88     		ldrh	r3, [r7, #4]	@ movhi
 1446 00c4 013B     		subs	r3, r3, #1
 1447 00c6 9BB2     		uxth	r3, r3
 1448 00c8 1846     		mov	r0, r3
 1449 00ca 0121     		movs	r1, #1
 1450 00cc FFF7FEFF 		bl	WaveDAC_clk_SetDividerRegister
 1451 00d0 FFF7FEFF 		bl	WaveDAC_clk_GetDividerRegister
 1452 00d4 0346     		mov	r3, r0
 1453 00d6 1A46     		mov	r2, r3
 1454 00d8 7B6A     		ldr	r3, [r7, #36]
ARM GAS  C:\Users\Robert\AppData\Local\Temp\cc7rr7YM.s 			page 48


 1455 00da 1A60     		str	r2, [r3]
 1456 00dc 0123     		movs	r3, #1
 1457 00de FB73     		strb	r3, [r7, #15]
 1458 00e0 00BF     		nop
 1459              	.L129:
1212:.\mem1.c      ****                         
1213:.\mem1.c      ****                     
1214:.\mem1.c      ****                 }   
1215:.\mem1.c      ****                 
1216:.\mem1.c      ****              return return_flag;
 1460              		.loc 1 1216 0
 1461 00e2 FB7B     		ldrb	r3, [r7, #15]	@ zero_extendqisi2
1217:.\mem1.c      ****             
1218:.\mem1.c      ****         }
 1462              		.loc 1 1218 0
 1463 00e4 1846     		mov	r0, r3
 1464 00e6 1437     		adds	r7, r7, #20
 1465              		.cfi_def_cfa_offset 12
 1466 00e8 BD46     		mov	sp, r7
 1467              		.cfi_def_cfa_register 13
 1468              		@ sp needed
 1469 00ea 90BD     		pop	{r4, r7, pc}
 1470              		.cfi_endproc
 1471              	.LFE60:
 1472              		.size	WAVEDAC_Control, .-WAVEDAC_Control
 1473              		.global	__aeabi_ui2d
 1474              		.global	__aeabi_ddiv
 1475              		.global	__aeabi_dmul
 1476              		.global	__aeabi_dadd
 1477              		.global	__aeabi_dcmpgt
 1478              		.global	__aeabi_d2uiz
 1479              		.section	.rodata
 1480              		.align	2
 1481              	.LC0:
 1482 0000 80       		.byte	-128
 1483 0001 83       		.byte	-125
 1484 0002 86       		.byte	-122
 1485 0003 89       		.byte	-119
 1486 0004 8C       		.byte	-116
 1487 0005 8F       		.byte	-113
 1488 0006 92       		.byte	-110
 1489 0007 95       		.byte	-107
 1490 0008 98       		.byte	-104
 1491 0009 9C       		.byte	-100
 1492 000a 9F       		.byte	-97
 1493 000b A2       		.byte	-94
 1494 000c A5       		.byte	-91
 1495 000d A8       		.byte	-88
 1496 000e AB       		.byte	-85
 1497 000f AE       		.byte	-82
 1498 0010 B0       		.byte	-80
 1499 0011 B3       		.byte	-77
 1500 0012 B6       		.byte	-74
 1501 0013 B9       		.byte	-71
 1502 0014 BC       		.byte	-68
 1503 0015 BF       		.byte	-65
 1504 0016 C1       		.byte	-63
ARM GAS  C:\Users\Robert\AppData\Local\Temp\cc7rr7YM.s 			page 49


 1505 0017 C4       		.byte	-60
 1506 0018 C7       		.byte	-57
 1507 0019 C9       		.byte	-55
 1508 001a CC       		.byte	-52
 1509 001b CE       		.byte	-50
 1510 001c D1       		.byte	-47
 1511 001d D3       		.byte	-45
 1512 001e D5       		.byte	-43
 1513 001f D8       		.byte	-40
 1514 0020 DA       		.byte	-38
 1515 0021 DC       		.byte	-36
 1516 0022 DE       		.byte	-34
 1517 0023 E0       		.byte	-32
 1518 0024 E2       		.byte	-30
 1519 0025 E4       		.byte	-28
 1520 0026 E6       		.byte	-26
 1521 0027 E8       		.byte	-24
 1522 0028 EA       		.byte	-22
 1523 0029 EC       		.byte	-20
 1524 002a ED       		.byte	-19
 1525 002b EF       		.byte	-17
 1526 002c F0       		.byte	-16
 1527 002d F2       		.byte	-14
 1528 002e F3       		.byte	-13
 1529 002f F5       		.byte	-11
 1530 0030 F6       		.byte	-10
 1531 0031 F7       		.byte	-9
 1532 0032 F8       		.byte	-8
 1533 0033 F9       		.byte	-7
 1534 0034 FA       		.byte	-6
 1535 0035 FB       		.byte	-5
 1536 0036 FC       		.byte	-4
 1537 0037 FC       		.byte	-4
 1538 0038 FD       		.byte	-3
 1539 0039 FE       		.byte	-2
 1540 003a FE       		.byte	-2
 1541 003b FF       		.byte	-1
 1542 003c FF       		.byte	-1
 1543 003d FF       		.byte	-1
 1544 003e FF       		.byte	-1
 1545 003f FF       		.byte	-1
 1546 0040 FF       		.byte	-1
 1547 0041 FF       		.byte	-1
 1548 0042 FF       		.byte	-1
 1549 0043 FF       		.byte	-1
 1550 0044 FF       		.byte	-1
 1551 0045 FF       		.byte	-1
 1552 0046 FE       		.byte	-2
 1553 0047 FE       		.byte	-2
 1554 0048 FD       		.byte	-3
 1555 0049 FC       		.byte	-4
 1556 004a FC       		.byte	-4
 1557 004b FB       		.byte	-5
 1558 004c FA       		.byte	-6
 1559 004d F9       		.byte	-7
 1560 004e F8       		.byte	-8
 1561 004f F7       		.byte	-9
ARM GAS  C:\Users\Robert\AppData\Local\Temp\cc7rr7YM.s 			page 50


 1562 0050 F6       		.byte	-10
 1563 0051 F5       		.byte	-11
 1564 0052 F3       		.byte	-13
 1565 0053 F2       		.byte	-14
 1566 0054 F0       		.byte	-16
 1567 0055 EF       		.byte	-17
 1568 0056 ED       		.byte	-19
 1569 0057 EC       		.byte	-20
 1570 0058 EA       		.byte	-22
 1571 0059 E8       		.byte	-24
 1572 005a E6       		.byte	-26
 1573 005b E4       		.byte	-28
 1574 005c E2       		.byte	-30
 1575 005d E0       		.byte	-32
 1576 005e DE       		.byte	-34
 1577 005f DC       		.byte	-36
 1578 0060 DA       		.byte	-38
 1579 0061 D8       		.byte	-40
 1580 0062 D5       		.byte	-43
 1581 0063 D3       		.byte	-45
 1582 0064 D1       		.byte	-47
 1583 0065 CE       		.byte	-50
 1584 0066 CC       		.byte	-52
 1585 0067 C9       		.byte	-55
 1586 0068 C7       		.byte	-57
 1587 0069 C4       		.byte	-60
 1588 006a C1       		.byte	-63
 1589 006b BF       		.byte	-65
 1590 006c BC       		.byte	-68
 1591 006d B9       		.byte	-71
 1592 006e B6       		.byte	-74
 1593 006f B3       		.byte	-77
 1594 0070 B0       		.byte	-80
 1595 0071 AE       		.byte	-82
 1596 0072 AB       		.byte	-85
 1597 0073 A8       		.byte	-88
 1598 0074 A5       		.byte	-91
 1599 0075 A2       		.byte	-94
 1600 0076 9F       		.byte	-97
 1601 0077 9C       		.byte	-100
 1602 0078 98       		.byte	-104
 1603 0079 95       		.byte	-107
 1604 007a 92       		.byte	-110
 1605 007b 8F       		.byte	-113
 1606 007c 8C       		.byte	-116
 1607 007d 89       		.byte	-119
 1608 007e 86       		.byte	-122
 1609 007f 83       		.byte	-125
 1610 0080 80       		.byte	-128
 1611 0081 7C       		.byte	124
 1612 0082 79       		.byte	121
 1613 0083 76       		.byte	118
 1614 0084 73       		.byte	115
 1615 0085 70       		.byte	112
 1616 0086 6D       		.byte	109
 1617 0087 6A       		.byte	106
 1618 0088 67       		.byte	103
ARM GAS  C:\Users\Robert\AppData\Local\Temp\cc7rr7YM.s 			page 51


 1619 0089 63       		.byte	99
 1620 008a 60       		.byte	96
 1621 008b 5D       		.byte	93
 1622 008c 5A       		.byte	90
 1623 008d 57       		.byte	87
 1624 008e 54       		.byte	84
 1625 008f 51       		.byte	81
 1626 0090 4F       		.byte	79
 1627 0091 4C       		.byte	76
 1628 0092 49       		.byte	73
 1629 0093 46       		.byte	70
 1630 0094 43       		.byte	67
 1631 0095 40       		.byte	64
 1632 0096 3E       		.byte	62
 1633 0097 3B       		.byte	59
 1634 0098 38       		.byte	56
 1635 0099 36       		.byte	54
 1636 009a 33       		.byte	51
 1637 009b 31       		.byte	49
 1638 009c 2E       		.byte	46
 1639 009d 2C       		.byte	44
 1640 009e 2A       		.byte	42
 1641 009f 27       		.byte	39
 1642 00a0 25       		.byte	37
 1643 00a1 23       		.byte	35
 1644 00a2 21       		.byte	33
 1645 00a3 1F       		.byte	31
 1646 00a4 1D       		.byte	29
 1647 00a5 1B       		.byte	27
 1648 00a6 19       		.byte	25
 1649 00a7 17       		.byte	23
 1650 00a8 15       		.byte	21
 1651 00a9 13       		.byte	19
 1652 00aa 12       		.byte	18
 1653 00ab 10       		.byte	16
 1654 00ac 0F       		.byte	15
 1655 00ad 0D       		.byte	13
 1656 00ae 0C       		.byte	12
 1657 00af 0A       		.byte	10
 1658 00b0 09       		.byte	9
 1659 00b1 08       		.byte	8
 1660 00b2 07       		.byte	7
 1661 00b3 06       		.byte	6
 1662 00b4 05       		.byte	5
 1663 00b5 04       		.byte	4
 1664 00b6 03       		.byte	3
 1665 00b7 03       		.byte	3
 1666 00b8 02       		.byte	2
 1667 00b9 01       		.byte	1
 1668 00ba 01       		.byte	1
 1669 00bb 00       		.byte	0
 1670 00bc 00       		.byte	0
 1671 00bd 00       		.byte	0
 1672 00be 00       		.byte	0
 1673 00bf 00       		.byte	0
 1674 00c0 00       		.byte	0
 1675 00c1 00       		.byte	0
ARM GAS  C:\Users\Robert\AppData\Local\Temp\cc7rr7YM.s 			page 52


 1676 00c2 00       		.byte	0
 1677 00c3 00       		.byte	0
 1678 00c4 00       		.byte	0
 1679 00c5 00       		.byte	0
 1680 00c6 01       		.byte	1
 1681 00c7 01       		.byte	1
 1682 00c8 02       		.byte	2
 1683 00c9 03       		.byte	3
 1684 00ca 03       		.byte	3
 1685 00cb 04       		.byte	4
 1686 00cc 05       		.byte	5
 1687 00cd 06       		.byte	6
 1688 00ce 07       		.byte	7
 1689 00cf 08       		.byte	8
 1690 00d0 09       		.byte	9
 1691 00d1 0A       		.byte	10
 1692 00d2 0C       		.byte	12
 1693 00d3 0D       		.byte	13
 1694 00d4 0F       		.byte	15
 1695 00d5 10       		.byte	16
 1696 00d6 12       		.byte	18
 1697 00d7 13       		.byte	19
 1698 00d8 15       		.byte	21
 1699 00d9 17       		.byte	23
 1700 00da 19       		.byte	25
 1701 00db 1B       		.byte	27
 1702 00dc 1D       		.byte	29
 1703 00dd 1F       		.byte	31
 1704 00de 21       		.byte	33
 1705 00df 23       		.byte	35
 1706 00e0 25       		.byte	37
 1707 00e1 27       		.byte	39
 1708 00e2 2A       		.byte	42
 1709 00e3 2C       		.byte	44
 1710 00e4 2E       		.byte	46
 1711 00e5 31       		.byte	49
 1712 00e6 33       		.byte	51
 1713 00e7 36       		.byte	54
 1714 00e8 38       		.byte	56
 1715 00e9 3B       		.byte	59
 1716 00ea 3E       		.byte	62
 1717 00eb 40       		.byte	64
 1718 00ec 43       		.byte	67
 1719 00ed 46       		.byte	70
 1720 00ee 49       		.byte	73
 1721 00ef 4C       		.byte	76
 1722 00f0 4F       		.byte	79
 1723 00f1 51       		.byte	81
 1724 00f2 54       		.byte	84
 1725 00f3 57       		.byte	87
 1726 00f4 5A       		.byte	90
 1727 00f5 5D       		.byte	93
 1728 00f6 60       		.byte	96
 1729 00f7 63       		.byte	99
 1730 00f8 67       		.byte	103
 1731 00f9 6A       		.byte	106
 1732 00fa 6D       		.byte	109
ARM GAS  C:\Users\Robert\AppData\Local\Temp\cc7rr7YM.s 			page 53


 1733 00fb 70       		.byte	112
 1734 00fc 73       		.byte	115
 1735 00fd 76       		.byte	118
 1736 00fe 79       		.byte	121
 1737 00ff 00       		.align	2
 1738              	.LC1:
 1739 0100 01       		.byte	1
 1740 0101 01       		.byte	1
 1741 0102 01       		.byte	1
 1742 0103 01       		.byte	1
 1743 0104 01       		.byte	1
 1744 0105 01       		.byte	1
 1745 0106 01       		.byte	1
 1746 0107 01       		.byte	1
 1747 0108 01       		.byte	1
 1748 0109 01       		.byte	1
 1749 010a 01       		.byte	1
 1750 010b 01       		.byte	1
 1751 010c 01       		.byte	1
 1752 010d 01       		.byte	1
 1753 010e 01       		.byte	1
 1754 010f 01       		.byte	1
 1755 0110 01       		.byte	1
 1756 0111 01       		.byte	1
 1757 0112 01       		.byte	1
 1758 0113 01       		.byte	1
 1759 0114 01       		.byte	1
 1760 0115 01       		.byte	1
 1761 0116 01       		.byte	1
 1762 0117 01       		.byte	1
 1763 0118 01       		.byte	1
 1764 0119 01       		.byte	1
 1765 011a 01       		.byte	1
 1766 011b 01       		.byte	1
 1767 011c 01       		.byte	1
 1768 011d 01       		.byte	1
 1769 011e 01       		.byte	1
 1770 011f 01       		.byte	1
 1771 0120 01       		.byte	1
 1772 0121 01       		.byte	1
 1773 0122 01       		.byte	1
 1774 0123 01       		.byte	1
 1775 0124 01       		.byte	1
 1776 0125 01       		.byte	1
 1777 0126 01       		.byte	1
 1778 0127 01       		.byte	1
 1779 0128 01       		.byte	1
 1780 0129 01       		.byte	1
 1781 012a 01       		.byte	1
 1782 012b 01       		.byte	1
 1783 012c 01       		.byte	1
 1784 012d 01       		.byte	1
 1785 012e 01       		.byte	1
 1786 012f 01       		.byte	1
 1787 0130 01       		.byte	1
 1788 0131 01       		.byte	1
 1789 0132 01       		.byte	1
ARM GAS  C:\Users\Robert\AppData\Local\Temp\cc7rr7YM.s 			page 54


 1790 0133 01       		.byte	1
 1791 0134 01       		.byte	1
 1792 0135 01       		.byte	1
 1793 0136 01       		.byte	1
 1794 0137 01       		.byte	1
 1795 0138 01       		.byte	1
 1796 0139 01       		.byte	1
 1797 013a 01       		.byte	1
 1798 013b 01       		.byte	1
 1799 013c 01       		.byte	1
 1800 013d 01       		.byte	1
 1801 013e 01       		.byte	1
 1802 013f 01       		.byte	1
 1803 0140 01       		.byte	1
 1804 0141 01       		.byte	1
 1805 0142 01       		.byte	1
 1806 0143 01       		.byte	1
 1807 0144 01       		.byte	1
 1808 0145 01       		.byte	1
 1809 0146 01       		.byte	1
 1810 0147 01       		.byte	1
 1811 0148 01       		.byte	1
 1812 0149 01       		.byte	1
 1813 014a 01       		.byte	1
 1814 014b 01       		.byte	1
 1815 014c 01       		.byte	1
 1816 014d 01       		.byte	1
 1817 014e 01       		.byte	1
 1818 014f 01       		.byte	1
 1819 0150 01       		.byte	1
 1820 0151 01       		.byte	1
 1821 0152 01       		.byte	1
 1822 0153 01       		.byte	1
 1823 0154 01       		.byte	1
 1824 0155 01       		.byte	1
 1825 0156 01       		.byte	1
 1826 0157 01       		.byte	1
 1827 0158 01       		.byte	1
 1828 0159 01       		.byte	1
 1829 015a 01       		.byte	1
 1830 015b 01       		.byte	1
 1831 015c 01       		.byte	1
 1832 015d 01       		.byte	1
 1833 015e 01       		.byte	1
 1834 015f 01       		.byte	1
 1835 0160 01       		.byte	1
 1836 0161 01       		.byte	1
 1837 0162 01       		.byte	1
 1838 0163 01       		.byte	1
 1839 0164 01       		.byte	1
 1840 0165 01       		.byte	1
 1841 0166 01       		.byte	1
 1842 0167 01       		.byte	1
 1843 0168 01       		.byte	1
 1844 0169 01       		.byte	1
 1845 016a 01       		.byte	1
 1846 016b 01       		.byte	1
ARM GAS  C:\Users\Robert\AppData\Local\Temp\cc7rr7YM.s 			page 55


 1847 016c 01       		.byte	1
 1848 016d 01       		.byte	1
 1849 016e 01       		.byte	1
 1850 016f 01       		.byte	1
 1851 0170 01       		.byte	1
 1852 0171 01       		.byte	1
 1853 0172 01       		.byte	1
 1854 0173 01       		.byte	1
 1855 0174 01       		.byte	1
 1856 0175 01       		.byte	1
 1857 0176 01       		.byte	1
 1858 0177 01       		.byte	1
 1859 0178 01       		.byte	1
 1860 0179 01       		.byte	1
 1861 017a 01       		.byte	1
 1862 017b 01       		.byte	1
 1863 017c 01       		.byte	1
 1864 017d 01       		.byte	1
 1865 017e 01       		.byte	1
 1866 017f 01       		.byte	1
 1867 0180 FF       		.byte	-1
 1868 0181 FF       		.byte	-1
 1869 0182 FF       		.byte	-1
 1870 0183 FF       		.byte	-1
 1871 0184 FF       		.byte	-1
 1872 0185 FF       		.byte	-1
 1873 0186 FF       		.byte	-1
 1874 0187 FF       		.byte	-1
 1875 0188 FF       		.byte	-1
 1876 0189 FF       		.byte	-1
 1877 018a FF       		.byte	-1
 1878 018b FF       		.byte	-1
 1879 018c FF       		.byte	-1
 1880 018d FF       		.byte	-1
 1881 018e FF       		.byte	-1
 1882 018f FF       		.byte	-1
 1883 0190 FF       		.byte	-1
 1884 0191 FF       		.byte	-1
 1885 0192 FF       		.byte	-1
 1886 0193 FF       		.byte	-1
 1887 0194 FF       		.byte	-1
 1888 0195 FF       		.byte	-1
 1889 0196 FF       		.byte	-1
 1890 0197 FF       		.byte	-1
 1891 0198 FF       		.byte	-1
 1892 0199 FF       		.byte	-1
 1893 019a FF       		.byte	-1
 1894 019b FF       		.byte	-1
 1895 019c FF       		.byte	-1
 1896 019d FF       		.byte	-1
 1897 019e FF       		.byte	-1
 1898 019f FF       		.byte	-1
 1899 01a0 FF       		.byte	-1
 1900 01a1 FF       		.byte	-1
 1901 01a2 FF       		.byte	-1
 1902 01a3 FF       		.byte	-1
 1903 01a4 FF       		.byte	-1
ARM GAS  C:\Users\Robert\AppData\Local\Temp\cc7rr7YM.s 			page 56


 1904 01a5 FF       		.byte	-1
 1905 01a6 FF       		.byte	-1
 1906 01a7 FF       		.byte	-1
 1907 01a8 FF       		.byte	-1
 1908 01a9 FF       		.byte	-1
 1909 01aa FF       		.byte	-1
 1910 01ab FF       		.byte	-1
 1911 01ac FF       		.byte	-1
 1912 01ad FF       		.byte	-1
 1913 01ae FF       		.byte	-1
 1914 01af FF       		.byte	-1
 1915 01b0 FF       		.byte	-1
 1916 01b1 FF       		.byte	-1
 1917 01b2 FF       		.byte	-1
 1918 01b3 FF       		.byte	-1
 1919 01b4 FF       		.byte	-1
 1920 01b5 FF       		.byte	-1
 1921 01b6 FF       		.byte	-1
 1922 01b7 FF       		.byte	-1
 1923 01b8 FF       		.byte	-1
 1924 01b9 FF       		.byte	-1
 1925 01ba FF       		.byte	-1
 1926 01bb FF       		.byte	-1
 1927 01bc FF       		.byte	-1
 1928 01bd FF       		.byte	-1
 1929 01be FF       		.byte	-1
 1930 01bf FF       		.byte	-1
 1931 01c0 FF       		.byte	-1
 1932 01c1 FF       		.byte	-1
 1933 01c2 FF       		.byte	-1
 1934 01c3 FF       		.byte	-1
 1935 01c4 FF       		.byte	-1
 1936 01c5 FF       		.byte	-1
 1937 01c6 FF       		.byte	-1
 1938 01c7 FF       		.byte	-1
 1939 01c8 FF       		.byte	-1
 1940 01c9 FF       		.byte	-1
 1941 01ca FF       		.byte	-1
 1942 01cb FF       		.byte	-1
 1943 01cc FF       		.byte	-1
 1944 01cd FF       		.byte	-1
 1945 01ce FF       		.byte	-1
 1946 01cf FF       		.byte	-1
 1947 01d0 FF       		.byte	-1
 1948 01d1 FF       		.byte	-1
 1949 01d2 FF       		.byte	-1
 1950 01d3 FF       		.byte	-1
 1951 01d4 FF       		.byte	-1
 1952 01d5 FF       		.byte	-1
 1953 01d6 FF       		.byte	-1
 1954 01d7 FF       		.byte	-1
 1955 01d8 FF       		.byte	-1
 1956 01d9 FF       		.byte	-1
 1957 01da FF       		.byte	-1
 1958 01db FF       		.byte	-1
 1959 01dc FF       		.byte	-1
 1960 01dd FF       		.byte	-1
ARM GAS  C:\Users\Robert\AppData\Local\Temp\cc7rr7YM.s 			page 57


 1961 01de FF       		.byte	-1
 1962 01df FF       		.byte	-1
 1963 01e0 FF       		.byte	-1
 1964 01e1 FF       		.byte	-1
 1965 01e2 FF       		.byte	-1
 1966 01e3 FF       		.byte	-1
 1967 01e4 FF       		.byte	-1
 1968 01e5 FF       		.byte	-1
 1969 01e6 FF       		.byte	-1
 1970 01e7 FF       		.byte	-1
 1971 01e8 FF       		.byte	-1
 1972 01e9 FF       		.byte	-1
 1973 01ea FF       		.byte	-1
 1974 01eb FF       		.byte	-1
 1975 01ec FF       		.byte	-1
 1976 01ed FF       		.byte	-1
 1977 01ee FF       		.byte	-1
 1978 01ef FF       		.byte	-1
 1979 01f0 FF       		.byte	-1
 1980 01f1 FF       		.byte	-1
 1981 01f2 FF       		.byte	-1
 1982 01f3 FF       		.byte	-1
 1983 01f4 FF       		.byte	-1
 1984 01f5 FF       		.byte	-1
 1985 01f6 FF       		.byte	-1
 1986 01f7 FF       		.byte	-1
 1987 01f8 FF       		.byte	-1
 1988 01f9 FF       		.byte	-1
 1989 01fa FF       		.byte	-1
 1990 01fb FF       		.byte	-1
 1991 01fc FF       		.byte	-1
 1992 01fd FF       		.byte	-1
 1993 01fe FF       		.byte	-1
 1994 01ff 00       		.align	2
 1995              	.LC2:
 1996 0200 00       		.byte	0
 1997 0201 02       		.byte	2
 1998 0202 04       		.byte	4
 1999 0203 06       		.byte	6
 2000 0204 08       		.byte	8
 2001 0205 0A       		.byte	10
 2002 0206 0C       		.byte	12
 2003 0207 0E       		.byte	14
 2004 0208 10       		.byte	16
 2005 0209 12       		.byte	18
 2006 020a 14       		.byte	20
 2007 020b 16       		.byte	22
 2008 020c 18       		.byte	24
 2009 020d 1A       		.byte	26
 2010 020e 1C       		.byte	28
 2011 020f 1E       		.byte	30
 2012 0210 20       		.byte	32
 2013 0211 22       		.byte	34
 2014 0212 24       		.byte	36
 2015 0213 26       		.byte	38
 2016 0214 28       		.byte	40
 2017 0215 2A       		.byte	42
ARM GAS  C:\Users\Robert\AppData\Local\Temp\cc7rr7YM.s 			page 58


 2018 0216 2C       		.byte	44
 2019 0217 2E       		.byte	46
 2020 0218 30       		.byte	48
 2021 0219 32       		.byte	50
 2022 021a 34       		.byte	52
 2023 021b 36       		.byte	54
 2024 021c 38       		.byte	56
 2025 021d 3A       		.byte	58
 2026 021e 3C       		.byte	60
 2027 021f 3E       		.byte	62
 2028 0220 40       		.byte	64
 2029 0221 42       		.byte	66
 2030 0222 44       		.byte	68
 2031 0223 46       		.byte	70
 2032 0224 48       		.byte	72
 2033 0225 4A       		.byte	74
 2034 0226 4C       		.byte	76
 2035 0227 4E       		.byte	78
 2036 0228 50       		.byte	80
 2037 0229 52       		.byte	82
 2038 022a 54       		.byte	84
 2039 022b 56       		.byte	86
 2040 022c 58       		.byte	88
 2041 022d 5A       		.byte	90
 2042 022e 5C       		.byte	92
 2043 022f 5E       		.byte	94
 2044 0230 60       		.byte	96
 2045 0231 62       		.byte	98
 2046 0232 64       		.byte	100
 2047 0233 66       		.byte	102
 2048 0234 68       		.byte	104
 2049 0235 6A       		.byte	106
 2050 0236 6C       		.byte	108
 2051 0237 6E       		.byte	110
 2052 0238 70       		.byte	112
 2053 0239 72       		.byte	114
 2054 023a 74       		.byte	116
 2055 023b 76       		.byte	118
 2056 023c 78       		.byte	120
 2057 023d 7A       		.byte	122
 2058 023e 7C       		.byte	124
 2059 023f 7E       		.byte	126
 2060 0240 80       		.byte	-128
 2061 0241 82       		.byte	-126
 2062 0242 84       		.byte	-124
 2063 0243 86       		.byte	-122
 2064 0244 88       		.byte	-120
 2065 0245 8A       		.byte	-118
 2066 0246 8C       		.byte	-116
 2067 0247 8E       		.byte	-114
 2068 0248 90       		.byte	-112
 2069 0249 92       		.byte	-110
 2070 024a 94       		.byte	-108
 2071 024b 96       		.byte	-106
 2072 024c 98       		.byte	-104
 2073 024d 9A       		.byte	-102
 2074 024e 9C       		.byte	-100
ARM GAS  C:\Users\Robert\AppData\Local\Temp\cc7rr7YM.s 			page 59


 2075 024f 9E       		.byte	-98
 2076 0250 A0       		.byte	-96
 2077 0251 A2       		.byte	-94
 2078 0252 A4       		.byte	-92
 2079 0253 A6       		.byte	-90
 2080 0254 A8       		.byte	-88
 2081 0255 AA       		.byte	-86
 2082 0256 AC       		.byte	-84
 2083 0257 AE       		.byte	-82
 2084 0258 B0       		.byte	-80
 2085 0259 B2       		.byte	-78
 2086 025a B4       		.byte	-76
 2087 025b B6       		.byte	-74
 2088 025c B8       		.byte	-72
 2089 025d BA       		.byte	-70
 2090 025e BC       		.byte	-68
 2091 025f BE       		.byte	-66
 2092 0260 C0       		.byte	-64
 2093 0261 C2       		.byte	-62
 2094 0262 C4       		.byte	-60
 2095 0263 C6       		.byte	-58
 2096 0264 C8       		.byte	-56
 2097 0265 CA       		.byte	-54
 2098 0266 CC       		.byte	-52
 2099 0267 CE       		.byte	-50
 2100 0268 D0       		.byte	-48
 2101 0269 D2       		.byte	-46
 2102 026a D4       		.byte	-44
 2103 026b D6       		.byte	-42
 2104 026c D8       		.byte	-40
 2105 026d DA       		.byte	-38
 2106 026e DC       		.byte	-36
 2107 026f DE       		.byte	-34
 2108 0270 E0       		.byte	-32
 2109 0271 E2       		.byte	-30
 2110 0272 E4       		.byte	-28
 2111 0273 E6       		.byte	-26
 2112 0274 E8       		.byte	-24
 2113 0275 EA       		.byte	-22
 2114 0276 EC       		.byte	-20
 2115 0277 EE       		.byte	-18
 2116 0278 F0       		.byte	-16
 2117 0279 F2       		.byte	-14
 2118 027a F4       		.byte	-12
 2119 027b F6       		.byte	-10
 2120 027c F8       		.byte	-8
 2121 027d FA       		.byte	-6
 2122 027e FC       		.byte	-4
 2123 027f FE       		.byte	-2
 2124 0280 FF       		.byte	-1
 2125 0281 FE       		.byte	-2
 2126 0282 FC       		.byte	-4
 2127 0283 FA       		.byte	-6
 2128 0284 F8       		.byte	-8
 2129 0285 F6       		.byte	-10
 2130 0286 F4       		.byte	-12
 2131 0287 F2       		.byte	-14
ARM GAS  C:\Users\Robert\AppData\Local\Temp\cc7rr7YM.s 			page 60


 2132 0288 F0       		.byte	-16
 2133 0289 EE       		.byte	-18
 2134 028a EC       		.byte	-20
 2135 028b EA       		.byte	-22
 2136 028c E8       		.byte	-24
 2137 028d E6       		.byte	-26
 2138 028e E4       		.byte	-28
 2139 028f E2       		.byte	-30
 2140 0290 E0       		.byte	-32
 2141 0291 DE       		.byte	-34
 2142 0292 DC       		.byte	-36
 2143 0293 DA       		.byte	-38
 2144 0294 D8       		.byte	-40
 2145 0295 D6       		.byte	-42
 2146 0296 D4       		.byte	-44
 2147 0297 D2       		.byte	-46
 2148 0298 D0       		.byte	-48
 2149 0299 CE       		.byte	-50
 2150 029a CC       		.byte	-52
 2151 029b CA       		.byte	-54
 2152 029c C8       		.byte	-56
 2153 029d C6       		.byte	-58
 2154 029e C4       		.byte	-60
 2155 029f C2       		.byte	-62
 2156 02a0 C0       		.byte	-64
 2157 02a1 BE       		.byte	-66
 2158 02a2 BC       		.byte	-68
 2159 02a3 BA       		.byte	-70
 2160 02a4 B8       		.byte	-72
 2161 02a5 B6       		.byte	-74
 2162 02a6 B4       		.byte	-76
 2163 02a7 B2       		.byte	-78
 2164 02a8 B0       		.byte	-80
 2165 02a9 AE       		.byte	-82
 2166 02aa AC       		.byte	-84
 2167 02ab AA       		.byte	-86
 2168 02ac A8       		.byte	-88
 2169 02ad A6       		.byte	-90
 2170 02ae A4       		.byte	-92
 2171 02af A2       		.byte	-94
 2172 02b0 A0       		.byte	-96
 2173 02b1 9E       		.byte	-98
 2174 02b2 9C       		.byte	-100
 2175 02b3 9A       		.byte	-102
 2176 02b4 98       		.byte	-104
 2177 02b5 96       		.byte	-106
 2178 02b6 94       		.byte	-108
 2179 02b7 92       		.byte	-110
 2180 02b8 90       		.byte	-112
 2181 02b9 8E       		.byte	-114
 2182 02ba 8C       		.byte	-116
 2183 02bb 8A       		.byte	-118
 2184 02bc 88       		.byte	-120
 2185 02bd 86       		.byte	-122
 2186 02be 84       		.byte	-124
 2187 02bf 82       		.byte	-126
 2188 02c0 80       		.byte	-128
ARM GAS  C:\Users\Robert\AppData\Local\Temp\cc7rr7YM.s 			page 61


 2189 02c1 7E       		.byte	126
 2190 02c2 7C       		.byte	124
 2191 02c3 7A       		.byte	122
 2192 02c4 78       		.byte	120
 2193 02c5 76       		.byte	118
 2194 02c6 74       		.byte	116
 2195 02c7 72       		.byte	114
 2196 02c8 70       		.byte	112
 2197 02c9 6E       		.byte	110
 2198 02ca 6C       		.byte	108
 2199 02cb 6A       		.byte	106
 2200 02cc 68       		.byte	104
 2201 02cd 66       		.byte	102
 2202 02ce 64       		.byte	100
 2203 02cf 62       		.byte	98
 2204 02d0 60       		.byte	96
 2205 02d1 5E       		.byte	94
 2206 02d2 5C       		.byte	92
 2207 02d3 5A       		.byte	90
 2208 02d4 58       		.byte	88
 2209 02d5 56       		.byte	86
 2210 02d6 54       		.byte	84
 2211 02d7 52       		.byte	82
 2212 02d8 50       		.byte	80
 2213 02d9 4E       		.byte	78
 2214 02da 4C       		.byte	76
 2215 02db 4A       		.byte	74
 2216 02dc 48       		.byte	72
 2217 02dd 46       		.byte	70
 2218 02de 44       		.byte	68
 2219 02df 42       		.byte	66
 2220 02e0 40       		.byte	64
 2221 02e1 3E       		.byte	62
 2222 02e2 3C       		.byte	60
 2223 02e3 3A       		.byte	58
 2224 02e4 38       		.byte	56
 2225 02e5 36       		.byte	54
 2226 02e6 34       		.byte	52
 2227 02e7 32       		.byte	50
 2228 02e8 30       		.byte	48
 2229 02e9 2E       		.byte	46
 2230 02ea 2C       		.byte	44
 2231 02eb 2A       		.byte	42
 2232 02ec 28       		.byte	40
 2233 02ed 26       		.byte	38
 2234 02ee 24       		.byte	36
 2235 02ef 22       		.byte	34
 2236 02f0 20       		.byte	32
 2237 02f1 1E       		.byte	30
 2238 02f2 1C       		.byte	28
 2239 02f3 1A       		.byte	26
 2240 02f4 18       		.byte	24
 2241 02f5 16       		.byte	22
 2242 02f6 14       		.byte	20
 2243 02f7 12       		.byte	18
 2244 02f8 10       		.byte	16
 2245 02f9 0E       		.byte	14
ARM GAS  C:\Users\Robert\AppData\Local\Temp\cc7rr7YM.s 			page 62


 2246 02fa 0C       		.byte	12
 2247 02fb 0A       		.byte	10
 2248 02fc 08       		.byte	8
 2249 02fd 06       		.byte	6
 2250 02fe 04       		.byte	4
 2251 02ff 00       		.align	2
 2252              	.LC3:
 2253 0300 01       		.byte	1
 2254 0301 02       		.byte	2
 2255 0302 03       		.byte	3
 2256 0303 04       		.byte	4
 2257 0304 05       		.byte	5
 2258 0305 06       		.byte	6
 2259 0306 07       		.byte	7
 2260 0307 08       		.byte	8
 2261 0308 09       		.byte	9
 2262 0309 0A       		.byte	10
 2263 030a 0B       		.byte	11
 2264 030b 0C       		.byte	12
 2265 030c 0D       		.byte	13
 2266 030d 0E       		.byte	14
 2267 030e 0F       		.byte	15
 2268 030f 10       		.byte	16
 2269 0310 11       		.byte	17
 2270 0311 12       		.byte	18
 2271 0312 13       		.byte	19
 2272 0313 14       		.byte	20
 2273 0314 15       		.byte	21
 2274 0315 16       		.byte	22
 2275 0316 17       		.byte	23
 2276 0317 18       		.byte	24
 2277 0318 19       		.byte	25
 2278 0319 1A       		.byte	26
 2279 031a 1B       		.byte	27
 2280 031b 1C       		.byte	28
 2281 031c 1D       		.byte	29
 2282 031d 1E       		.byte	30
 2283 031e 1F       		.byte	31
 2284 031f 20       		.byte	32
 2285 0320 21       		.byte	33
 2286 0321 22       		.byte	34
 2287 0322 23       		.byte	35
 2288 0323 24       		.byte	36
 2289 0324 25       		.byte	37
 2290 0325 26       		.byte	38
 2291 0326 27       		.byte	39
 2292 0327 28       		.byte	40
 2293 0328 29       		.byte	41
 2294 0329 2A       		.byte	42
 2295 032a 2B       		.byte	43
 2296 032b 2C       		.byte	44
 2297 032c 2D       		.byte	45
 2298 032d 2E       		.byte	46
 2299 032e 2F       		.byte	47
 2300 032f 30       		.byte	48
 2301 0330 31       		.byte	49
 2302 0331 32       		.byte	50
ARM GAS  C:\Users\Robert\AppData\Local\Temp\cc7rr7YM.s 			page 63


 2303 0332 33       		.byte	51
 2304 0333 34       		.byte	52
 2305 0334 35       		.byte	53
 2306 0335 36       		.byte	54
 2307 0336 37       		.byte	55
 2308 0337 38       		.byte	56
 2309 0338 39       		.byte	57
 2310 0339 3A       		.byte	58
 2311 033a 3B       		.byte	59
 2312 033b 3C       		.byte	60
 2313 033c 3D       		.byte	61
 2314 033d 3E       		.byte	62
 2315 033e 3F       		.byte	63
 2316 033f 40       		.byte	64
 2317 0340 41       		.byte	65
 2318 0341 42       		.byte	66
 2319 0342 43       		.byte	67
 2320 0343 44       		.byte	68
 2321 0344 45       		.byte	69
 2322 0345 46       		.byte	70
 2323 0346 47       		.byte	71
 2324 0347 48       		.byte	72
 2325 0348 49       		.byte	73
 2326 0349 4A       		.byte	74
 2327 034a 4B       		.byte	75
 2328 034b 4C       		.byte	76
 2329 034c 4D       		.byte	77
 2330 034d 4E       		.byte	78
 2331 034e 4F       		.byte	79
 2332 034f 50       		.byte	80
 2333 0350 51       		.byte	81
 2334 0351 52       		.byte	82
 2335 0352 53       		.byte	83
 2336 0353 54       		.byte	84
 2337 0354 55       		.byte	85
 2338 0355 56       		.byte	86
 2339 0356 57       		.byte	87
 2340 0357 58       		.byte	88
 2341 0358 59       		.byte	89
 2342 0359 5A       		.byte	90
 2343 035a 5B       		.byte	91
 2344 035b 5C       		.byte	92
 2345 035c 5D       		.byte	93
 2346 035d 5E       		.byte	94
 2347 035e 5F       		.byte	95
 2348 035f 60       		.byte	96
 2349 0360 61       		.byte	97
 2350 0361 62       		.byte	98
 2351 0362 63       		.byte	99
 2352 0363 64       		.byte	100
 2353 0364 65       		.byte	101
 2354 0365 66       		.byte	102
 2355 0366 67       		.byte	103
 2356 0367 68       		.byte	104
 2357 0368 69       		.byte	105
 2358 0369 6A       		.byte	106
 2359 036a 6B       		.byte	107
ARM GAS  C:\Users\Robert\AppData\Local\Temp\cc7rr7YM.s 			page 64


 2360 036b 6C       		.byte	108
 2361 036c 6D       		.byte	109
 2362 036d 6E       		.byte	110
 2363 036e 6F       		.byte	111
 2364 036f 70       		.byte	112
 2365 0370 71       		.byte	113
 2366 0371 72       		.byte	114
 2367 0372 73       		.byte	115
 2368 0373 74       		.byte	116
 2369 0374 75       		.byte	117
 2370 0375 76       		.byte	118
 2371 0376 77       		.byte	119
 2372 0377 78       		.byte	120
 2373 0378 79       		.byte	121
 2374 0379 7A       		.byte	122
 2375 037a 7B       		.byte	123
 2376 037b 7C       		.byte	124
 2377 037c 7D       		.byte	125
 2378 037d 7E       		.byte	126
 2379 037e 7F       		.byte	127
 2380 037f 80       		.byte	-128
 2381 0380 81       		.byte	-127
 2382 0381 82       		.byte	-126
 2383 0382 83       		.byte	-125
 2384 0383 84       		.byte	-124
 2385 0384 85       		.byte	-123
 2386 0385 86       		.byte	-122
 2387 0386 87       		.byte	-121
 2388 0387 88       		.byte	-120
 2389 0388 89       		.byte	-119
 2390 0389 8A       		.byte	-118
 2391 038a 8B       		.byte	-117
 2392 038b 8C       		.byte	-116
 2393 038c 8D       		.byte	-115
 2394 038d 8E       		.byte	-114
 2395 038e 8F       		.byte	-113
 2396 038f 90       		.byte	-112
 2397 0390 91       		.byte	-111
 2398 0391 92       		.byte	-110
 2399 0392 93       		.byte	-109
 2400 0393 94       		.byte	-108
 2401 0394 95       		.byte	-107
 2402 0395 96       		.byte	-106
 2403 0396 97       		.byte	-105
 2404 0397 98       		.byte	-104
 2405 0398 99       		.byte	-103
 2406 0399 9A       		.byte	-102
 2407 039a 9B       		.byte	-101
 2408 039b 9C       		.byte	-100
 2409 039c 9D       		.byte	-99
 2410 039d 9E       		.byte	-98
 2411 039e 9F       		.byte	-97
 2412 039f A0       		.byte	-96
 2413 03a0 A1       		.byte	-95
 2414 03a1 A2       		.byte	-94
 2415 03a2 A3       		.byte	-93
 2416 03a3 A4       		.byte	-92
ARM GAS  C:\Users\Robert\AppData\Local\Temp\cc7rr7YM.s 			page 65


 2417 03a4 A5       		.byte	-91
 2418 03a5 A6       		.byte	-90
 2419 03a6 A7       		.byte	-89
 2420 03a7 A8       		.byte	-88
 2421 03a8 A9       		.byte	-87
 2422 03a9 AA       		.byte	-86
 2423 03aa AB       		.byte	-85
 2424 03ab AC       		.byte	-84
 2425 03ac AD       		.byte	-83
 2426 03ad AE       		.byte	-82
 2427 03ae AF       		.byte	-81
 2428 03af B0       		.byte	-80
 2429 03b0 B1       		.byte	-79
 2430 03b1 B2       		.byte	-78
 2431 03b2 B3       		.byte	-77
 2432 03b3 B4       		.byte	-76
 2433 03b4 B5       		.byte	-75
 2434 03b5 B6       		.byte	-74
 2435 03b6 B7       		.byte	-73
 2436 03b7 B8       		.byte	-72
 2437 03b8 B9       		.byte	-71
 2438 03b9 BA       		.byte	-70
 2439 03ba BB       		.byte	-69
 2440 03bb BC       		.byte	-68
 2441 03bc BD       		.byte	-67
 2442 03bd BE       		.byte	-66
 2443 03be BF       		.byte	-65
 2444 03bf C0       		.byte	-64
 2445 03c0 C1       		.byte	-63
 2446 03c1 C2       		.byte	-62
 2447 03c2 C3       		.byte	-61
 2448 03c3 C4       		.byte	-60
 2449 03c4 C5       		.byte	-59
 2450 03c5 C6       		.byte	-58
 2451 03c6 C7       		.byte	-57
 2452 03c7 C8       		.byte	-56
 2453 03c8 C9       		.byte	-55
 2454 03c9 CA       		.byte	-54
 2455 03ca CB       		.byte	-53
 2456 03cb CC       		.byte	-52
 2457 03cc CD       		.byte	-51
 2458 03cd CE       		.byte	-50
 2459 03ce CF       		.byte	-49
 2460 03cf D0       		.byte	-48
 2461 03d0 D1       		.byte	-47
 2462 03d1 D2       		.byte	-46
 2463 03d2 D3       		.byte	-45
 2464 03d3 D4       		.byte	-44
 2465 03d4 D5       		.byte	-43
 2466 03d5 D6       		.byte	-42
 2467 03d6 D7       		.byte	-41
 2468 03d7 D8       		.byte	-40
 2469 03d8 D9       		.byte	-39
 2470 03d9 DA       		.byte	-38
 2471 03da DB       		.byte	-37
 2472 03db DC       		.byte	-36
 2473 03dc DD       		.byte	-35
ARM GAS  C:\Users\Robert\AppData\Local\Temp\cc7rr7YM.s 			page 66


 2474 03dd DE       		.byte	-34
 2475 03de DF       		.byte	-33
 2476 03df E0       		.byte	-32
 2477 03e0 E1       		.byte	-31
 2478 03e1 E2       		.byte	-30
 2479 03e2 E3       		.byte	-29
 2480 03e3 E4       		.byte	-28
 2481 03e4 E5       		.byte	-27
 2482 03e5 E6       		.byte	-26
 2483 03e6 E7       		.byte	-25
 2484 03e7 E8       		.byte	-24
 2485 03e8 E9       		.byte	-23
 2486 03e9 EA       		.byte	-22
 2487 03ea EB       		.byte	-21
 2488 03eb EC       		.byte	-20
 2489 03ec ED       		.byte	-19
 2490 03ed EE       		.byte	-18
 2491 03ee EF       		.byte	-17
 2492 03ef F0       		.byte	-16
 2493 03f0 F1       		.byte	-15
 2494 03f1 F2       		.byte	-14
 2495 03f2 F3       		.byte	-13
 2496 03f3 F4       		.byte	-12
 2497 03f4 F5       		.byte	-11
 2498 03f5 F6       		.byte	-10
 2499 03f6 F7       		.byte	-9
 2500 03f7 F8       		.byte	-8
 2501 03f8 F9       		.byte	-7
 2502 03f9 FA       		.byte	-6
 2503 03fa FB       		.byte	-5
 2504 03fb FC       		.byte	-4
 2505 03fc FD       		.byte	-3
 2506 03fd FE       		.byte	-2
 2507 03fe FF       		.byte	-1
 2508 03ff 00       		.section	.text.Generate_Wave,"ax",%progbits
 2509              		.align	2
 2510              		.global	Generate_Wave
 2511              		.thumb
 2512              		.thumb_func
 2513              		.type	Generate_Wave, %function
 2514              	Generate_Wave:
 2515              	.LFB61:
1219:.\mem1.c      ****         
1220:.\mem1.c      **** /**************************************************************************//**
1221:.\mem1.c      **** *  @brief Helper function for the WaveDAC; If a Master device requests that it 
1222:.\mem1.c      **** *         wants to generate a specific Waveform, this function will read a second
1223:.\mem1.c      **** *         set of data from the Master device which contains the desired waveform,
1224:.\mem1.c      **** *         the desired peak voltage, and the desired DC Bias, and then it will
1225:.\mem1.c      **** *         generate the desired waveform using the WaveDAC8.
1226:.\mem1.c      **** *
1227:.\mem1.c      **** *******************************************************************************/
1228:.\mem1.c      ****         void Generate_Wave(uint8 waveType, uint8 amp, uint8 dcB)
1229:.\mem1.c      ****         {
 2516              		.loc 1 1229 0
 2517              		.cfi_startproc
 2518              		@ args = 0, pretend = 0, frame = 1312
 2519              		@ frame_needed = 1, uses_anonymous_args = 0
ARM GAS  C:\Users\Robert\AppData\Local\Temp\cc7rr7YM.s 			page 67


 2520 0000 B0B5     		push	{r4, r5, r7, lr}
 2521              		.cfi_def_cfa_offset 16
 2522              		.cfi_offset 4, -16
 2523              		.cfi_offset 5, -12
 2524              		.cfi_offset 7, -8
 2525              		.cfi_offset 14, -4
 2526 0002 ADF5A46D 		sub	sp, sp, #1312
 2527              		.cfi_def_cfa_offset 1328
 2528 0006 00AF     		add	r7, sp, #0
 2529              		.cfi_def_cfa_register 7
 2530 0008 0446     		mov	r4, r0
 2531 000a 0846     		mov	r0, r1
 2532 000c 1146     		mov	r1, r2
 2533 000e FB1D     		adds	r3, r7, #7
 2534 0010 2246     		mov	r2, r4
 2535 0012 1A70     		strb	r2, [r3]
 2536 0014 BB1D     		adds	r3, r7, #6
 2537 0016 0246     		mov	r2, r0
 2538 0018 1A70     		strb	r2, [r3]
 2539 001a 7B1D     		adds	r3, r7, #5
 2540 001c 0A46     		mov	r2, r1
 2541 001e 1A70     		strb	r2, [r3]
1230:.\mem1.c      ****               
1231:.\mem1.c      ****             #define WAVE_SIZE           (255)
1232:.\mem1.c      ****             #define SINE                (0x00)
1233:.\mem1.c      ****             #define SQUARE              (0x01)
1234:.\mem1.c      ****             #define TRIANGLE            (0x02)
1235:.\mem1.c      ****             #define SAWTOOTH            (0x03)
1236:.\mem1.c      ****             
1237:.\mem1.c      ****             
1238:.\mem1.c      ****             uint8 SINEWave[WAVE_SIZE] = {
 2542              		.loc 1 1238 0
 2543 0020 07F58163 		add	r3, r7, #1032
 2544 0024 BC4A     		ldr	r2, .L172+8
 2545 0026 1946     		mov	r1, r3
 2546 0028 FF23     		movs	r3, #255
 2547 002a 0846     		mov	r0, r1
 2548 002c 1146     		mov	r1, r2
 2549 002e 1A46     		mov	r2, r3
 2550 0030 FFF7FEFF 		bl	memcpy
1239:.\mem1.c      ****                         128,131,134,137,140,143,146,149,152,156,159,162,165,168,171,174,
1240:.\mem1.c      ****                         176,179,182,185,188,191,193,196,199,201,204,206,209,211,213,216,
1241:.\mem1.c      ****                         218,220,222,224,226,228,230,232,234,236,237,239,240,242,243,245,
1242:.\mem1.c      ****                         246,247,248,249,250,251,252,252,253,254,254,255,255,255,255,255,
1243:.\mem1.c      ****                         255,255,255,255,255,255,254,254,253,252,252,251,250,249,248,247,
1244:.\mem1.c      ****                         246,245,243,242,240,239,237,236,234,232,230,228,226,224,222,220,
1245:.\mem1.c      ****                         218,216,213,211,209,206,204,201,199,196,193,191,188,185,182,179,
1246:.\mem1.c      ****                         176,174,171,168,165,162,159,156,152,149,146,143,140,137,134,131,
1247:.\mem1.c      ****                         128,124,121,118,115,112,109,106,103,99, 96, 93, 90, 87, 84, 81, 
1248:.\mem1.c      ****                         79, 76, 73, 70, 67, 64, 62, 59, 56, 54, 51, 49, 46, 44, 42, 39, 
1249:.\mem1.c      ****                         37, 35, 33, 31, 29, 27, 25, 23, 21, 19, 18, 16, 15, 13, 12, 10, 
1250:.\mem1.c      ****                         9,  8,  7,  6,  5,  4,  3,  3,  2,  1,  1,  0,  0,  0,  0,  0,  
1251:.\mem1.c      ****                         0,  0,  0,  0,  0,  0,  1,  1,  2,  3,  3,  4,  5,  6,  7,  8,  
1252:.\mem1.c      ****                         9,  10, 12, 13, 15, 16, 18, 19, 21, 23, 25, 27, 29, 31, 33, 35, 
1253:.\mem1.c      ****                         37, 39, 42, 44, 46, 49, 51, 54, 56, 59, 62, 64, 67, 70, 73, 76, 
1254:.\mem1.c      ****                         79, 81, 84, 87, 90, 93, 96, 99, 103,106,109,112,115,118,121
1255:.\mem1.c      ****                         };
ARM GAS  C:\Users\Robert\AppData\Local\Temp\cc7rr7YM.s 			page 68


1256:.\mem1.c      ****             uint8 SQUAREWave[WAVE_SIZE] = {
 2551              		.loc 1 1256 0
 2552 0034 07F54273 		add	r3, r7, #776
 2553 0038 B84A     		ldr	r2, .L172+12
 2554 003a 1946     		mov	r1, r3
 2555 003c FF23     		movs	r3, #255
 2556 003e 0846     		mov	r0, r1
 2557 0040 1146     		mov	r1, r2
 2558 0042 1A46     		mov	r2, r3
 2559 0044 FFF7FEFF 		bl	memcpy
1257:.\mem1.c      ****                         1, 1, 1, 1, 1, 1, 1, 1, 1, 1, 1, 1, 1, 1, 1, 1, 1, 1, 1, 1, 1, 1, 1, 1, 1, 
1258:.\mem1.c      ****                         1, 1, 1, 1, 1, 1, 1, 1, 1, 1, 1, 1, 1, 1, 1, 1, 1, 1, 1, 1, 1, 1, 1, 1, 1, 
1259:.\mem1.c      ****                         1, 1, 1, 1, 1, 1, 1, 1, 1, 1, 1, 1, 1, 1, 1, 1, 1, 1, 1, 1, 1, 1, 1, 1, 1, 
1260:.\mem1.c      ****                         1, 1, 1, 1, 1, 1, 1, 1, 1, 1, 1, 1, 1, 1, 1, 1, 1, 1, 1, 1, 1, 1, 1, 1, 1, 
1261:.\mem1.c      ****                         1, 1, 1, 1, 1, 1, 1, 1, 1, 1, 1, 1, 1, 1, 1, 1, 1, 1, 1, 1, 1, 255, 255, 25
1262:.\mem1.c      ****                         255, 255, 255, 255, 255, 255, 255, 255, 255, 255, 255, 255, 255, 255, 255, 
1263:.\mem1.c      ****                         255, 255, 255, 255, 255, 255, 255, 255, 255, 255, 255, 255, 255, 255, 255, 
1264:.\mem1.c      ****                         255, 255, 255, 255, 255, 255, 255, 255, 255, 255, 255, 255, 255, 255, 255, 
1265:.\mem1.c      ****                         255, 255, 255, 255, 255, 255, 255, 255, 255, 255, 255, 255, 255, 255, 255, 
1266:.\mem1.c      ****                         255, 255, 255, 255, 255, 255, 255, 255, 255, 255, 255, 255, 255, 255, 255, 
1267:.\mem1.c      ****                         255, 255, 255, 255, 255, 255, 255, 255, 255, 255, 255, 255, 255, 255, 255, 
1268:.\mem1.c      ****                         255, 255, 255, 255, 255, 255, 255, 255, 255, 255, 255, 255, 255, 255, 255, 
1269:.\mem1.c      ****                         255, 255, 255, 255, 255, 255, 255, 255, 255, 255, 255, 255};
1270:.\mem1.c      ****                         
1271:.\mem1.c      ****             uint8 TRIANGLEWave[WAVE_SIZE] = {
 2560              		.loc 1 1271 0
 2561 0048 07F50273 		add	r3, r7, #520
 2562 004c B44A     		ldr	r2, .L172+16
 2563 004e 1946     		mov	r1, r3
 2564 0050 FF23     		movs	r3, #255
 2565 0052 0846     		mov	r0, r1
 2566 0054 1146     		mov	r1, r2
 2567 0056 1A46     		mov	r2, r3
 2568 0058 FFF7FEFF 		bl	memcpy
1272:.\mem1.c      ****                         0, 2, 4, 6, 8, 10, 12, 14, 16, 18, 20, 22, 24, 26, 28, 30, 32, 34, 36, 38, 
1273:.\mem1.c      ****                         44, 46, 48, 50, 52, 54, 56, 58, 60, 62, 64, 66, 68, 70, 72, 74, 76, 78, 80,
1274:.\mem1.c      ****                         86, 88, 90, 92, 94, 96, 98, 100, 102, 104, 106, 108, 110, 112, 114, 116, 11
1275:.\mem1.c      ****                         122, 124, 126, 128, 130, 132, 134, 136, 138, 140, 142, 144, 146, 148, 150, 
1276:.\mem1.c      ****                         156, 158, 160, 162, 164, 166, 168, 170, 172, 174, 176, 178, 180, 182, 184, 
1277:.\mem1.c      ****                         190, 192, 194, 196, 198, 200, 202, 204, 206, 208, 210, 212, 214, 216, 218, 
1278:.\mem1.c      ****                         224, 226, 228, 230, 232, 234, 236, 238, 240, 242, 244, 246, 248, 250, 252, 
1279:.\mem1.c      ****                         254, 252, 250, 248, 246, 244, 242, 240, 238, 236, 234, 232, 230, 228, 226, 
1280:.\mem1.c      ****                         220, 218, 216, 214, 212, 210, 208, 206, 204, 202, 200, 198, 196, 194, 192, 
1281:.\mem1.c      ****                         186, 184, 182, 180, 178, 176, 174, 172, 170, 168, 166, 164, 162, 160, 158, 
1282:.\mem1.c      ****                         152, 150, 148, 146, 144, 142, 140, 138, 136, 134, 132, 130, 128, 126, 124, 
1283:.\mem1.c      ****                         118, 116, 114, 112, 110, 108, 106, 104, 102, 100, 98, 96, 94, 92, 90, 88, 8
1284:.\mem1.c      ****                         80, 78, 76, 74, 72, 70, 68, 66, 64, 62, 60, 58, 56, 54, 52, 50, 48, 46, 44,
1285:.\mem1.c      ****                         38, 36, 34, 32, 30, 28, 26, 24, 22, 20, 18, 16, 14, 12, 10, 8, 6, 4
1286:.\mem1.c      ****                         };
1287:.\mem1.c      ****             uint8 SAWTOOTHWave[WAVE_SIZE] = {
 2569              		.loc 1 1287 0
 2570 005c 07F58473 		add	r3, r7, #264
 2571 0060 B04A     		ldr	r2, .L172+20
 2572 0062 1946     		mov	r1, r3
 2573 0064 FF23     		movs	r3, #255
 2574 0066 0846     		mov	r0, r1
 2575 0068 1146     		mov	r1, r2
ARM GAS  C:\Users\Robert\AppData\Local\Temp\cc7rr7YM.s 			page 69


 2576 006a 1A46     		mov	r2, r3
 2577 006c FFF7FEFF 		bl	memcpy
1288:.\mem1.c      ****                             1, 2, 3, 4, 5, 6, 7, 8, 9, 10, 11, 12, 13, 14, 15, 16, 17, 18, 19, 20, 
1289:.\mem1.c      ****                             23, 24, 25, 26, 27, 28, 29, 30, 31, 32, 33, 34, 35, 36, 37, 38, 39, 40,
1290:.\mem1.c      ****                             43, 44, 45, 46, 47, 48, 49, 50, 51, 52, 53, 54, 55, 56, 57, 58, 59, 60,
1291:.\mem1.c      ****                             63, 64, 65, 66, 67, 68, 69, 70, 71, 72, 73, 74, 75, 76, 77, 78, 79, 80,
1292:.\mem1.c      ****                             83, 84, 85, 86, 87, 88, 89, 90, 91, 92, 93, 94, 95, 96, 97, 98, 99, 100
1293:.\mem1.c      ****                             103, 104, 105, 106, 107, 108, 109, 110, 111, 112, 113, 114, 115, 116, 1
1294:.\mem1.c      ****                             119, 120, 121, 122, 123, 124, 125, 126, 127, 128, 129, 130, 131, 132, 1
1295:.\mem1.c      ****                             135, 136, 137, 138, 139, 140, 141, 142, 143, 144, 145, 146, 147, 148, 1
1296:.\mem1.c      ****                             151, 152, 153, 154, 155, 156, 157, 158, 159, 160, 161, 162, 163, 164, 1
1297:.\mem1.c      ****                             167, 168, 169, 170, 171, 172, 173, 174, 175, 176, 177, 178, 179, 180, 1
1298:.\mem1.c      ****                             183, 184, 185, 186, 187, 188, 189, 190, 191, 192, 193, 194, 195, 196, 1
1299:.\mem1.c      ****                             199, 200, 201, 202, 203, 204, 205, 206, 207, 208, 209, 210, 211, 212, 2
1300:.\mem1.c      ****                             215, 216, 217, 218, 219, 220, 221, 222, 223, 224, 225, 226, 227, 228, 2
1301:.\mem1.c      ****                             231, 232, 233, 234, 235, 236, 237, 238, 239, 240, 241, 242, 243, 244, 2
1302:.\mem1.c      ****                             247, 248, 249, 250, 251, 252, 253, 254,255
1303:.\mem1.c      ****                     	};
1304:.\mem1.c      ****             
1305:.\mem1.c      ****             
1306:.\mem1.c      ****             
1307:.\mem1.c      ****             uint8 newWave[WAVE_SIZE];
1308:.\mem1.c      ****             memset(newWave, 0, WAVE_SIZE);
 2578              		.loc 1 1308 0
 2579 0070 07F10803 		add	r3, r7, #8
 2580 0074 1846     		mov	r0, r3
 2581 0076 0021     		movs	r1, #0
 2582 0078 FF22     		movs	r2, #255
 2583 007a FFF7FEFF 		bl	memset
1309:.\mem1.c      ****             double val;
1310:.\mem1.c      ****             uint8 newVal = 0;
 2584              		.loc 1 1310 0
 2585 007e 0023     		movs	r3, #0
 2586 0080 87F80735 		strb	r3, [r7, #1287]
1311:.\mem1.c      ****             
1312:.\mem1.c      ****             if (waveType == SINE)
 2587              		.loc 1 1312 0
 2588 0084 FB1D     		adds	r3, r7, #7
 2589 0086 1B78     		ldrb	r3, [r3]	@ zero_extendqisi2
 2590 0088 002B     		cmp	r3, #0
 2591 008a 65D1     		bne	.L148
 2592              	.LBB2:
1313:.\mem1.c      ****             {
1314:.\mem1.c      ****               int i;
1315:.\mem1.c      ****               for(i = 0; i < WAVE_SIZE; i++)
 2593              		.loc 1 1315 0
 2594 008c 0023     		movs	r3, #0
 2595 008e C7F81435 		str	r3, [r7, #1300]
 2596 0092 5CE0     		b	.L149
 2597              	.L152:
1316:.\mem1.c      ****                 {
1317:.\mem1.c      ****                     val = (((double)SINEWave[i]) * (((double)amp)/255.0)) + (double)dcB;
 2598              		.loc 1 1317 0
 2599 0094 07F58162 		add	r2, r7, #1032
 2600 0098 D7F81435 		ldr	r3, [r7, #1300]
 2601 009c 1344     		add	r3, r3, r2
 2602 009e 1B78     		ldrb	r3, [r3]	@ zero_extendqisi2
ARM GAS  C:\Users\Robert\AppData\Local\Temp\cc7rr7YM.s 			page 70


 2603 00a0 1846     		mov	r0, r3
 2604 00a2 FFF7FEFF 		bl	__aeabi_ui2d
 2605 00a6 0446     		mov	r4, r0
 2606 00a8 0D46     		mov	r5, r1
 2607 00aa BB1D     		adds	r3, r7, #6
 2608 00ac 1B78     		ldrb	r3, [r3]	@ zero_extendqisi2
 2609 00ae 1846     		mov	r0, r3
 2610 00b0 FFF7FEFF 		bl	__aeabi_ui2d
 2611 00b4 0246     		mov	r2, r0
 2612 00b6 0B46     		mov	r3, r1
 2613 00b8 1046     		mov	r0, r2
 2614 00ba 1946     		mov	r1, r3
 2615 00bc 94A3     		adr	r3, .L172
 2616 00be D3E90023 		ldrd	r2, [r3]
 2617 00c2 FFF7FEFF 		bl	__aeabi_ddiv
 2618 00c6 0246     		mov	r2, r0
 2619 00c8 0B46     		mov	r3, r1
 2620 00ca 2046     		mov	r0, r4
 2621 00cc 2946     		mov	r1, r5
 2622 00ce FFF7FEFF 		bl	__aeabi_dmul
 2623 00d2 0246     		mov	r2, r0
 2624 00d4 0B46     		mov	r3, r1
 2625 00d6 1446     		mov	r4, r2
 2626 00d8 1D46     		mov	r5, r3
 2627 00da 7B1D     		adds	r3, r7, #5
 2628 00dc 1B78     		ldrb	r3, [r3]	@ zero_extendqisi2
 2629 00de 1846     		mov	r0, r3
 2630 00e0 FFF7FEFF 		bl	__aeabi_ui2d
 2631 00e4 0246     		mov	r2, r0
 2632 00e6 0B46     		mov	r3, r1
 2633 00e8 2046     		mov	r0, r4
 2634 00ea 2946     		mov	r1, r5
 2635 00ec FFF7FEFF 		bl	__aeabi_dadd
 2636 00f0 0246     		mov	r2, r0
 2637 00f2 0B46     		mov	r3, r1
 2638 00f4 07F5A361 		add	r1, r7, #1304
 2639 00f8 C1E90023 		strd	r2, [r1]
1318:.\mem1.c      ****                     if(val > 255){val = 255;}
 2640              		.loc 1 1318 0
 2641 00fc 07F5A363 		add	r3, r7, #1304
 2642 0100 D3E90001 		ldrd	r0, [r3]
 2643 0104 82A3     		adr	r3, .L172
 2644 0106 D3E90023 		ldrd	r2, [r3]
 2645 010a FFF7FEFF 		bl	__aeabi_dcmpgt
 2646 010e 0346     		mov	r3, r0
 2647 0110 002B     		cmp	r3, #0
 2648 0112 06D0     		beq	.L150
 2649              		.loc 1 1318 0 is_stmt 0 discriminator 1
 2650 0114 7EA3     		adr	r3, .L172
 2651 0116 D3E90023 		ldrd	r2, [r3]
 2652 011a 07F5A361 		add	r1, r7, #1304
 2653 011e C1E90023 		strd	r2, [r1]
 2654              	.L150:
1319:.\mem1.c      ****                     newVal = (uint8)val; 
 2655              		.loc 1 1319 0 is_stmt 1 discriminator 2
 2656 0122 07F5A363 		add	r3, r7, #1304
 2657 0126 D3E90001 		ldrd	r0, [r3]
ARM GAS  C:\Users\Robert\AppData\Local\Temp\cc7rr7YM.s 			page 71


 2658 012a FFF7FEFF 		bl	__aeabi_d2uiz
 2659 012e 0346     		mov	r3, r0
 2660 0130 87F80735 		strb	r3, [r7, #1287]
1320:.\mem1.c      ****                     newWave[i] = newVal;
 2661              		.loc 1 1320 0 discriminator 2
 2662 0134 07F10802 		add	r2, r7, #8
 2663 0138 D7F81435 		ldr	r3, [r7, #1300]
 2664 013c 1344     		add	r3, r3, r2
 2665 013e 97F80725 		ldrb	r2, [r7, #1287]
 2666 0142 1A70     		strb	r2, [r3]
1315:.\mem1.c      ****                 {
 2667              		.loc 1 1315 0 discriminator 2
 2668 0144 D7F81435 		ldr	r3, [r7, #1300]
 2669 0148 0133     		adds	r3, r3, #1
 2670 014a C7F81435 		str	r3, [r7, #1300]
 2671              	.L149:
1315:.\mem1.c      ****                 {
 2672              		.loc 1 1315 0 is_stmt 0 discriminator 1
 2673 014e D7F81435 		ldr	r3, [r7, #1300]
 2674 0152 FE2B     		cmp	r3, #254
 2675 0154 9EDD     		ble	.L152
 2676              	.LBE2:
 2677 0156 68E0     		b	.L153
 2678              	.L148:
1321:.\mem1.c      ****     	        }
1322:.\mem1.c      ****                            
1323:.\mem1.c      ****             }
1324:.\mem1.c      ****             
1325:.\mem1.c      ****             else if (waveType == SQUARE)
 2679              		.loc 1 1325 0 is_stmt 1
 2680 0158 FB1D     		adds	r3, r7, #7
 2681 015a 1B78     		ldrb	r3, [r3]	@ zero_extendqisi2
 2682 015c 012B     		cmp	r3, #1
 2683 015e 64D1     		bne	.L153
 2684              	.LBB3:
1326:.\mem1.c      ****             {
1327:.\mem1.c      ****               int i;
1328:.\mem1.c      ****               for(i = 0; i < WAVE_SIZE; i++)
 2685              		.loc 1 1328 0
 2686 0160 0023     		movs	r3, #0
 2687 0162 C7F81035 		str	r3, [r7, #1296]
 2688 0166 5CE0     		b	.L154
 2689              	.L157:
1329:.\mem1.c      ****                 {
1330:.\mem1.c      ****                     val = (((double)SQUAREWave[i]) * (((double)amp)/255.0)) + (double)dcB;
 2690              		.loc 1 1330 0
 2691 0168 07F54272 		add	r2, r7, #776
 2692 016c D7F81035 		ldr	r3, [r7, #1296]
 2693 0170 1344     		add	r3, r3, r2
 2694 0172 1B78     		ldrb	r3, [r3]	@ zero_extendqisi2
 2695 0174 1846     		mov	r0, r3
 2696 0176 FFF7FEFF 		bl	__aeabi_ui2d
 2697 017a 0446     		mov	r4, r0
 2698 017c 0D46     		mov	r5, r1
 2699 017e BB1D     		adds	r3, r7, #6
 2700 0180 1B78     		ldrb	r3, [r3]	@ zero_extendqisi2
 2701 0182 1846     		mov	r0, r3
ARM GAS  C:\Users\Robert\AppData\Local\Temp\cc7rr7YM.s 			page 72


 2702 0184 FFF7FEFF 		bl	__aeabi_ui2d
 2703 0188 0246     		mov	r2, r0
 2704 018a 0B46     		mov	r3, r1
 2705 018c 1046     		mov	r0, r2
 2706 018e 1946     		mov	r1, r3
 2707 0190 5FA3     		adr	r3, .L172
 2708 0192 D3E90023 		ldrd	r2, [r3]
 2709 0196 FFF7FEFF 		bl	__aeabi_ddiv
 2710 019a 0246     		mov	r2, r0
 2711 019c 0B46     		mov	r3, r1
 2712 019e 2046     		mov	r0, r4
 2713 01a0 2946     		mov	r1, r5
 2714 01a2 FFF7FEFF 		bl	__aeabi_dmul
 2715 01a6 0246     		mov	r2, r0
 2716 01a8 0B46     		mov	r3, r1
 2717 01aa 1446     		mov	r4, r2
 2718 01ac 1D46     		mov	r5, r3
 2719 01ae 7B1D     		adds	r3, r7, #5
 2720 01b0 1B78     		ldrb	r3, [r3]	@ zero_extendqisi2
 2721 01b2 1846     		mov	r0, r3
 2722 01b4 FFF7FEFF 		bl	__aeabi_ui2d
 2723 01b8 0246     		mov	r2, r0
 2724 01ba 0B46     		mov	r3, r1
 2725 01bc 2046     		mov	r0, r4
 2726 01be 2946     		mov	r1, r5
 2727 01c0 FFF7FEFF 		bl	__aeabi_dadd
 2728 01c4 0246     		mov	r2, r0
 2729 01c6 0B46     		mov	r3, r1
 2730 01c8 07F5A361 		add	r1, r7, #1304
 2731 01cc C1E90023 		strd	r2, [r1]
1331:.\mem1.c      ****                     if(val > 255){val = 255;}
 2732              		.loc 1 1331 0
 2733 01d0 07F5A363 		add	r3, r7, #1304
 2734 01d4 D3E90001 		ldrd	r0, [r3]
 2735 01d8 4DA3     		adr	r3, .L172
 2736 01da D3E90023 		ldrd	r2, [r3]
 2737 01de FFF7FEFF 		bl	__aeabi_dcmpgt
 2738 01e2 0346     		mov	r3, r0
 2739 01e4 002B     		cmp	r3, #0
 2740 01e6 06D0     		beq	.L155
 2741              		.loc 1 1331 0 is_stmt 0 discriminator 1
 2742 01e8 49A3     		adr	r3, .L172
 2743 01ea D3E90023 		ldrd	r2, [r3]
 2744 01ee 07F5A361 		add	r1, r7, #1304
 2745 01f2 C1E90023 		strd	r2, [r1]
 2746              	.L155:
1332:.\mem1.c      ****                     newVal = (uint8)val; 
 2747              		.loc 1 1332 0 is_stmt 1 discriminator 2
 2748 01f6 07F5A363 		add	r3, r7, #1304
 2749 01fa D3E90001 		ldrd	r0, [r3]
 2750 01fe FFF7FEFF 		bl	__aeabi_d2uiz
 2751 0202 0346     		mov	r3, r0
 2752 0204 87F80735 		strb	r3, [r7, #1287]
1333:.\mem1.c      ****                     newWave[i] = newVal;
 2753              		.loc 1 1333 0 discriminator 2
 2754 0208 07F10802 		add	r2, r7, #8
 2755 020c D7F81035 		ldr	r3, [r7, #1296]
ARM GAS  C:\Users\Robert\AppData\Local\Temp\cc7rr7YM.s 			page 73


 2756 0210 1344     		add	r3, r3, r2
 2757 0212 97F80725 		ldrb	r2, [r7, #1287]
 2758 0216 1A70     		strb	r2, [r3]
1328:.\mem1.c      ****                 {
 2759              		.loc 1 1328 0 discriminator 2
 2760 0218 D7F81035 		ldr	r3, [r7, #1296]
 2761 021c 0133     		adds	r3, r3, #1
 2762 021e C7F81035 		str	r3, [r7, #1296]
 2763              	.L154:
1328:.\mem1.c      ****                 {
 2764              		.loc 1 1328 0 is_stmt 0 discriminator 1
 2765 0222 D7F81035 		ldr	r3, [r7, #1296]
 2766 0226 FE2B     		cmp	r3, #254
 2767 0228 9EDD     		ble	.L157
 2768              	.L153:
 2769              	.LBE3:
1334:.\mem1.c      ****     	        }
1335:.\mem1.c      ****                            
1336:.\mem1.c      ****             }
1337:.\mem1.c      ****             
1338:.\mem1.c      ****             if (waveType == TRIANGLE)
 2770              		.loc 1 1338 0 is_stmt 1
 2771 022a FB1D     		adds	r3, r7, #7
 2772 022c 1B78     		ldrb	r3, [r3]	@ zero_extendqisi2
 2773 022e 022B     		cmp	r3, #2
 2774 0230 64D1     		bne	.L158
 2775              	.LBB4:
1339:.\mem1.c      ****             {
1340:.\mem1.c      ****               int i;
1341:.\mem1.c      ****               for(i = 0; i < WAVE_SIZE; i++)
 2776              		.loc 1 1341 0
 2777 0232 0023     		movs	r3, #0
 2778 0234 C7F80C35 		str	r3, [r7, #1292]
 2779 0238 5CE0     		b	.L159
 2780              	.L162:
1342:.\mem1.c      ****                 {
1343:.\mem1.c      ****                     val = (((double)TRIANGLEWave[i]) * (((double)amp)/255.0)) + (double)dcB;
 2781              		.loc 1 1343 0
 2782 023a 07F50272 		add	r2, r7, #520
 2783 023e D7F80C35 		ldr	r3, [r7, #1292]
 2784 0242 1344     		add	r3, r3, r2
 2785 0244 1B78     		ldrb	r3, [r3]	@ zero_extendqisi2
 2786 0246 1846     		mov	r0, r3
 2787 0248 FFF7FEFF 		bl	__aeabi_ui2d
 2788 024c 0446     		mov	r4, r0
 2789 024e 0D46     		mov	r5, r1
 2790 0250 BB1D     		adds	r3, r7, #6
 2791 0252 1B78     		ldrb	r3, [r3]	@ zero_extendqisi2
 2792 0254 1846     		mov	r0, r3
 2793 0256 FFF7FEFF 		bl	__aeabi_ui2d
 2794 025a 0246     		mov	r2, r0
 2795 025c 0B46     		mov	r3, r1
 2796 025e 1046     		mov	r0, r2
 2797 0260 1946     		mov	r1, r3
 2798 0262 2BA3     		adr	r3, .L172
 2799 0264 D3E90023 		ldrd	r2, [r3]
 2800 0268 FFF7FEFF 		bl	__aeabi_ddiv
ARM GAS  C:\Users\Robert\AppData\Local\Temp\cc7rr7YM.s 			page 74


 2801 026c 0246     		mov	r2, r0
 2802 026e 0B46     		mov	r3, r1
 2803 0270 2046     		mov	r0, r4
 2804 0272 2946     		mov	r1, r5
 2805 0274 FFF7FEFF 		bl	__aeabi_dmul
 2806 0278 0246     		mov	r2, r0
 2807 027a 0B46     		mov	r3, r1
 2808 027c 1446     		mov	r4, r2
 2809 027e 1D46     		mov	r5, r3
 2810 0280 7B1D     		adds	r3, r7, #5
 2811 0282 1B78     		ldrb	r3, [r3]	@ zero_extendqisi2
 2812 0284 1846     		mov	r0, r3
 2813 0286 FFF7FEFF 		bl	__aeabi_ui2d
 2814 028a 0246     		mov	r2, r0
 2815 028c 0B46     		mov	r3, r1
 2816 028e 2046     		mov	r0, r4
 2817 0290 2946     		mov	r1, r5
 2818 0292 FFF7FEFF 		bl	__aeabi_dadd
 2819 0296 0246     		mov	r2, r0
 2820 0298 0B46     		mov	r3, r1
 2821 029a 07F5A361 		add	r1, r7, #1304
 2822 029e C1E90023 		strd	r2, [r1]
1344:.\mem1.c      ****                     if(val > 255){val = 255;}
 2823              		.loc 1 1344 0
 2824 02a2 07F5A363 		add	r3, r7, #1304
 2825 02a6 D3E90001 		ldrd	r0, [r3]
 2826 02aa 19A3     		adr	r3, .L172
 2827 02ac D3E90023 		ldrd	r2, [r3]
 2828 02b0 FFF7FEFF 		bl	__aeabi_dcmpgt
 2829 02b4 0346     		mov	r3, r0
 2830 02b6 002B     		cmp	r3, #0
 2831 02b8 06D0     		beq	.L160
 2832              		.loc 1 1344 0 is_stmt 0 discriminator 1
 2833 02ba 15A3     		adr	r3, .L172
 2834 02bc D3E90023 		ldrd	r2, [r3]
 2835 02c0 07F5A361 		add	r1, r7, #1304
 2836 02c4 C1E90023 		strd	r2, [r1]
 2837              	.L160:
1345:.\mem1.c      ****                     newVal = (uint8)val; 
 2838              		.loc 1 1345 0 is_stmt 1 discriminator 2
 2839 02c8 07F5A363 		add	r3, r7, #1304
 2840 02cc D3E90001 		ldrd	r0, [r3]
 2841 02d0 FFF7FEFF 		bl	__aeabi_d2uiz
 2842 02d4 0346     		mov	r3, r0
 2843 02d6 87F80735 		strb	r3, [r7, #1287]
1346:.\mem1.c      ****                     newWave[i] = newVal;
 2844              		.loc 1 1346 0 discriminator 2
 2845 02da 07F10802 		add	r2, r7, #8
 2846 02de D7F80C35 		ldr	r3, [r7, #1292]
 2847 02e2 1344     		add	r3, r3, r2
 2848 02e4 97F80725 		ldrb	r2, [r7, #1287]
 2849 02e8 1A70     		strb	r2, [r3]
1341:.\mem1.c      ****                 {
 2850              		.loc 1 1341 0 discriminator 2
 2851 02ea D7F80C35 		ldr	r3, [r7, #1292]
 2852 02ee 0133     		adds	r3, r3, #1
 2853 02f0 C7F80C35 		str	r3, [r7, #1292]
ARM GAS  C:\Users\Robert\AppData\Local\Temp\cc7rr7YM.s 			page 75


 2854              	.L159:
1341:.\mem1.c      ****                 {
 2855              		.loc 1 1341 0 is_stmt 0 discriminator 1
 2856 02f4 D7F80C35 		ldr	r3, [r7, #1292]
 2857 02f8 FE2B     		cmp	r3, #254
 2858 02fa 9EDD     		ble	.L162
 2859              	.L158:
 2860              	.LBE4:
1347:.\mem1.c      ****     	        }
1348:.\mem1.c      ****                            
1349:.\mem1.c      ****             }
1350:.\mem1.c      ****             
1351:.\mem1.c      ****            if (waveType == SAWTOOTH)
 2861              		.loc 1 1351 0 is_stmt 1
 2862 02fc FB1D     		adds	r3, r7, #7
 2863 02fe 1B78     		ldrb	r3, [r3]	@ zero_extendqisi2
 2864 0300 032B     		cmp	r3, #3
 2865 0302 72D1     		bne	.L163
 2866              	.LBB5:
1352:.\mem1.c      ****             {
1353:.\mem1.c      ****               int i;
1354:.\mem1.c      ****               for(i = 0; i < WAVE_SIZE; i++)
 2867              		.loc 1 1354 0
 2868 0304 0023     		movs	r3, #0
 2869 0306 C7F80835 		str	r3, [r7, #1288]
 2870 030a 6AE0     		b	.L164
 2871              	.L173:
 2872 030c AFF30080 		.align	3
 2873              	.L172:
 2874 0310 00000000 		.word	0
 2875 0314 00E06F40 		.word	1081073664
 2876 0318 00000000 		.word	.LC0
 2877 031c 00010000 		.word	.LC1
 2878 0320 00020000 		.word	.LC2
 2879 0324 00030000 		.word	.LC3
 2880              	.L167:
1355:.\mem1.c      ****                 {
1356:.\mem1.c      ****                     val = (((double)SAWTOOTHWave[i]) * (((double)amp)/255.0)) + (double)dcB;
 2881              		.loc 1 1356 0
 2882 0328 07F58472 		add	r2, r7, #264
 2883 032c D7F80835 		ldr	r3, [r7, #1288]
 2884 0330 1344     		add	r3, r3, r2
 2885 0332 1B78     		ldrb	r3, [r3]	@ zero_extendqisi2
 2886 0334 1846     		mov	r0, r3
 2887 0336 FFF7FEFF 		bl	__aeabi_ui2d
 2888 033a 0446     		mov	r4, r0
 2889 033c 0D46     		mov	r5, r1
 2890 033e BB1D     		adds	r3, r7, #6
 2891 0340 1B78     		ldrb	r3, [r3]	@ zero_extendqisi2
 2892 0342 1846     		mov	r0, r3
 2893 0344 FFF7FEFF 		bl	__aeabi_ui2d
 2894 0348 0246     		mov	r2, r0
 2895 034a 0B46     		mov	r3, r1
 2896 034c 1046     		mov	r0, r2
 2897 034e 1946     		mov	r1, r3
 2898 0350 2BA3     		adr	r3, .L174
 2899 0352 D3E90023 		ldrd	r2, [r3]
ARM GAS  C:\Users\Robert\AppData\Local\Temp\cc7rr7YM.s 			page 76


 2900 0356 FFF7FEFF 		bl	__aeabi_ddiv
 2901 035a 0246     		mov	r2, r0
 2902 035c 0B46     		mov	r3, r1
 2903 035e 2046     		mov	r0, r4
 2904 0360 2946     		mov	r1, r5
 2905 0362 FFF7FEFF 		bl	__aeabi_dmul
 2906 0366 0246     		mov	r2, r0
 2907 0368 0B46     		mov	r3, r1
 2908 036a 1446     		mov	r4, r2
 2909 036c 1D46     		mov	r5, r3
 2910 036e 7B1D     		adds	r3, r7, #5
 2911 0370 1B78     		ldrb	r3, [r3]	@ zero_extendqisi2
 2912 0372 1846     		mov	r0, r3
 2913 0374 FFF7FEFF 		bl	__aeabi_ui2d
 2914 0378 0246     		mov	r2, r0
 2915 037a 0B46     		mov	r3, r1
 2916 037c 2046     		mov	r0, r4
 2917 037e 2946     		mov	r1, r5
 2918 0380 FFF7FEFF 		bl	__aeabi_dadd
 2919 0384 0246     		mov	r2, r0
 2920 0386 0B46     		mov	r3, r1
 2921 0388 07F5A361 		add	r1, r7, #1304
 2922 038c C1E90023 		strd	r2, [r1]
1357:.\mem1.c      ****                     if(val > 255){val = 255;}
 2923              		.loc 1 1357 0
 2924 0390 07F5A363 		add	r3, r7, #1304
 2925 0394 D3E90001 		ldrd	r0, [r3]
 2926 0398 19A3     		adr	r3, .L174
 2927 039a D3E90023 		ldrd	r2, [r3]
 2928 039e FFF7FEFF 		bl	__aeabi_dcmpgt
 2929 03a2 0346     		mov	r3, r0
 2930 03a4 002B     		cmp	r3, #0
 2931 03a6 06D0     		beq	.L165
 2932              		.loc 1 1357 0 is_stmt 0 discriminator 1
 2933 03a8 15A3     		adr	r3, .L174
 2934 03aa D3E90023 		ldrd	r2, [r3]
 2935 03ae 07F5A361 		add	r1, r7, #1304
 2936 03b2 C1E90023 		strd	r2, [r1]
 2937              	.L165:
1358:.\mem1.c      ****                     newVal = (uint8)val; 
 2938              		.loc 1 1358 0 is_stmt 1 discriminator 2
 2939 03b6 07F5A363 		add	r3, r7, #1304
 2940 03ba D3E90001 		ldrd	r0, [r3]
 2941 03be FFF7FEFF 		bl	__aeabi_d2uiz
 2942 03c2 0346     		mov	r3, r0
 2943 03c4 87F80735 		strb	r3, [r7, #1287]
1359:.\mem1.c      ****                     newWave[i] = newVal;
 2944              		.loc 1 1359 0 discriminator 2
 2945 03c8 07F10802 		add	r2, r7, #8
 2946 03cc D7F80835 		ldr	r3, [r7, #1288]
 2947 03d0 1344     		add	r3, r3, r2
 2948 03d2 97F80725 		ldrb	r2, [r7, #1287]
 2949 03d6 1A70     		strb	r2, [r3]
1354:.\mem1.c      ****                 {
 2950              		.loc 1 1354 0 discriminator 2
 2951 03d8 D7F80835 		ldr	r3, [r7, #1288]
 2952 03dc 0133     		adds	r3, r3, #1
ARM GAS  C:\Users\Robert\AppData\Local\Temp\cc7rr7YM.s 			page 77


 2953 03de C7F80835 		str	r3, [r7, #1288]
 2954              	.L164:
1354:.\mem1.c      ****                 {
 2955              		.loc 1 1354 0 is_stmt 0 discriminator 1
 2956 03e2 D7F80835 		ldr	r3, [r7, #1288]
 2957 03e6 FE2B     		cmp	r3, #254
 2958 03e8 9EDD     		ble	.L167
 2959              	.L163:
 2960              	.LBE5:
1360:.\mem1.c      ****     	        }
1361:.\mem1.c      ****                            
1362:.\mem1.c      ****             }
1363:.\mem1.c      ****             
1364:.\mem1.c      ****             WaveDAC8_1_Wave2Setup(newWave, WAVE_SIZE);
 2961              		.loc 1 1364 0 is_stmt 1
 2962 03ea 07F10803 		add	r3, r7, #8
 2963 03ee 1846     		mov	r0, r3
 2964 03f0 FF21     		movs	r1, #255
 2965 03f2 FFF7FEFF 		bl	WaveDAC8_1_Wave2Setup
1365:.\mem1.c      ****             
1366:.\mem1.c      ****             
1367:.\mem1.c      ****             
1368:.\mem1.c      ****         }
 2966              		.loc 1 1368 0
 2967 03f6 07F5A467 		add	r7, r7, #1312
 2968              		.cfi_def_cfa_offset 16
 2969 03fa BD46     		mov	sp, r7
 2970              		.cfi_def_cfa_register 13
 2971              		@ sp needed
 2972 03fc B0BD     		pop	{r4, r5, r7, pc}
 2973              	.L175:
 2974 03fe 00BF     		.align	3
 2975              	.L174:
 2976 0400 00000000 		.word	0
 2977 0404 00E06F40 		.word	1081073664
 2978              		.cfi_endproc
 2979              	.LFE61:
 2980              		.size	Generate_Wave, .-Generate_Wave
 2981              		.section	.text.PWM_Control_0,"ax",%progbits
 2982              		.align	2
 2983              		.global	PWM_Control_0
 2984              		.thumb
 2985              		.thumb_func
 2986              		.type	PWM_Control_0, %function
 2987              	PWM_Control_0:
 2988              	.LFB62:
1369:.\mem1.c      ****     #endif    
1370:.\mem1.c      ****     
1371:.\mem1.c      **** /****************************************************************************************//**
1372:.\mem1.c      **** *  @brief Contains usage scenarios of the first PWM component for use by a Master device. 
1373:.\mem1.c      **** *
1374:.\mem1.c      **** *  @param cmd: 8-bit number describing a desired usage of a function associated 
1375:.\mem1.c      **** *              with the first PWM component
1376:.\mem1.c      **** *  @param val: 16-bit number containing a value that is to be written to that 
1377:.\mem1.c      **** *              function, or modify the component's operation, if applicable.
1378:.\mem1.c      **** *
1379:.\mem1.c      **** *********************************************************************************************/
ARM GAS  C:\Users\Robert\AppData\Local\Temp\cc7rr7YM.s 			page 78


1380:.\mem1.c      ****  
1381:.\mem1.c      ****     #ifdef CY_PWM_PWM_1_H
1382:.\mem1.c      ****         bool PWM_Control_0(uint8 cmd, uint16 val, uint32 *result)
1383:.\mem1.c      ****         {
 2989              		.loc 1 1383 0
 2990              		.cfi_startproc
 2991              		@ args = 0, pretend = 0, frame = 16
 2992              		@ frame_needed = 1, uses_anonymous_args = 0
 2993 0000 80B5     		push	{r7, lr}
 2994              		.cfi_def_cfa_offset 8
 2995              		.cfi_offset 7, -8
 2996              		.cfi_offset 14, -4
 2997 0002 84B0     		sub	sp, sp, #16
 2998              		.cfi_def_cfa_offset 24
 2999 0004 00AF     		add	r7, sp, #0
 3000              		.cfi_def_cfa_register 7
 3001 0006 0346     		mov	r3, r0
 3002 0008 3A60     		str	r2, [r7]
 3003 000a FB71     		strb	r3, [r7, #7]
 3004 000c 0B46     		mov	r3, r1	@ movhi
 3005 000e BB80     		strh	r3, [r7, #4]	@ movhi
1384:.\mem1.c      ****             bool return_flag = 0;
 3006              		.loc 1 1384 0
 3007 0010 0023     		movs	r3, #0
 3008 0012 FB73     		strb	r3, [r7, #15]
1385:.\mem1.c      ****             
1386:.\mem1.c      ****             switch(cmd)
 3009              		.loc 1 1386 0
 3010 0014 FB79     		ldrb	r3, [r7, #7]	@ zero_extendqisi2
 3011 0016 0E2B     		cmp	r3, #14
 3012 0018 2FD0     		beq	.L178
 3013 001a 0E2B     		cmp	r3, #14
 3014 001c 0BDC     		bgt	.L179
 3015 001e 012B     		cmp	r3, #1
 3016 0020 1AD0     		beq	.L180
 3017 0022 012B     		cmp	r3, #1
 3018 0024 02DC     		bgt	.L181
 3019 0026 002B     		cmp	r3, #0
 3020 0028 13D0     		beq	.L182
 3021 002a 4DE0     		b	.L177
 3022              	.L181:
 3023 002c 0C2B     		cmp	r3, #12
 3024 002e 16D0     		beq	.L183
 3025 0030 0D2B     		cmp	r3, #13
 3026 0032 19D0     		beq	.L184
 3027 0034 48E0     		b	.L177
 3028              	.L179:
 3029 0036 192B     		cmp	r3, #25
 3030 0038 30D0     		beq	.L185
 3031 003a 192B     		cmp	r3, #25
 3032 003c 04DC     		bgt	.L186
 3033 003e 0F2B     		cmp	r3, #15
 3034 0040 20D0     		beq	.L187
 3035 0042 182B     		cmp	r3, #24
 3036 0044 27D0     		beq	.L188
 3037 0046 3FE0     		b	.L177
 3038              	.L186:
ARM GAS  C:\Users\Robert\AppData\Local\Temp\cc7rr7YM.s 			page 79


 3039 0048 1A2B     		cmp	r3, #26
 3040 004a 2AD0     		beq	.L189
 3041 004c FF2B     		cmp	r3, #255
 3042 004e 2BD0     		beq	.L190
 3043 0050 3AE0     		b	.L177
 3044              	.L182:
1387:.\mem1.c      ****             {
1388:.\mem1.c      ****                 case 0x00: PWM_1_Start(); break;
 3045              		.loc 1 1388 0
 3046 0052 FFF7FEFF 		bl	PWM_1_Start
 3047 0056 37E0     		b	.L177
 3048              	.L180:
1389:.\mem1.c      ****                 case 0x01: PWM_1_Stop(); break;
 3049              		.loc 1 1389 0
 3050 0058 FFF7FEFF 		bl	PWM_1_Stop
 3051 005c 34E0     		b	.L177
 3052              	.L183:
1390:.\mem1.c      ****                 case 0x0C: PWM_1_WritePeriod(val); break;
 3053              		.loc 1 1390 0
 3054 005e BB88     		ldrh	r3, [r7, #4]
 3055 0060 1846     		mov	r0, r3
 3056 0062 FFF7FEFF 		bl	PWM_1_WritePeriod
 3057 0066 2FE0     		b	.L177
 3058              	.L184:
1391:.\mem1.c      ****                 case 0x0D: *result = PWM_1_ReadPeriod(); return_flag = 1; break;
 3059              		.loc 1 1391 0
 3060 0068 FFF7FEFF 		bl	PWM_1_ReadPeriod
 3061 006c 0346     		mov	r3, r0
 3062 006e 1A46     		mov	r2, r3
 3063 0070 3B68     		ldr	r3, [r7]
 3064 0072 1A60     		str	r2, [r3]
 3065 0074 0123     		movs	r3, #1
 3066 0076 FB73     		strb	r3, [r7, #15]
 3067 0078 26E0     		b	.L177
 3068              	.L178:
1392:.\mem1.c      ****                 case 0x0E: PWM_1_WriteCompare(val); break;
 3069              		.loc 1 1392 0
 3070 007a BB88     		ldrh	r3, [r7, #4]
 3071 007c 1846     		mov	r0, r3
 3072 007e FFF7FEFF 		bl	PWM_1_WriteCompare
 3073 0082 21E0     		b	.L177
 3074              	.L187:
1393:.\mem1.c      ****                 case 0x0F: *result  = PWM_1_ReadCompare(); return_flag = 1; break;
 3075              		.loc 1 1393 0
 3076 0084 FFF7FEFF 		bl	PWM_1_ReadCompare
 3077 0088 0346     		mov	r3, r0
 3078 008a 1A46     		mov	r2, r3
 3079 008c 3B68     		ldr	r3, [r7]
 3080 008e 1A60     		str	r2, [r3]
 3081 0090 0123     		movs	r3, #1
 3082 0092 FB73     		strb	r3, [r7, #15]
 3083 0094 18E0     		b	.L177
 3084              	.L188:
1394:.\mem1.c      ****                 case 0x18: PWM_1_ClearFIFO(); break; 
 3085              		.loc 1 1394 0
 3086 0096 FFF7FEFF 		bl	PWM_1_ClearFIFO
 3087 009a 15E0     		b	.L177
ARM GAS  C:\Users\Robert\AppData\Local\Temp\cc7rr7YM.s 			page 80


 3088              	.L185:
1395:.\mem1.c      ****                 case 0x19: PWM_1_Sleep(); break; 
 3089              		.loc 1 1395 0
 3090 009c FFF7FEFF 		bl	PWM_1_Sleep
 3091 00a0 12E0     		b	.L177
 3092              	.L189:
1396:.\mem1.c      ****                 case 0x1A: PWM_1_Wakeup(); break; 
 3093              		.loc 1 1396 0
 3094 00a2 FFF7FEFF 		bl	PWM_1_Wakeup
 3095 00a6 0FE0     		b	.L177
 3096              	.L190:
1397:.\mem1.c      ****                 case 0xFF: PWM_CLK_1_SetDividerValue(val); *result = PWM_CLK_1_GetDividerRegister()
 3097              		.loc 1 1397 0
 3098 00a8 BB88     		ldrh	r3, [r7, #4]	@ movhi
 3099 00aa 013B     		subs	r3, r3, #1
 3100 00ac 9BB2     		uxth	r3, r3
 3101 00ae 1846     		mov	r0, r3
 3102 00b0 0121     		movs	r1, #1
 3103 00b2 FFF7FEFF 		bl	PWM_CLK_1_SetDividerRegister
 3104 00b6 FFF7FEFF 		bl	PWM_CLK_1_GetDividerRegister
 3105 00ba 0346     		mov	r3, r0
 3106 00bc 1A46     		mov	r2, r3
 3107 00be 3B68     		ldr	r3, [r7]
 3108 00c0 1A60     		str	r2, [r3]
 3109 00c2 0123     		movs	r3, #1
 3110 00c4 FB73     		strb	r3, [r7, #15]
 3111 00c6 00BF     		nop
 3112              	.L177:
1398:.\mem1.c      ****                 
1399:.\mem1.c      ****             }
1400:.\mem1.c      ****             
1401:.\mem1.c      ****             return return_flag;
 3113              		.loc 1 1401 0
 3114 00c8 FB7B     		ldrb	r3, [r7, #15]	@ zero_extendqisi2
1402:.\mem1.c      ****         }
 3115              		.loc 1 1402 0
 3116 00ca 1846     		mov	r0, r3
 3117 00cc 1037     		adds	r7, r7, #16
 3118              		.cfi_def_cfa_offset 8
 3119 00ce BD46     		mov	sp, r7
 3120              		.cfi_def_cfa_register 13
 3121              		@ sp needed
 3122 00d0 80BD     		pop	{r7, pc}
 3123              		.cfi_endproc
 3124              	.LFE62:
 3125              		.size	PWM_Control_0, .-PWM_Control_0
 3126 00d2 00BF     		.section	.text.PWM_Control_1,"ax",%progbits
 3127              		.align	2
 3128              		.global	PWM_Control_1
 3129              		.thumb
 3130              		.thumb_func
 3131              		.type	PWM_Control_1, %function
 3132              	PWM_Control_1:
 3133              	.LFB63:
1403:.\mem1.c      ****     #endif
1404:.\mem1.c      **** /****************************************************************************************//**
1405:.\mem1.c      **** *  @brief Contains usage scenarios of the second PWM component for use by a Master device. 
ARM GAS  C:\Users\Robert\AppData\Local\Temp\cc7rr7YM.s 			page 81


1406:.\mem1.c      **** *
1407:.\mem1.c      **** *  @param cmd: 8-bit number describing a desired usage of a function associated 
1408:.\mem1.c      **** *              with the second PWM component
1409:.\mem1.c      **** *  @param val: 16-bit number containing a value that is to be written to that 
1410:.\mem1.c      **** *              function, or modify the component's operation, if applicable.
1411:.\mem1.c      **** *
1412:.\mem1.c      **** *********************************************************************************************/
1413:.\mem1.c      ****     
1414:.\mem1.c      ****      #ifdef CY_PWM_PWM_2_H
1415:.\mem1.c      ****         bool PWM_Control_1(uint8 cmd, uint16 val, uint32 *result)
1416:.\mem1.c      ****         {
 3134              		.loc 1 1416 0
 3135              		.cfi_startproc
 3136              		@ args = 0, pretend = 0, frame = 16
 3137              		@ frame_needed = 1, uses_anonymous_args = 0
 3138 0000 80B5     		push	{r7, lr}
 3139              		.cfi_def_cfa_offset 8
 3140              		.cfi_offset 7, -8
 3141              		.cfi_offset 14, -4
 3142 0002 84B0     		sub	sp, sp, #16
 3143              		.cfi_def_cfa_offset 24
 3144 0004 00AF     		add	r7, sp, #0
 3145              		.cfi_def_cfa_register 7
 3146 0006 0346     		mov	r3, r0
 3147 0008 3A60     		str	r2, [r7]
 3148 000a FB71     		strb	r3, [r7, #7]
 3149 000c 0B46     		mov	r3, r1	@ movhi
 3150 000e BB80     		strh	r3, [r7, #4]	@ movhi
1417:.\mem1.c      ****             bool return_flag = 0;
 3151              		.loc 1 1417 0
 3152 0010 0023     		movs	r3, #0
 3153 0012 FB73     		strb	r3, [r7, #15]
1418:.\mem1.c      ****             
1419:.\mem1.c      ****             switch(cmd)
 3154              		.loc 1 1419 0
 3155 0014 FB79     		ldrb	r3, [r7, #7]	@ zero_extendqisi2
 3156 0016 0E2B     		cmp	r3, #14
 3157 0018 2FD0     		beq	.L194
 3158 001a 0E2B     		cmp	r3, #14
 3159 001c 0BDC     		bgt	.L195
 3160 001e 012B     		cmp	r3, #1
 3161 0020 1AD0     		beq	.L196
 3162 0022 012B     		cmp	r3, #1
 3163 0024 02DC     		bgt	.L197
 3164 0026 002B     		cmp	r3, #0
 3165 0028 13D0     		beq	.L198
 3166 002a 4DE0     		b	.L193
 3167              	.L197:
 3168 002c 0C2B     		cmp	r3, #12
 3169 002e 16D0     		beq	.L199
 3170 0030 0D2B     		cmp	r3, #13
 3171 0032 19D0     		beq	.L200
 3172 0034 48E0     		b	.L193
 3173              	.L195:
 3174 0036 192B     		cmp	r3, #25
 3175 0038 30D0     		beq	.L201
 3176 003a 192B     		cmp	r3, #25
ARM GAS  C:\Users\Robert\AppData\Local\Temp\cc7rr7YM.s 			page 82


 3177 003c 04DC     		bgt	.L202
 3178 003e 0F2B     		cmp	r3, #15
 3179 0040 20D0     		beq	.L203
 3180 0042 182B     		cmp	r3, #24
 3181 0044 27D0     		beq	.L204
 3182 0046 3FE0     		b	.L193
 3183              	.L202:
 3184 0048 1A2B     		cmp	r3, #26
 3185 004a 2AD0     		beq	.L205
 3186 004c FF2B     		cmp	r3, #255
 3187 004e 2BD0     		beq	.L206
 3188 0050 3AE0     		b	.L193
 3189              	.L198:
1420:.\mem1.c      ****             {
1421:.\mem1.c      ****                 case 0x00: PWM_2_Start(); break;
 3190              		.loc 1 1421 0
 3191 0052 FFF7FEFF 		bl	PWM_2_Start
 3192 0056 37E0     		b	.L193
 3193              	.L196:
1422:.\mem1.c      ****                 case 0x01: PWM_2_Stop(); break;
 3194              		.loc 1 1422 0
 3195 0058 FFF7FEFF 		bl	PWM_2_Stop
 3196 005c 34E0     		b	.L193
 3197              	.L199:
1423:.\mem1.c      ****                 case 0x0C: PWM_2_WritePeriod(val); break;
 3198              		.loc 1 1423 0
 3199 005e BB88     		ldrh	r3, [r7, #4]
 3200 0060 1846     		mov	r0, r3
 3201 0062 FFF7FEFF 		bl	PWM_2_WritePeriod
 3202 0066 2FE0     		b	.L193
 3203              	.L200:
1424:.\mem1.c      ****                 case 0x0D: *result = PWM_2_ReadPeriod(); return_flag = 1; break;
 3204              		.loc 1 1424 0
 3205 0068 FFF7FEFF 		bl	PWM_2_ReadPeriod
 3206 006c 0346     		mov	r3, r0
 3207 006e 1A46     		mov	r2, r3
 3208 0070 3B68     		ldr	r3, [r7]
 3209 0072 1A60     		str	r2, [r3]
 3210 0074 0123     		movs	r3, #1
 3211 0076 FB73     		strb	r3, [r7, #15]
 3212 0078 26E0     		b	.L193
 3213              	.L194:
1425:.\mem1.c      ****                 case 0x0E: PWM_2_WriteCompare(val); break;
 3214              		.loc 1 1425 0
 3215 007a BB88     		ldrh	r3, [r7, #4]
 3216 007c 1846     		mov	r0, r3
 3217 007e FFF7FEFF 		bl	PWM_2_WriteCompare
 3218 0082 21E0     		b	.L193
 3219              	.L203:
1426:.\mem1.c      ****                 case 0x0F: *result  = PWM_2_ReadCompare(); return_flag = 1; break;
 3220              		.loc 1 1426 0
 3221 0084 FFF7FEFF 		bl	PWM_2_ReadCompare
 3222 0088 0346     		mov	r3, r0
 3223 008a 1A46     		mov	r2, r3
 3224 008c 3B68     		ldr	r3, [r7]
 3225 008e 1A60     		str	r2, [r3]
 3226 0090 0123     		movs	r3, #1
ARM GAS  C:\Users\Robert\AppData\Local\Temp\cc7rr7YM.s 			page 83


 3227 0092 FB73     		strb	r3, [r7, #15]
 3228 0094 18E0     		b	.L193
 3229              	.L204:
1427:.\mem1.c      ****                 case 0x18: PWM_2_ClearFIFO(); break; 
 3230              		.loc 1 1427 0
 3231 0096 FFF7FEFF 		bl	PWM_2_ClearFIFO
 3232 009a 15E0     		b	.L193
 3233              	.L201:
1428:.\mem1.c      ****                 case 0x19: PWM_2_Sleep(); break; 
 3234              		.loc 1 1428 0
 3235 009c FFF7FEFF 		bl	PWM_2_Sleep
 3236 00a0 12E0     		b	.L193
 3237              	.L205:
1429:.\mem1.c      ****                 case 0x1A: PWM_2_Wakeup(); break; 
 3238              		.loc 1 1429 0
 3239 00a2 FFF7FEFF 		bl	PWM_2_Wakeup
 3240 00a6 0FE0     		b	.L193
 3241              	.L206:
1430:.\mem1.c      ****                 case 0xFF: PWM_CLK_1_SetDividerValue(val); *result = PWM_CLK_1_GetDividerRegister()
 3242              		.loc 1 1430 0
 3243 00a8 BB88     		ldrh	r3, [r7, #4]	@ movhi
 3244 00aa 013B     		subs	r3, r3, #1
 3245 00ac 9BB2     		uxth	r3, r3
 3246 00ae 1846     		mov	r0, r3
 3247 00b0 0121     		movs	r1, #1
 3248 00b2 FFF7FEFF 		bl	PWM_CLK_1_SetDividerRegister
 3249 00b6 FFF7FEFF 		bl	PWM_CLK_1_GetDividerRegister
 3250 00ba 0346     		mov	r3, r0
 3251 00bc 1A46     		mov	r2, r3
 3252 00be 3B68     		ldr	r3, [r7]
 3253 00c0 1A60     		str	r2, [r3]
 3254 00c2 0123     		movs	r3, #1
 3255 00c4 FB73     		strb	r3, [r7, #15]
 3256 00c6 00BF     		nop
 3257              	.L193:
1431:.\mem1.c      ****                 
1432:.\mem1.c      ****             }
1433:.\mem1.c      ****             
1434:.\mem1.c      ****             return return_flag;
 3258              		.loc 1 1434 0
 3259 00c8 FB7B     		ldrb	r3, [r7, #15]	@ zero_extendqisi2
1435:.\mem1.c      ****         }
 3260              		.loc 1 1435 0
 3261 00ca 1846     		mov	r0, r3
 3262 00cc 1037     		adds	r7, r7, #16
 3263              		.cfi_def_cfa_offset 8
 3264 00ce BD46     		mov	sp, r7
 3265              		.cfi_def_cfa_register 13
 3266              		@ sp needed
 3267 00d0 80BD     		pop	{r7, pc}
 3268              		.cfi_endproc
 3269              	.LFE63:
 3270              		.size	PWM_Control_1, .-PWM_Control_1
 3271 00d2 00BF     		.section	.text.PWM_Control_2,"ax",%progbits
 3272              		.align	2
 3273              		.global	PWM_Control_2
 3274              		.thumb
ARM GAS  C:\Users\Robert\AppData\Local\Temp\cc7rr7YM.s 			page 84


 3275              		.thumb_func
 3276              		.type	PWM_Control_2, %function
 3277              	PWM_Control_2:
 3278              	.LFB64:
1436:.\mem1.c      ****     #endif
1437:.\mem1.c      **** /****************************************************************************************//**
1438:.\mem1.c      **** *  @brief Contains usage scenarios of the third PWM component for use by a Master device. 
1439:.\mem1.c      **** *
1440:.\mem1.c      **** *  @param cmd: 8-bit number describing a desired usage of a function associated 
1441:.\mem1.c      **** *              with the third PWM component
1442:.\mem1.c      **** *  @param val: 16-bit number containing a value that is to be written to that 
1443:.\mem1.c      **** *              function, or modify the component's operation, if applicable.
1444:.\mem1.c      **** *
1445:.\mem1.c      **** *********************************************************************************************/
1446:.\mem1.c      ****      #ifdef CY_PWM_PWM_3_H
1447:.\mem1.c      ****         bool PWM_Control_2(uint8 cmd, uint16 val, uint32 *result)
1448:.\mem1.c      ****         {
 3279              		.loc 1 1448 0
 3280              		.cfi_startproc
 3281              		@ args = 0, pretend = 0, frame = 16
 3282              		@ frame_needed = 1, uses_anonymous_args = 0
 3283 0000 80B5     		push	{r7, lr}
 3284              		.cfi_def_cfa_offset 8
 3285              		.cfi_offset 7, -8
 3286              		.cfi_offset 14, -4
 3287 0002 84B0     		sub	sp, sp, #16
 3288              		.cfi_def_cfa_offset 24
 3289 0004 00AF     		add	r7, sp, #0
 3290              		.cfi_def_cfa_register 7
 3291 0006 0346     		mov	r3, r0
 3292 0008 3A60     		str	r2, [r7]
 3293 000a FB71     		strb	r3, [r7, #7]
 3294 000c 0B46     		mov	r3, r1	@ movhi
 3295 000e BB80     		strh	r3, [r7, #4]	@ movhi
1449:.\mem1.c      ****             bool return_flag = 0;
 3296              		.loc 1 1449 0
 3297 0010 0023     		movs	r3, #0
 3298 0012 FB73     		strb	r3, [r7, #15]
1450:.\mem1.c      ****             
1451:.\mem1.c      ****             switch(cmd)
 3299              		.loc 1 1451 0
 3300 0014 FB79     		ldrb	r3, [r7, #7]	@ zero_extendqisi2
 3301 0016 0E2B     		cmp	r3, #14
 3302 0018 2FD0     		beq	.L210
 3303 001a 0E2B     		cmp	r3, #14
 3304 001c 0BDC     		bgt	.L211
 3305 001e 012B     		cmp	r3, #1
 3306 0020 1AD0     		beq	.L212
 3307 0022 012B     		cmp	r3, #1
 3308 0024 02DC     		bgt	.L213
 3309 0026 002B     		cmp	r3, #0
 3310 0028 13D0     		beq	.L214
 3311 002a 4DE0     		b	.L209
 3312              	.L213:
 3313 002c 0C2B     		cmp	r3, #12
 3314 002e 16D0     		beq	.L215
 3315 0030 0D2B     		cmp	r3, #13
ARM GAS  C:\Users\Robert\AppData\Local\Temp\cc7rr7YM.s 			page 85


 3316 0032 19D0     		beq	.L216
 3317 0034 48E0     		b	.L209
 3318              	.L211:
 3319 0036 192B     		cmp	r3, #25
 3320 0038 30D0     		beq	.L217
 3321 003a 192B     		cmp	r3, #25
 3322 003c 04DC     		bgt	.L218
 3323 003e 0F2B     		cmp	r3, #15
 3324 0040 20D0     		beq	.L219
 3325 0042 182B     		cmp	r3, #24
 3326 0044 27D0     		beq	.L220
 3327 0046 3FE0     		b	.L209
 3328              	.L218:
 3329 0048 1A2B     		cmp	r3, #26
 3330 004a 2AD0     		beq	.L221
 3331 004c FF2B     		cmp	r3, #255
 3332 004e 2BD0     		beq	.L222
 3333 0050 3AE0     		b	.L209
 3334              	.L214:
1452:.\mem1.c      ****             {
1453:.\mem1.c      ****                 case 0x00: PWM_3_Start(); break;
 3335              		.loc 1 1453 0
 3336 0052 FFF7FEFF 		bl	PWM_3_Start
 3337 0056 37E0     		b	.L209
 3338              	.L212:
1454:.\mem1.c      ****                 case 0x01: PWM_3_Stop(); break;
 3339              		.loc 1 1454 0
 3340 0058 FFF7FEFF 		bl	PWM_3_Stop
 3341 005c 34E0     		b	.L209
 3342              	.L215:
1455:.\mem1.c      ****                 case 0x0C: PWM_3_WritePeriod(val); break;
 3343              		.loc 1 1455 0
 3344 005e BB88     		ldrh	r3, [r7, #4]
 3345 0060 1846     		mov	r0, r3
 3346 0062 FFF7FEFF 		bl	PWM_3_WritePeriod
 3347 0066 2FE0     		b	.L209
 3348              	.L216:
1456:.\mem1.c      ****                 case 0x0D: *result = PWM_3_ReadPeriod(); return_flag = 1; break;
 3349              		.loc 1 1456 0
 3350 0068 FFF7FEFF 		bl	PWM_3_ReadPeriod
 3351 006c 0346     		mov	r3, r0
 3352 006e 1A46     		mov	r2, r3
 3353 0070 3B68     		ldr	r3, [r7]
 3354 0072 1A60     		str	r2, [r3]
 3355 0074 0123     		movs	r3, #1
 3356 0076 FB73     		strb	r3, [r7, #15]
 3357 0078 26E0     		b	.L209
 3358              	.L210:
1457:.\mem1.c      ****                 case 0x0E: PWM_3_WriteCompare(val); break;
 3359              		.loc 1 1457 0
 3360 007a BB88     		ldrh	r3, [r7, #4]
 3361 007c 1846     		mov	r0, r3
 3362 007e FFF7FEFF 		bl	PWM_3_WriteCompare
 3363 0082 21E0     		b	.L209
 3364              	.L219:
1458:.\mem1.c      ****                 case 0x0F: *result  = PWM_3_ReadCompare(); return_flag = 1; break;
 3365              		.loc 1 1458 0
ARM GAS  C:\Users\Robert\AppData\Local\Temp\cc7rr7YM.s 			page 86


 3366 0084 FFF7FEFF 		bl	PWM_3_ReadCompare
 3367 0088 0346     		mov	r3, r0
 3368 008a 1A46     		mov	r2, r3
 3369 008c 3B68     		ldr	r3, [r7]
 3370 008e 1A60     		str	r2, [r3]
 3371 0090 0123     		movs	r3, #1
 3372 0092 FB73     		strb	r3, [r7, #15]
 3373 0094 18E0     		b	.L209
 3374              	.L220:
1459:.\mem1.c      ****                 case 0x18: PWM_3_ClearFIFO(); break; 
 3375              		.loc 1 1459 0
 3376 0096 FFF7FEFF 		bl	PWM_3_ClearFIFO
 3377 009a 15E0     		b	.L209
 3378              	.L217:
1460:.\mem1.c      ****                 case 0x19: PWM_3_Sleep(); break; 
 3379              		.loc 1 1460 0
 3380 009c FFF7FEFF 		bl	PWM_3_Sleep
 3381 00a0 12E0     		b	.L209
 3382              	.L221:
1461:.\mem1.c      ****                 case 0x1A: PWM_3_Wakeup(); break; 
 3383              		.loc 1 1461 0
 3384 00a2 FFF7FEFF 		bl	PWM_3_Wakeup
 3385 00a6 0FE0     		b	.L209
 3386              	.L222:
1462:.\mem1.c      ****                 case 0xFF: PWM_CLK_2_SetDividerValue(val); *result = PWM_CLK_2_GetDividerRegister()
 3387              		.loc 1 1462 0
 3388 00a8 BB88     		ldrh	r3, [r7, #4]	@ movhi
 3389 00aa 013B     		subs	r3, r3, #1
 3390 00ac 9BB2     		uxth	r3, r3
 3391 00ae 1846     		mov	r0, r3
 3392 00b0 0121     		movs	r1, #1
 3393 00b2 FFF7FEFF 		bl	PWM_CLK_2_SetDividerRegister
 3394 00b6 FFF7FEFF 		bl	PWM_CLK_2_GetDividerRegister
 3395 00ba 0346     		mov	r3, r0
 3396 00bc 1A46     		mov	r2, r3
 3397 00be 3B68     		ldr	r3, [r7]
 3398 00c0 1A60     		str	r2, [r3]
 3399 00c2 0123     		movs	r3, #1
 3400 00c4 FB73     		strb	r3, [r7, #15]
 3401 00c6 00BF     		nop
 3402              	.L209:
1463:.\mem1.c      ****                 
1464:.\mem1.c      ****             }
1465:.\mem1.c      ****             
1466:.\mem1.c      ****             return return_flag;
 3403              		.loc 1 1466 0
 3404 00c8 FB7B     		ldrb	r3, [r7, #15]	@ zero_extendqisi2
1467:.\mem1.c      ****         }
 3405              		.loc 1 1467 0
 3406 00ca 1846     		mov	r0, r3
 3407 00cc 1037     		adds	r7, r7, #16
 3408              		.cfi_def_cfa_offset 8
 3409 00ce BD46     		mov	sp, r7
 3410              		.cfi_def_cfa_register 13
 3411              		@ sp needed
 3412 00d0 80BD     		pop	{r7, pc}
 3413              		.cfi_endproc
ARM GAS  C:\Users\Robert\AppData\Local\Temp\cc7rr7YM.s 			page 87


 3414              	.LFE64:
 3415              		.size	PWM_Control_2, .-PWM_Control_2
 3416 00d2 00BF     		.section	.text.PWM_Control_3,"ax",%progbits
 3417              		.align	2
 3418              		.global	PWM_Control_3
 3419              		.thumb
 3420              		.thumb_func
 3421              		.type	PWM_Control_3, %function
 3422              	PWM_Control_3:
 3423              	.LFB65:
1468:.\mem1.c      ****     #endif
1469:.\mem1.c      **** /****************************************************************************************//**
1470:.\mem1.c      **** *  @brief Contains usage scenarios of the fourth PWM component for use by a Master device. 
1471:.\mem1.c      **** *
1472:.\mem1.c      **** *  @param cmd: 8-bit number describing a desired usage of a function associated 
1473:.\mem1.c      **** *              with the fourth PWM component
1474:.\mem1.c      **** *  @param val: 16-bit number containing a value that is to be written to that 
1475:.\mem1.c      **** *              function, or modify the component's operation, if applicable.
1476:.\mem1.c      **** *
1477:.\mem1.c      **** *********************************************************************************************/
1478:.\mem1.c      ****      #ifdef CY_PWM_PWM_4_H
1479:.\mem1.c      ****         bool PWM_Control_3(uint8 cmd, uint16 val, uint32 *result)
1480:.\mem1.c      ****         {
 3424              		.loc 1 1480 0
 3425              		.cfi_startproc
 3426              		@ args = 0, pretend = 0, frame = 16
 3427              		@ frame_needed = 1, uses_anonymous_args = 0
 3428 0000 80B5     		push	{r7, lr}
 3429              		.cfi_def_cfa_offset 8
 3430              		.cfi_offset 7, -8
 3431              		.cfi_offset 14, -4
 3432 0002 84B0     		sub	sp, sp, #16
 3433              		.cfi_def_cfa_offset 24
 3434 0004 00AF     		add	r7, sp, #0
 3435              		.cfi_def_cfa_register 7
 3436 0006 0346     		mov	r3, r0
 3437 0008 3A60     		str	r2, [r7]
 3438 000a FB71     		strb	r3, [r7, #7]
 3439 000c 0B46     		mov	r3, r1	@ movhi
 3440 000e BB80     		strh	r3, [r7, #4]	@ movhi
1481:.\mem1.c      ****             bool return_flag = 0;
 3441              		.loc 1 1481 0
 3442 0010 0023     		movs	r3, #0
 3443 0012 FB73     		strb	r3, [r7, #15]
1482:.\mem1.c      ****             
1483:.\mem1.c      ****             switch(cmd)
 3444              		.loc 1 1483 0
 3445 0014 FB79     		ldrb	r3, [r7, #7]	@ zero_extendqisi2
 3446 0016 0E2B     		cmp	r3, #14
 3447 0018 2FD0     		beq	.L226
 3448 001a 0E2B     		cmp	r3, #14
 3449 001c 0BDC     		bgt	.L227
 3450 001e 012B     		cmp	r3, #1
 3451 0020 1AD0     		beq	.L228
 3452 0022 012B     		cmp	r3, #1
 3453 0024 02DC     		bgt	.L229
 3454 0026 002B     		cmp	r3, #0
ARM GAS  C:\Users\Robert\AppData\Local\Temp\cc7rr7YM.s 			page 88


 3455 0028 13D0     		beq	.L230
 3456 002a 4DE0     		b	.L225
 3457              	.L229:
 3458 002c 0C2B     		cmp	r3, #12
 3459 002e 16D0     		beq	.L231
 3460 0030 0D2B     		cmp	r3, #13
 3461 0032 19D0     		beq	.L232
 3462 0034 48E0     		b	.L225
 3463              	.L227:
 3464 0036 192B     		cmp	r3, #25
 3465 0038 30D0     		beq	.L233
 3466 003a 192B     		cmp	r3, #25
 3467 003c 04DC     		bgt	.L234
 3468 003e 0F2B     		cmp	r3, #15
 3469 0040 20D0     		beq	.L235
 3470 0042 182B     		cmp	r3, #24
 3471 0044 27D0     		beq	.L236
 3472 0046 3FE0     		b	.L225
 3473              	.L234:
 3474 0048 1A2B     		cmp	r3, #26
 3475 004a 2AD0     		beq	.L237
 3476 004c FF2B     		cmp	r3, #255
 3477 004e 2BD0     		beq	.L238
 3478 0050 3AE0     		b	.L225
 3479              	.L230:
1484:.\mem1.c      ****             {
1485:.\mem1.c      ****                 case 0x00: PWM_4_Start(); break;
 3480              		.loc 1 1485 0
 3481 0052 FFF7FEFF 		bl	PWM_4_Start
 3482 0056 37E0     		b	.L225
 3483              	.L228:
1486:.\mem1.c      ****                 case 0x01: PWM_4_Stop(); break;
 3484              		.loc 1 1486 0
 3485 0058 FFF7FEFF 		bl	PWM_4_Stop
 3486 005c 34E0     		b	.L225
 3487              	.L231:
1487:.\mem1.c      ****                 case 0x0C: PWM_4_WritePeriod(val); break;
 3488              		.loc 1 1487 0
 3489 005e BB88     		ldrh	r3, [r7, #4]
 3490 0060 1846     		mov	r0, r3
 3491 0062 FFF7FEFF 		bl	PWM_4_WritePeriod
 3492 0066 2FE0     		b	.L225
 3493              	.L232:
1488:.\mem1.c      ****                 case 0x0D: *result = PWM_4_ReadPeriod(); return_flag = 1; break;
 3494              		.loc 1 1488 0
 3495 0068 FFF7FEFF 		bl	PWM_4_ReadPeriod
 3496 006c 0346     		mov	r3, r0
 3497 006e 1A46     		mov	r2, r3
 3498 0070 3B68     		ldr	r3, [r7]
 3499 0072 1A60     		str	r2, [r3]
 3500 0074 0123     		movs	r3, #1
 3501 0076 FB73     		strb	r3, [r7, #15]
 3502 0078 26E0     		b	.L225
 3503              	.L226:
1489:.\mem1.c      ****                 case 0x0E: PWM_4_WriteCompare(val); break;
 3504              		.loc 1 1489 0
 3505 007a BB88     		ldrh	r3, [r7, #4]
ARM GAS  C:\Users\Robert\AppData\Local\Temp\cc7rr7YM.s 			page 89


 3506 007c 1846     		mov	r0, r3
 3507 007e FFF7FEFF 		bl	PWM_4_WriteCompare
 3508 0082 21E0     		b	.L225
 3509              	.L235:
1490:.\mem1.c      ****                 case 0x0F: *result  = PWM_4_ReadCompare(); return_flag = 1; break;
 3510              		.loc 1 1490 0
 3511 0084 FFF7FEFF 		bl	PWM_4_ReadCompare
 3512 0088 0346     		mov	r3, r0
 3513 008a 1A46     		mov	r2, r3
 3514 008c 3B68     		ldr	r3, [r7]
 3515 008e 1A60     		str	r2, [r3]
 3516 0090 0123     		movs	r3, #1
 3517 0092 FB73     		strb	r3, [r7, #15]
 3518 0094 18E0     		b	.L225
 3519              	.L236:
1491:.\mem1.c      ****                 case 0x18: PWM_4_ClearFIFO(); break; 
 3520              		.loc 1 1491 0
 3521 0096 FFF7FEFF 		bl	PWM_4_ClearFIFO
 3522 009a 15E0     		b	.L225
 3523              	.L233:
1492:.\mem1.c      ****                 case 0x19: PWM_4_Sleep(); break; 
 3524              		.loc 1 1492 0
 3525 009c FFF7FEFF 		bl	PWM_4_Sleep
 3526 00a0 12E0     		b	.L225
 3527              	.L237:
1493:.\mem1.c      ****                 case 0x1A: PWM_4_Wakeup(); break; 
 3528              		.loc 1 1493 0
 3529 00a2 FFF7FEFF 		bl	PWM_4_Wakeup
 3530 00a6 0FE0     		b	.L225
 3531              	.L238:
1494:.\mem1.c      ****                 case 0xFF: PWM_CLK_2_SetDividerValue(val); *result = PWM_CLK_2_GetDividerRegister()
 3532              		.loc 1 1494 0
 3533 00a8 BB88     		ldrh	r3, [r7, #4]	@ movhi
 3534 00aa 013B     		subs	r3, r3, #1
 3535 00ac 9BB2     		uxth	r3, r3
 3536 00ae 1846     		mov	r0, r3
 3537 00b0 0121     		movs	r1, #1
 3538 00b2 FFF7FEFF 		bl	PWM_CLK_2_SetDividerRegister
 3539 00b6 FFF7FEFF 		bl	PWM_CLK_2_GetDividerRegister
 3540 00ba 0346     		mov	r3, r0
 3541 00bc 1A46     		mov	r2, r3
 3542 00be 3B68     		ldr	r3, [r7]
 3543 00c0 1A60     		str	r2, [r3]
 3544 00c2 0123     		movs	r3, #1
 3545 00c4 FB73     		strb	r3, [r7, #15]
 3546 00c6 00BF     		nop
 3547              	.L225:
1495:.\mem1.c      ****                 
1496:.\mem1.c      ****             }
1497:.\mem1.c      ****             
1498:.\mem1.c      ****             return return_flag;
 3548              		.loc 1 1498 0
 3549 00c8 FB7B     		ldrb	r3, [r7, #15]	@ zero_extendqisi2
1499:.\mem1.c      ****         }
 3550              		.loc 1 1499 0
 3551 00ca 1846     		mov	r0, r3
 3552 00cc 1037     		adds	r7, r7, #16
ARM GAS  C:\Users\Robert\AppData\Local\Temp\cc7rr7YM.s 			page 90


 3553              		.cfi_def_cfa_offset 8
 3554 00ce BD46     		mov	sp, r7
 3555              		.cfi_def_cfa_register 13
 3556              		@ sp needed
 3557 00d0 80BD     		pop	{r7, pc}
 3558              		.cfi_endproc
 3559              	.LFE65:
 3560              		.size	PWM_Control_3, .-PWM_Control_3
 3561 00d2 00BF     		.section	.text.PWM_Control_4,"ax",%progbits
 3562              		.align	2
 3563              		.global	PWM_Control_4
 3564              		.thumb
 3565              		.thumb_func
 3566              		.type	PWM_Control_4, %function
 3567              	PWM_Control_4:
 3568              	.LFB66:
1500:.\mem1.c      ****     #endif
1501:.\mem1.c      ****     
1502:.\mem1.c      **** /****************************************************************************************//**
1503:.\mem1.c      **** *  @brief Contains usage scenarios of the fifth PWM component for use by a Master device. 
1504:.\mem1.c      **** *
1505:.\mem1.c      **** *  @param cmd: 8-bit number describing a desired usage of a function associated 
1506:.\mem1.c      **** *              with the fifth PWM component
1507:.\mem1.c      **** *  @param val: 16-bit number containing a value that is to be written to that 
1508:.\mem1.c      **** *              function, or modify the component's operation, if applicable.
1509:.\mem1.c      **** *
1510:.\mem1.c      **** *********************************************************************************************/
1511:.\mem1.c      ****     
1512:.\mem1.c      ****      #ifdef CY_PWM_PWM_5_H
1513:.\mem1.c      ****         bool PWM_Control_4(uint8 cmd, uint16 val, uint32 *result)
1514:.\mem1.c      ****         {
 3569              		.loc 1 1514 0
 3570              		.cfi_startproc
 3571              		@ args = 0, pretend = 0, frame = 16
 3572              		@ frame_needed = 1, uses_anonymous_args = 0
 3573 0000 80B5     		push	{r7, lr}
 3574              		.cfi_def_cfa_offset 8
 3575              		.cfi_offset 7, -8
 3576              		.cfi_offset 14, -4
 3577 0002 84B0     		sub	sp, sp, #16
 3578              		.cfi_def_cfa_offset 24
 3579 0004 00AF     		add	r7, sp, #0
 3580              		.cfi_def_cfa_register 7
 3581 0006 0346     		mov	r3, r0
 3582 0008 3A60     		str	r2, [r7]
 3583 000a FB71     		strb	r3, [r7, #7]
 3584 000c 0B46     		mov	r3, r1	@ movhi
 3585 000e BB80     		strh	r3, [r7, #4]	@ movhi
1515:.\mem1.c      ****             bool return_flag = 0;
 3586              		.loc 1 1515 0
 3587 0010 0023     		movs	r3, #0
 3588 0012 FB73     		strb	r3, [r7, #15]
1516:.\mem1.c      ****             
1517:.\mem1.c      ****             switch(cmd)
 3589              		.loc 1 1517 0
 3590 0014 FB79     		ldrb	r3, [r7, #7]	@ zero_extendqisi2
 3591 0016 0E2B     		cmp	r3, #14
ARM GAS  C:\Users\Robert\AppData\Local\Temp\cc7rr7YM.s 			page 91


 3592 0018 2FD0     		beq	.L242
 3593 001a 0E2B     		cmp	r3, #14
 3594 001c 0BDC     		bgt	.L243
 3595 001e 012B     		cmp	r3, #1
 3596 0020 1AD0     		beq	.L244
 3597 0022 012B     		cmp	r3, #1
 3598 0024 02DC     		bgt	.L245
 3599 0026 002B     		cmp	r3, #0
 3600 0028 13D0     		beq	.L246
 3601 002a 4DE0     		b	.L241
 3602              	.L245:
 3603 002c 0C2B     		cmp	r3, #12
 3604 002e 16D0     		beq	.L247
 3605 0030 0D2B     		cmp	r3, #13
 3606 0032 19D0     		beq	.L248
 3607 0034 48E0     		b	.L241
 3608              	.L243:
 3609 0036 192B     		cmp	r3, #25
 3610 0038 30D0     		beq	.L249
 3611 003a 192B     		cmp	r3, #25
 3612 003c 04DC     		bgt	.L250
 3613 003e 0F2B     		cmp	r3, #15
 3614 0040 20D0     		beq	.L251
 3615 0042 182B     		cmp	r3, #24
 3616 0044 27D0     		beq	.L252
 3617 0046 3FE0     		b	.L241
 3618              	.L250:
 3619 0048 1A2B     		cmp	r3, #26
 3620 004a 2AD0     		beq	.L253
 3621 004c FF2B     		cmp	r3, #255
 3622 004e 2BD0     		beq	.L254
 3623 0050 3AE0     		b	.L241
 3624              	.L246:
1518:.\mem1.c      ****             {
1519:.\mem1.c      ****                 case 0x00: PWM_5_Start(); break;
 3625              		.loc 1 1519 0
 3626 0052 FFF7FEFF 		bl	PWM_5_Start
 3627 0056 37E0     		b	.L241
 3628              	.L244:
1520:.\mem1.c      ****                 case 0x01: PWM_5_Stop(); break;
 3629              		.loc 1 1520 0
 3630 0058 FFF7FEFF 		bl	PWM_5_Stop
 3631 005c 34E0     		b	.L241
 3632              	.L247:
1521:.\mem1.c      ****                 case 0x0C: PWM_5_WritePeriod(val); break;
 3633              		.loc 1 1521 0
 3634 005e BB88     		ldrh	r3, [r7, #4]
 3635 0060 1846     		mov	r0, r3
 3636 0062 FFF7FEFF 		bl	PWM_5_WritePeriod
 3637 0066 2FE0     		b	.L241
 3638              	.L248:
1522:.\mem1.c      ****                 case 0x0D: *result = PWM_5_ReadPeriod(); return_flag = 1; break;
 3639              		.loc 1 1522 0
 3640 0068 FFF7FEFF 		bl	PWM_5_ReadPeriod
 3641 006c 0346     		mov	r3, r0
 3642 006e 1A46     		mov	r2, r3
 3643 0070 3B68     		ldr	r3, [r7]
ARM GAS  C:\Users\Robert\AppData\Local\Temp\cc7rr7YM.s 			page 92


 3644 0072 1A60     		str	r2, [r3]
 3645 0074 0123     		movs	r3, #1
 3646 0076 FB73     		strb	r3, [r7, #15]
 3647 0078 26E0     		b	.L241
 3648              	.L242:
1523:.\mem1.c      ****                 case 0x0E: PWM_5_WriteCompare(val); break;
 3649              		.loc 1 1523 0
 3650 007a BB88     		ldrh	r3, [r7, #4]
 3651 007c 1846     		mov	r0, r3
 3652 007e FFF7FEFF 		bl	PWM_5_WriteCompare
 3653 0082 21E0     		b	.L241
 3654              	.L251:
1524:.\mem1.c      ****                 case 0x0F: *result  = PWM_5_ReadCompare(); return_flag = 1; break;
 3655              		.loc 1 1524 0
 3656 0084 FFF7FEFF 		bl	PWM_5_ReadCompare
 3657 0088 0346     		mov	r3, r0
 3658 008a 1A46     		mov	r2, r3
 3659 008c 3B68     		ldr	r3, [r7]
 3660 008e 1A60     		str	r2, [r3]
 3661 0090 0123     		movs	r3, #1
 3662 0092 FB73     		strb	r3, [r7, #15]
 3663 0094 18E0     		b	.L241
 3664              	.L252:
1525:.\mem1.c      ****                 case 0x18: PWM_5_ClearFIFO(); break; 
 3665              		.loc 1 1525 0
 3666 0096 FFF7FEFF 		bl	PWM_5_ClearFIFO
 3667 009a 15E0     		b	.L241
 3668              	.L249:
1526:.\mem1.c      ****                 case 0x19: PWM_5_Sleep(); break; 
 3669              		.loc 1 1526 0
 3670 009c FFF7FEFF 		bl	PWM_5_Sleep
 3671 00a0 12E0     		b	.L241
 3672              	.L253:
1527:.\mem1.c      ****                 case 0x1A: PWM_5_Wakeup(); break; 
 3673              		.loc 1 1527 0
 3674 00a2 FFF7FEFF 		bl	PWM_5_Wakeup
 3675 00a6 0FE0     		b	.L241
 3676              	.L254:
1528:.\mem1.c      ****                 case 0xFF: PWM_CLK_3_SetDividerValue(val); *result = PWM_CLK_3_GetDividerRegister()
 3677              		.loc 1 1528 0
 3678 00a8 BB88     		ldrh	r3, [r7, #4]	@ movhi
 3679 00aa 013B     		subs	r3, r3, #1
 3680 00ac 9BB2     		uxth	r3, r3
 3681 00ae 1846     		mov	r0, r3
 3682 00b0 0121     		movs	r1, #1
 3683 00b2 FFF7FEFF 		bl	PWM_CLK_3_SetDividerRegister
 3684 00b6 FFF7FEFF 		bl	PWM_CLK_3_GetDividerRegister
 3685 00ba 0346     		mov	r3, r0
 3686 00bc 1A46     		mov	r2, r3
 3687 00be 3B68     		ldr	r3, [r7]
 3688 00c0 1A60     		str	r2, [r3]
 3689 00c2 0123     		movs	r3, #1
 3690 00c4 FB73     		strb	r3, [r7, #15]
 3691 00c6 00BF     		nop
 3692              	.L241:
1529:.\mem1.c      ****                 
1530:.\mem1.c      ****             }
ARM GAS  C:\Users\Robert\AppData\Local\Temp\cc7rr7YM.s 			page 93


1531:.\mem1.c      ****             
1532:.\mem1.c      ****             return return_flag;
 3693              		.loc 1 1532 0
 3694 00c8 FB7B     		ldrb	r3, [r7, #15]	@ zero_extendqisi2
1533:.\mem1.c      ****         }
 3695              		.loc 1 1533 0
 3696 00ca 1846     		mov	r0, r3
 3697 00cc 1037     		adds	r7, r7, #16
 3698              		.cfi_def_cfa_offset 8
 3699 00ce BD46     		mov	sp, r7
 3700              		.cfi_def_cfa_register 13
 3701              		@ sp needed
 3702 00d0 80BD     		pop	{r7, pc}
 3703              		.cfi_endproc
 3704              	.LFE66:
 3705              		.size	PWM_Control_4, .-PWM_Control_4
 3706 00d2 00BF     		.section	.text.PWM_Control_5,"ax",%progbits
 3707              		.align	2
 3708              		.global	PWM_Control_5
 3709              		.thumb
 3710              		.thumb_func
 3711              		.type	PWM_Control_5, %function
 3712              	PWM_Control_5:
 3713              	.LFB67:
1534:.\mem1.c      ****     #endif
1535:.\mem1.c      ****     
1536:.\mem1.c      **** /****************************************************************************************//**
1537:.\mem1.c      **** *  @brief Contains usage scenarios of the sixth PWM component for use by a Master device. 
1538:.\mem1.c      **** *
1539:.\mem1.c      **** *  @param cmd: 8-bit number describing a desired usage of a function associated 
1540:.\mem1.c      **** *              with the sixth PWM component
1541:.\mem1.c      **** *  @param val: 16-bit number containing a value that is to be written to that 
1542:.\mem1.c      **** *              function, or modify the component's operation, if applicable.
1543:.\mem1.c      **** *
1544:.\mem1.c      **** *********************************************************************************************/
1545:.\mem1.c      ****     
1546:.\mem1.c      ****      #ifdef CY_PWM_PWM_6_H
1547:.\mem1.c      ****         bool PWM_Control_5(uint8 cmd, uint16 val, uint32 *result)
1548:.\mem1.c      ****         {
 3714              		.loc 1 1548 0
 3715              		.cfi_startproc
 3716              		@ args = 0, pretend = 0, frame = 16
 3717              		@ frame_needed = 1, uses_anonymous_args = 0
 3718 0000 80B5     		push	{r7, lr}
 3719              		.cfi_def_cfa_offset 8
 3720              		.cfi_offset 7, -8
 3721              		.cfi_offset 14, -4
 3722 0002 84B0     		sub	sp, sp, #16
 3723              		.cfi_def_cfa_offset 24
 3724 0004 00AF     		add	r7, sp, #0
 3725              		.cfi_def_cfa_register 7
 3726 0006 0346     		mov	r3, r0
 3727 0008 3A60     		str	r2, [r7]
 3728 000a FB71     		strb	r3, [r7, #7]
 3729 000c 0B46     		mov	r3, r1	@ movhi
 3730 000e BB80     		strh	r3, [r7, #4]	@ movhi
1549:.\mem1.c      ****             bool return_flag = 0;
ARM GAS  C:\Users\Robert\AppData\Local\Temp\cc7rr7YM.s 			page 94


 3731              		.loc 1 1549 0
 3732 0010 0023     		movs	r3, #0
 3733 0012 FB73     		strb	r3, [r7, #15]
1550:.\mem1.c      ****             
1551:.\mem1.c      ****             switch(cmd)
 3734              		.loc 1 1551 0
 3735 0014 FB79     		ldrb	r3, [r7, #7]	@ zero_extendqisi2
 3736 0016 0E2B     		cmp	r3, #14
 3737 0018 2FD0     		beq	.L258
 3738 001a 0E2B     		cmp	r3, #14
 3739 001c 0BDC     		bgt	.L259
 3740 001e 012B     		cmp	r3, #1
 3741 0020 1AD0     		beq	.L260
 3742 0022 012B     		cmp	r3, #1
 3743 0024 02DC     		bgt	.L261
 3744 0026 002B     		cmp	r3, #0
 3745 0028 13D0     		beq	.L262
 3746 002a 4DE0     		b	.L257
 3747              	.L261:
 3748 002c 0C2B     		cmp	r3, #12
 3749 002e 16D0     		beq	.L263
 3750 0030 0D2B     		cmp	r3, #13
 3751 0032 19D0     		beq	.L264
 3752 0034 48E0     		b	.L257
 3753              	.L259:
 3754 0036 192B     		cmp	r3, #25
 3755 0038 30D0     		beq	.L265
 3756 003a 192B     		cmp	r3, #25
 3757 003c 04DC     		bgt	.L266
 3758 003e 0F2B     		cmp	r3, #15
 3759 0040 20D0     		beq	.L267
 3760 0042 182B     		cmp	r3, #24
 3761 0044 27D0     		beq	.L268
 3762 0046 3FE0     		b	.L257
 3763              	.L266:
 3764 0048 1A2B     		cmp	r3, #26
 3765 004a 2AD0     		beq	.L269
 3766 004c FF2B     		cmp	r3, #255
 3767 004e 2BD0     		beq	.L270
 3768 0050 3AE0     		b	.L257
 3769              	.L262:
1552:.\mem1.c      ****             {
1553:.\mem1.c      ****                 case 0x00: PWM_6_Start(); break;
 3770              		.loc 1 1553 0
 3771 0052 FFF7FEFF 		bl	PWM_6_Start
 3772 0056 37E0     		b	.L257
 3773              	.L260:
1554:.\mem1.c      ****                 case 0x01: PWM_6_Stop(); break;
 3774              		.loc 1 1554 0
 3775 0058 FFF7FEFF 		bl	PWM_6_Stop
 3776 005c 34E0     		b	.L257
 3777              	.L263:
1555:.\mem1.c      ****                 case 0x0C: PWM_6_WritePeriod(val); break;
 3778              		.loc 1 1555 0
 3779 005e BB88     		ldrh	r3, [r7, #4]
 3780 0060 1846     		mov	r0, r3
 3781 0062 FFF7FEFF 		bl	PWM_6_WritePeriod
ARM GAS  C:\Users\Robert\AppData\Local\Temp\cc7rr7YM.s 			page 95


 3782 0066 2FE0     		b	.L257
 3783              	.L264:
1556:.\mem1.c      ****                 case 0x0D: *result = PWM_6_ReadPeriod(); return_flag = 1; break;
 3784              		.loc 1 1556 0
 3785 0068 FFF7FEFF 		bl	PWM_6_ReadPeriod
 3786 006c 0346     		mov	r3, r0
 3787 006e 1A46     		mov	r2, r3
 3788 0070 3B68     		ldr	r3, [r7]
 3789 0072 1A60     		str	r2, [r3]
 3790 0074 0123     		movs	r3, #1
 3791 0076 FB73     		strb	r3, [r7, #15]
 3792 0078 26E0     		b	.L257
 3793              	.L258:
1557:.\mem1.c      ****                 case 0x0E: PWM_6_WriteCompare(val); break;
 3794              		.loc 1 1557 0
 3795 007a BB88     		ldrh	r3, [r7, #4]
 3796 007c 1846     		mov	r0, r3
 3797 007e FFF7FEFF 		bl	PWM_6_WriteCompare
 3798 0082 21E0     		b	.L257
 3799              	.L267:
1558:.\mem1.c      ****                 case 0x0F: *result  = PWM_6_ReadCompare(); return_flag = 1; break;
 3800              		.loc 1 1558 0
 3801 0084 FFF7FEFF 		bl	PWM_6_ReadCompare
 3802 0088 0346     		mov	r3, r0
 3803 008a 1A46     		mov	r2, r3
 3804 008c 3B68     		ldr	r3, [r7]
 3805 008e 1A60     		str	r2, [r3]
 3806 0090 0123     		movs	r3, #1
 3807 0092 FB73     		strb	r3, [r7, #15]
 3808 0094 18E0     		b	.L257
 3809              	.L268:
1559:.\mem1.c      ****                 case 0x18: PWM_6_ClearFIFO(); break; 
 3810              		.loc 1 1559 0
 3811 0096 FFF7FEFF 		bl	PWM_6_ClearFIFO
 3812 009a 15E0     		b	.L257
 3813              	.L265:
1560:.\mem1.c      ****                 case 0x19: PWM_6_Sleep(); break; 
 3814              		.loc 1 1560 0
 3815 009c FFF7FEFF 		bl	PWM_6_Sleep
 3816 00a0 12E0     		b	.L257
 3817              	.L269:
1561:.\mem1.c      ****                 case 0x1A: PWM_6_Wakeup(); break; 
 3818              		.loc 1 1561 0
 3819 00a2 FFF7FEFF 		bl	PWM_6_Wakeup
 3820 00a6 0FE0     		b	.L257
 3821              	.L270:
1562:.\mem1.c      ****                 case 0xFF: PWM_CLK_3_SetDividerValue(val); *result = PWM_CLK_3_GetDividerRegister()
 3822              		.loc 1 1562 0
 3823 00a8 BB88     		ldrh	r3, [r7, #4]	@ movhi
 3824 00aa 013B     		subs	r3, r3, #1
 3825 00ac 9BB2     		uxth	r3, r3
 3826 00ae 1846     		mov	r0, r3
 3827 00b0 0121     		movs	r1, #1
 3828 00b2 FFF7FEFF 		bl	PWM_CLK_3_SetDividerRegister
 3829 00b6 FFF7FEFF 		bl	PWM_CLK_3_GetDividerRegister
 3830 00ba 0346     		mov	r3, r0
 3831 00bc 1A46     		mov	r2, r3
ARM GAS  C:\Users\Robert\AppData\Local\Temp\cc7rr7YM.s 			page 96


 3832 00be 3B68     		ldr	r3, [r7]
 3833 00c0 1A60     		str	r2, [r3]
 3834 00c2 0123     		movs	r3, #1
 3835 00c4 FB73     		strb	r3, [r7, #15]
 3836 00c6 00BF     		nop
 3837              	.L257:
1563:.\mem1.c      ****             }
1564:.\mem1.c      ****             
1565:.\mem1.c      ****             return return_flag;
 3838              		.loc 1 1565 0
 3839 00c8 FB7B     		ldrb	r3, [r7, #15]	@ zero_extendqisi2
1566:.\mem1.c      ****         }
 3840              		.loc 1 1566 0
 3841 00ca 1846     		mov	r0, r3
 3842 00cc 1037     		adds	r7, r7, #16
 3843              		.cfi_def_cfa_offset 8
 3844 00ce BD46     		mov	sp, r7
 3845              		.cfi_def_cfa_register 13
 3846              		@ sp needed
 3847 00d0 80BD     		pop	{r7, pc}
 3848              		.cfi_endproc
 3849              	.LFE67:
 3850              		.size	PWM_Control_5, .-PWM_Control_5
 3851 00d2 00BF     		.section	.text.PWM_Control_6,"ax",%progbits
 3852              		.align	2
 3853              		.global	PWM_Control_6
 3854              		.thumb
 3855              		.thumb_func
 3856              		.type	PWM_Control_6, %function
 3857              	PWM_Control_6:
 3858              	.LFB68:
1567:.\mem1.c      ****         
1568:.\mem1.c      ****     #endif
1569:.\mem1.c      ****  /****************************************************************************************//**
1570:.\mem1.c      **** *  @brief Contains usage scenarios of the seventh PWM component for use by a Master device. 
1571:.\mem1.c      **** *
1572:.\mem1.c      **** *  @param cmd: 8-bit number describing a desired usage of a function associated 
1573:.\mem1.c      **** *              with the seventh PWM component
1574:.\mem1.c      **** *  @param val: 16-bit number containing a value that is to be written to that 
1575:.\mem1.c      **** *              function, or modify the component's operation, if applicable.
1576:.\mem1.c      **** *
1577:.\mem1.c      **** *********************************************************************************************/
1578:.\mem1.c      ****     
1579:.\mem1.c      ****      #ifdef CY_PWM_PWM_7_H
1580:.\mem1.c      ****         bool PWM_Control_6(uint8 cmd, uint16 val, uint32 *result)
1581:.\mem1.c      ****         {
 3859              		.loc 1 1581 0
 3860              		.cfi_startproc
 3861              		@ args = 0, pretend = 0, frame = 16
 3862              		@ frame_needed = 1, uses_anonymous_args = 0
 3863 0000 80B5     		push	{r7, lr}
 3864              		.cfi_def_cfa_offset 8
 3865              		.cfi_offset 7, -8
 3866              		.cfi_offset 14, -4
 3867 0002 84B0     		sub	sp, sp, #16
 3868              		.cfi_def_cfa_offset 24
 3869 0004 00AF     		add	r7, sp, #0
ARM GAS  C:\Users\Robert\AppData\Local\Temp\cc7rr7YM.s 			page 97


 3870              		.cfi_def_cfa_register 7
 3871 0006 0346     		mov	r3, r0
 3872 0008 3A60     		str	r2, [r7]
 3873 000a FB71     		strb	r3, [r7, #7]
 3874 000c 0B46     		mov	r3, r1	@ movhi
 3875 000e BB80     		strh	r3, [r7, #4]	@ movhi
1582:.\mem1.c      ****             bool return_flag = 0;
 3876              		.loc 1 1582 0
 3877 0010 0023     		movs	r3, #0
 3878 0012 FB73     		strb	r3, [r7, #15]
1583:.\mem1.c      ****             
1584:.\mem1.c      ****             switch(cmd)
 3879              		.loc 1 1584 0
 3880 0014 FB79     		ldrb	r3, [r7, #7]	@ zero_extendqisi2
 3881 0016 0E2B     		cmp	r3, #14
 3882 0018 2FD0     		beq	.L274
 3883 001a 0E2B     		cmp	r3, #14
 3884 001c 0BDC     		bgt	.L275
 3885 001e 012B     		cmp	r3, #1
 3886 0020 1AD0     		beq	.L276
 3887 0022 012B     		cmp	r3, #1
 3888 0024 02DC     		bgt	.L277
 3889 0026 002B     		cmp	r3, #0
 3890 0028 13D0     		beq	.L278
 3891 002a 4DE0     		b	.L273
 3892              	.L277:
 3893 002c 0C2B     		cmp	r3, #12
 3894 002e 16D0     		beq	.L279
 3895 0030 0D2B     		cmp	r3, #13
 3896 0032 19D0     		beq	.L280
 3897 0034 48E0     		b	.L273
 3898              	.L275:
 3899 0036 192B     		cmp	r3, #25
 3900 0038 30D0     		beq	.L281
 3901 003a 192B     		cmp	r3, #25
 3902 003c 04DC     		bgt	.L282
 3903 003e 0F2B     		cmp	r3, #15
 3904 0040 20D0     		beq	.L283
 3905 0042 182B     		cmp	r3, #24
 3906 0044 27D0     		beq	.L284
 3907 0046 3FE0     		b	.L273
 3908              	.L282:
 3909 0048 1A2B     		cmp	r3, #26
 3910 004a 2AD0     		beq	.L285
 3911 004c FF2B     		cmp	r3, #255
 3912 004e 2BD0     		beq	.L286
 3913 0050 3AE0     		b	.L273
 3914              	.L278:
1585:.\mem1.c      ****             {
1586:.\mem1.c      ****                 case 0x00: PWM_7_Start(); break;
 3915              		.loc 1 1586 0
 3916 0052 FFF7FEFF 		bl	PWM_7_Start
 3917 0056 37E0     		b	.L273
 3918              	.L276:
1587:.\mem1.c      ****                 case 0x01: PWM_7_Stop(); break;
 3919              		.loc 1 1587 0
 3920 0058 FFF7FEFF 		bl	PWM_7_Stop
ARM GAS  C:\Users\Robert\AppData\Local\Temp\cc7rr7YM.s 			page 98


 3921 005c 34E0     		b	.L273
 3922              	.L279:
1588:.\mem1.c      ****                 case 0x0C: PWM_7_WritePeriod(val); break;
 3923              		.loc 1 1588 0
 3924 005e BB88     		ldrh	r3, [r7, #4]
 3925 0060 1846     		mov	r0, r3
 3926 0062 FFF7FEFF 		bl	PWM_7_WritePeriod
 3927 0066 2FE0     		b	.L273
 3928              	.L280:
1589:.\mem1.c      ****                 case 0x0D: *result = PWM_7_ReadPeriod(); return_flag = 1; break;
 3929              		.loc 1 1589 0
 3930 0068 FFF7FEFF 		bl	PWM_7_ReadPeriod
 3931 006c 0346     		mov	r3, r0
 3932 006e 1A46     		mov	r2, r3
 3933 0070 3B68     		ldr	r3, [r7]
 3934 0072 1A60     		str	r2, [r3]
 3935 0074 0123     		movs	r3, #1
 3936 0076 FB73     		strb	r3, [r7, #15]
 3937 0078 26E0     		b	.L273
 3938              	.L274:
1590:.\mem1.c      ****                 case 0x0E: PWM_7_WriteCompare(val); break;
 3939              		.loc 1 1590 0
 3940 007a BB88     		ldrh	r3, [r7, #4]
 3941 007c 1846     		mov	r0, r3
 3942 007e FFF7FEFF 		bl	PWM_7_WriteCompare
 3943 0082 21E0     		b	.L273
 3944              	.L283:
1591:.\mem1.c      ****                 case 0x0F: *result  = PWM_7_ReadCompare(); return_flag = 1; break;
 3945              		.loc 1 1591 0
 3946 0084 FFF7FEFF 		bl	PWM_7_ReadCompare
 3947 0088 0346     		mov	r3, r0
 3948 008a 1A46     		mov	r2, r3
 3949 008c 3B68     		ldr	r3, [r7]
 3950 008e 1A60     		str	r2, [r3]
 3951 0090 0123     		movs	r3, #1
 3952 0092 FB73     		strb	r3, [r7, #15]
 3953 0094 18E0     		b	.L273
 3954              	.L284:
1592:.\mem1.c      ****                 case 0x18: PWM_7_ClearFIFO(); break; 
 3955              		.loc 1 1592 0
 3956 0096 FFF7FEFF 		bl	PWM_7_ClearFIFO
 3957 009a 15E0     		b	.L273
 3958              	.L281:
1593:.\mem1.c      ****                 case 0x19: PWM_7_Sleep(); break; 
 3959              		.loc 1 1593 0
 3960 009c FFF7FEFF 		bl	PWM_7_Sleep
 3961 00a0 12E0     		b	.L273
 3962              	.L285:
1594:.\mem1.c      ****                 case 0x1A: PWM_7_Wakeup(); break; 
 3963              		.loc 1 1594 0
 3964 00a2 FFF7FEFF 		bl	PWM_7_Wakeup
 3965 00a6 0FE0     		b	.L273
 3966              	.L286:
1595:.\mem1.c      ****                 case 0xFF: PWM_CLK_4_SetDividerValue(val); *result = PWM_CLK_4_GetDividerRegister()
 3967              		.loc 1 1595 0
 3968 00a8 BB88     		ldrh	r3, [r7, #4]	@ movhi
 3969 00aa 013B     		subs	r3, r3, #1
ARM GAS  C:\Users\Robert\AppData\Local\Temp\cc7rr7YM.s 			page 99


 3970 00ac 9BB2     		uxth	r3, r3
 3971 00ae 1846     		mov	r0, r3
 3972 00b0 0121     		movs	r1, #1
 3973 00b2 FFF7FEFF 		bl	PWM_CLK_4_SetDividerRegister
 3974 00b6 FFF7FEFF 		bl	PWM_CLK_4_GetDividerRegister
 3975 00ba 0346     		mov	r3, r0
 3976 00bc 1A46     		mov	r2, r3
 3977 00be 3B68     		ldr	r3, [r7]
 3978 00c0 1A60     		str	r2, [r3]
 3979 00c2 0123     		movs	r3, #1
 3980 00c4 FB73     		strb	r3, [r7, #15]
 3981 00c6 00BF     		nop
 3982              	.L273:
1596:.\mem1.c      ****             }
1597:.\mem1.c      ****             
1598:.\mem1.c      ****             return return_flag;
 3983              		.loc 1 1598 0
 3984 00c8 FB7B     		ldrb	r3, [r7, #15]	@ zero_extendqisi2
1599:.\mem1.c      ****         }
 3985              		.loc 1 1599 0
 3986 00ca 1846     		mov	r0, r3
 3987 00cc 1037     		adds	r7, r7, #16
 3988              		.cfi_def_cfa_offset 8
 3989 00ce BD46     		mov	sp, r7
 3990              		.cfi_def_cfa_register 13
 3991              		@ sp needed
 3992 00d0 80BD     		pop	{r7, pc}
 3993              		.cfi_endproc
 3994              	.LFE68:
 3995              		.size	PWM_Control_6, .-PWM_Control_6
 3996 00d2 00BF     		.section	.text.PWM_Control_7,"ax",%progbits
 3997              		.align	2
 3998              		.global	PWM_Control_7
 3999              		.thumb
 4000              		.thumb_func
 4001              		.type	PWM_Control_7, %function
 4002              	PWM_Control_7:
 4003              	.LFB69:
1600:.\mem1.c      ****     #endif
1601:.\mem1.c      **** /****************************************************************************************//**
