Archive member included because of file (symbol)

.\ARM_GCC_493\Debug\PSoC_2_Pi.a(cyfitter_cfg.o)
                              .\ARM_GCC_493\Debug\Cm3Start.o (cyfitter_cfg)
.\ARM_GCC_493\Debug\PSoC_2_Pi.a(PWM_CLK_1.o)
                              .\ARM_GCC_493\Debug\mem1.o (PWM_CLK_1_SetDividerRegister)
.\ARM_GCC_493\Debug\PSoC_2_Pi.a(PWM_1.o)
                              .\ARM_GCC_493\Debug\mem1.o (PWM_1_Start)
.\ARM_GCC_493\Debug\PSoC_2_Pi.a(PWM_1_PM.o)
                              .\ARM_GCC_493\Debug\mem1.o (PWM_1_Sleep)
.\ARM_GCC_493\Debug\PSoC_2_Pi.a(PWM_2.o)
                              .\ARM_GCC_493\Debug\mem1.o (PWM_2_Start)
.\ARM_GCC_493\Debug\PSoC_2_Pi.a(PWM_2_PM.o)
                              .\ARM_GCC_493\Debug\mem1.o (PWM_2_Sleep)
.\ARM_GCC_493\Debug\PSoC_2_Pi.a(IDAC8_1.o)
                              .\ARM_GCC_493\Debug\mem1.o (IDAC8_1_SetSpeed)
.\ARM_GCC_493\Debug\PSoC_2_Pi.a(IDAC8_1_PM.o)
                              .\ARM_GCC_493\Debug\mem1.o (IDAC8_1_Sleep)
.\ARM_GCC_493\Debug\PSoC_2_Pi.a(VDAC8_1.o)
                              .\ARM_GCC_493\Debug\mem1.o (VDAC8_1_SetRange)
.\ARM_GCC_493\Debug\PSoC_2_Pi.a(VDAC8_1_PM.o)
                              .\ARM_GCC_493\Debug\mem1.o (VDAC8_1_Sleep)
.\ARM_GCC_493\Debug\PSoC_2_Pi.a(CapSense_1.o)
                              .\ARM_GCC_493\Debug\mem1.o (CapSense_1_Start)
.\ARM_GCC_493\Debug\PSoC_2_Pi.a(CapSense_1_CSHL.o)
                              .\ARM_GCC_493\Debug\mem1.o (CapSense_1_InitializeAllBaselines)
.\ARM_GCC_493\Debug\PSoC_2_Pi.a(CapSense_1_INT.o)
                              .\ARM_GCC_493\Debug\PSoC_2_Pi.a(CapSense_1.o) (CapSense_1_IsrCH0_ISR)
.\ARM_GCC_493\Debug\PSoC_2_Pi.a(CapSense_1_PM.o)
                              .\ARM_GCC_493\Debug\mem1.o (CapSense_1_Sleep)
.\ARM_GCC_493\Debug\PSoC_2_Pi.a(PWM_7.o)
                              .\ARM_GCC_493\Debug\mem1.o (PWM_7_Start)
.\ARM_GCC_493\Debug\PSoC_2_Pi.a(PWM_7_PM.o)
                              .\ARM_GCC_493\Debug\mem1.o (PWM_7_Sleep)
.\ARM_GCC_493\Debug\PSoC_2_Pi.a(GPIO_5_2.o)
                              .\ARM_GCC_493\Debug\mem1.o (GPIO_5_2_Write)
.\ARM_GCC_493\Debug\PSoC_2_Pi.a(GPIO_5_3.o)
                              .\ARM_GCC_493\Debug\mem1.o (GPIO_5_3_Write)
.\ARM_GCC_493\Debug\PSoC_2_Pi.a(GPIO_5_4.o)
                              .\ARM_GCC_493\Debug\mem1.o (GPIO_5_4_Write)
.\ARM_GCC_493\Debug\PSoC_2_Pi.a(GPIO_5_5.o)
                              .\ARM_GCC_493\Debug\mem1.o (GPIO_5_5_Write)
.\ARM_GCC_493\Debug\PSoC_2_Pi.a(GPIO_5_1.o)
                              .\ARM_GCC_493\Debug\mem1.o (GPIO_5_1_Write)
.\ARM_GCC_493\Debug\PSoC_2_Pi.a(GPIO_12_6.o)
                              .\ARM_GCC_493\Debug\mem1.o (GPIO_12_6_Write)
.\ARM_GCC_493\Debug\PSoC_2_Pi.a(GPIO_12_7.o)
                              .\ARM_GCC_493\Debug\mem1.o (GPIO_12_7_Write)
.\ARM_GCC_493\Debug\PSoC_2_Pi.a(GPIO_2_1.o)
                              .\ARM_GCC_493\Debug\mem1.o (GPIO_2_1_Write)
.\ARM_GCC_493\Debug\PSoC_2_Pi.a(GPIO_2_7.o)
                              .\ARM_GCC_493\Debug\mem1.o (GPIO_2_7_Write)
.\ARM_GCC_493\Debug\PSoC_2_Pi.a(GPIO_2_6.o)
                              .\ARM_GCC_493\Debug\mem1.o (GPIO_2_6_Write)
.\ARM_GCC_493\Debug\PSoC_2_Pi.a(GPIO_2_2.o)
                              .\ARM_GCC_493\Debug\mem1.o (GPIO_2_2_Write)
.\ARM_GCC_493\Debug\PSoC_2_Pi.a(GPIO_12_0.o)
                              .\ARM_GCC_493\Debug\mem1.o (GPIO_12_0_Write)
.\ARM_GCC_493\Debug\PSoC_2_Pi.a(GPIO_2_5.o)
                              .\ARM_GCC_493\Debug\mem1.o (GPIO_2_5_Write)
.\ARM_GCC_493\Debug\PSoC_2_Pi.a(GPIO_12_2.o)
                              .\ARM_GCC_493\Debug\mem1.o (GPIO_12_2_Write)
.\ARM_GCC_493\Debug\PSoC_2_Pi.a(GPIO_2_0.o)
                              .\ARM_GCC_493\Debug\mem1.o (GPIO_2_0_Write)
.\ARM_GCC_493\Debug\PSoC_2_Pi.a(GPIO_2_4.o)
                              .\ARM_GCC_493\Debug\mem1.o (GPIO_2_4_Write)
.\ARM_GCC_493\Debug\PSoC_2_Pi.a(GPIO_2_3.o)
                              .\ARM_GCC_493\Debug\mem1.o (GPIO_2_3_Write)
.\ARM_GCC_493\Debug\PSoC_2_Pi.a(GPIO_12_3.o)
                              .\ARM_GCC_493\Debug\mem1.o (GPIO_12_3_Write)
.\ARM_GCC_493\Debug\PSoC_2_Pi.a(GPIO_12_4.o)
                              .\ARM_GCC_493\Debug\mem1.o (GPIO_12_4_Write)
.\ARM_GCC_493\Debug\PSoC_2_Pi.a(GPIO_5_0.o)
                              .\ARM_GCC_493\Debug\mem1.o (GPIO_5_0_Write)
.\ARM_GCC_493\Debug\PSoC_2_Pi.a(GPIO_12_5.o)
                              .\ARM_GCC_493\Debug\mem1.o (GPIO_12_5_Write)
.\ARM_GCC_493\Debug\PSoC_2_Pi.a(USBUART.o)
                              .\ARM_GCC_493\Debug\LINX.o (USBUART_Start)
.\ARM_GCC_493\Debug\PSoC_2_Pi.a(USBUART_cdc.o)
                              .\ARM_GCC_493\Debug\LINX.o (USBUART_CDC_Init)
.\ARM_GCC_493\Debug\PSoC_2_Pi.a(USBUART_drv.o)
                              .\ARM_GCC_493\Debug\PSoC_2_Pi.a(USBUART.o) (USBUART_EP)
.\ARM_GCC_493\Debug\PSoC_2_Pi.a(USBUART_episr.o)
                              .\ARM_GCC_493\Debug\PSoC_2_Pi.a(USBUART.o) (USBUART_EP_1_ISR)
.\ARM_GCC_493\Debug\PSoC_2_Pi.a(USBUART_std.o)
                              .\ARM_GCC_493\Debug\PSoC_2_Pi.a(USBUART_drv.o) (USBUART_HandleStandardRqst)
.\ARM_GCC_493\Debug\PSoC_2_Pi.a(USBUART_vnd.o)
                              .\ARM_GCC_493\Debug\PSoC_2_Pi.a(USBUART_drv.o) (USBUART_HandleVendorRqst)
.\ARM_GCC_493\Debug\PSoC_2_Pi.a(EEPROM.o)
                              .\ARM_GCC_493\Debug\LINX.o (EEPROM_Start)
.\ARM_GCC_493\Debug\PSoC_2_Pi.a(WaveDAC_clk.o)
                              .\ARM_GCC_493\Debug\mem1.o (WaveDAC_clk_Start)
.\ARM_GCC_493\Debug\PSoC_2_Pi.a(WaveDAC8_1.o)
                              .\ARM_GCC_493\Debug\mem1.o (WaveDAC8_1_Wave2Setup)
.\ARM_GCC_493\Debug\PSoC_2_Pi.a(WaveDAC8_1_PM.o)
                              .\ARM_GCC_493\Debug\mem1.o (WaveDAC8_1_Sleep)
.\ARM_GCC_493\Debug\PSoC_2_Pi.a(PWM_CLK_4.o)
                              .\ARM_GCC_493\Debug\mem1.o (PWM_CLK_4_SetDividerRegister)
.\ARM_GCC_493\Debug\PSoC_2_Pi.a(PWM_3.o)
                              .\ARM_GCC_493\Debug\mem1.o (PWM_3_Start)
.\ARM_GCC_493\Debug\PSoC_2_Pi.a(PWM_3_PM.o)
                              .\ARM_GCC_493\Debug\mem1.o (PWM_3_Sleep)
.\ARM_GCC_493\Debug\PSoC_2_Pi.a(PWM_CLK_3.o)
                              .\ARM_GCC_493\Debug\mem1.o (PWM_CLK_3_SetDividerRegister)
.\ARM_GCC_493\Debug\PSoC_2_Pi.a(PWM_6.o)
                              .\ARM_GCC_493\Debug\mem1.o (PWM_6_Start)
.\ARM_GCC_493\Debug\PSoC_2_Pi.a(PWM_6_PM.o)
                              .\ARM_GCC_493\Debug\mem1.o (PWM_6_Sleep)
.\ARM_GCC_493\Debug\PSoC_2_Pi.a(PWM_5.o)
                              .\ARM_GCC_493\Debug\mem1.o (PWM_5_Start)
.\ARM_GCC_493\Debug\PSoC_2_Pi.a(PWM_5_PM.o)
                              .\ARM_GCC_493\Debug\mem1.o (PWM_5_Sleep)
.\ARM_GCC_493\Debug\PSoC_2_Pi.a(PWM_CLK_2.o)
                              .\ARM_GCC_493\Debug\mem1.o (PWM_CLK_2_SetDividerRegister)
.\ARM_GCC_493\Debug\PSoC_2_Pi.a(PWM_4.o)
                              .\ARM_GCC_493\Debug\mem1.o (PWM_4_Start)
.\ARM_GCC_493\Debug\PSoC_2_Pi.a(PWM_4_PM.o)
                              .\ARM_GCC_493\Debug\mem1.o (PWM_4_Sleep)
.\ARM_GCC_493\Debug\PSoC_2_Pi.a(GPIO_5_6.o)
                              .\ARM_GCC_493\Debug\mem1.o (GPIO_5_6_Write)
.\ARM_GCC_493\Debug\PSoC_2_Pi.a(GPIO_5_7.o)
                              .\ARM_GCC_493\Debug\mem1.o (GPIO_5_7_Write)
.\ARM_GCC_493\Debug\PSoC_2_Pi.a(StripLights.o)
                              .\ARM_GCC_493\Debug\mem1.o (StripLights_Start)
.\ARM_GCC_493\Debug\PSoC_2_Pi.a(StripLights_fonts.o)
                              .\ARM_GCC_493\Debug\PSoC_2_Pi.a(StripLights.o) (StripLights_SetFont)
.\ARM_GCC_493\Debug\PSoC_2_Pi.a(ADC_SAR_Seq_1.o)
                              .\ARM_GCC_493\Debug\mem1.o (ADC_SAR_Seq_1_Start)
.\ARM_GCC_493\Debug\PSoC_2_Pi.a(ADC_SAR_Seq_1_INT.o)
                              .\ARM_GCC_493\Debug\PSoC_2_Pi.a(ADC_SAR_Seq_1.o) (ADC_SAR_Seq_1_ISR)
.\ARM_GCC_493\Debug\PSoC_2_Pi.a(Timer.o)
                              .\ARM_GCC_493\Debug\mem1.o (Timer_WritePeriod)
.\ARM_GCC_493\Debug\PSoC_2_Pi.a(TIMER_REG.o)
                              .\ARM_GCC_493\Debug\mem1.o (TIMER_REG_Write)
.\ARM_GCC_493\Debug\PSoC_2_Pi.a(GPIO_12_1.o)
                              .\ARM_GCC_493\Debug\mem1.o (GPIO_12_1_Write)
.\ARM_GCC_493\Debug\PSoC_2_Pi.a(PWM_8.o)
                              .\ARM_GCC_493\Debug\mem1.o (PWM_8_Start)
.\ARM_GCC_493\Debug\PSoC_2_Pi.a(PWM_8_PM.o)
                              .\ARM_GCC_493\Debug\mem1.o (PWM_8_Sleep)
.\ARM_GCC_493\Debug\PSoC_2_Pi.a(CapSense_1_CompCH0.o)
                              .\ARM_GCC_493\Debug\PSoC_2_Pi.a(CapSense_1.o) (CapSense_1_CompCH0_Init)
.\ARM_GCC_493\Debug\PSoC_2_Pi.a(CapSense_1_IdacCH0.o)
                              .\ARM_GCC_493\Debug\PSoC_2_Pi.a(CapSense_1.o) (CapSense_1_IdacCH0_Init)
.\ARM_GCC_493\Debug\PSoC_2_Pi.a(CapSense_1_AMuxCH0.o)
                              .\ARM_GCC_493\Debug\PSoC_2_Pi.a(CapSense_1.o) (CapSense_1_AMuxCH0_Init)
.\ARM_GCC_493\Debug\PSoC_2_Pi.a(CapSense_1_IntClock.o)
                              .\ARM_GCC_493\Debug\PSoC_2_Pi.a(CapSense_1.o) (CapSense_1_IntClock_Start)
.\ARM_GCC_493\Debug\PSoC_2_Pi.a(WaveDAC8_1_Wave1_DMA_dma.o)
                              .\ARM_GCC_493\Debug\PSoC_2_Pi.a(WaveDAC8_1.o) (WaveDAC8_1_Wave1_DMA_DmaInitialize)
.\ARM_GCC_493\Debug\PSoC_2_Pi.a(WaveDAC8_1_Wave2_DMA_dma.o)
                              .\ARM_GCC_493\Debug\PSoC_2_Pi.a(WaveDAC8_1.o) (WaveDAC8_1_Wave2_DMA_DmaInitialize)
.\ARM_GCC_493\Debug\PSoC_2_Pi.a(WaveDAC8_1_VDAC8.o)
                              .\ARM_GCC_493\Debug\PSoC_2_Pi.a(WaveDAC8_1.o) (WaveDAC8_1_VDAC8_Init)
.\ARM_GCC_493\Debug\PSoC_2_Pi.a(WaveDAC8_1_VDAC8_PM.o)
                              .\ARM_GCC_493\Debug\PSoC_2_Pi.a(WaveDAC8_1_PM.o) (WaveDAC8_1_VDAC8_SaveConfig)
.\ARM_GCC_493\Debug\PSoC_2_Pi.a(WaveDAC8_1_BuffAmp.o)
                              .\ARM_GCC_493\Debug\PSoC_2_Pi.a(WaveDAC8_1.o) (WaveDAC8_1_BuffAmp_Init)
.\ARM_GCC_493\Debug\PSoC_2_Pi.a(StripLights_isr.o)
                              .\ARM_GCC_493\Debug\PSoC_2_Pi.a(StripLights.o) (StripLights_isr_StartEx)
.\ARM_GCC_493\Debug\PSoC_2_Pi.a(ADC_SAR_Seq_1_SAR.o)
                              .\ARM_GCC_493\Debug\PSoC_2_Pi.a(ADC_SAR_Seq_1.o) (ADC_SAR_Seq_1_SAR_shift)
.\ARM_GCC_493\Debug\PSoC_2_Pi.a(ADC_SAR_Seq_1_TempBuf_dma.o)
                              .\ARM_GCC_493\Debug\PSoC_2_Pi.a(ADC_SAR_Seq_1.o) (ADC_SAR_Seq_1_TempBuf_DmaInitialize)
.\ARM_GCC_493\Debug\PSoC_2_Pi.a(ADC_SAR_Seq_1_FinalBuf_dma.o)
                              .\ARM_GCC_493\Debug\PSoC_2_Pi.a(ADC_SAR_Seq_1.o) (ADC_SAR_Seq_1_FinalBuf_DmaInitialize)
.\ARM_GCC_493\Debug\PSoC_2_Pi.a(ADC_SAR_Seq_1_IRQ.o)
                              .\ARM_GCC_493\Debug\PSoC_2_Pi.a(ADC_SAR_Seq_1.o) (ADC_SAR_Seq_1_IRQ_SetVector)
.\ARM_GCC_493\Debug\PSoC_2_Pi.a(CyBootAsmGnu.o)
                              .\ARM_GCC_493\Debug\PSoC_2_Pi.a(cyfitter_cfg.o) (CyDelayCycles)
.\ARM_GCC_493\Debug\PSoC_2_Pi.a(CyDmac.o)
                              .\ARM_GCC_493\Debug\Cm3Start.o (CyDmacConfigure)
.\ARM_GCC_493\Debug\PSoC_2_Pi.a(CyFlash.o)
                              .\ARM_GCC_493\Debug\PSoC_2_Pi.a(EEPROM.o) (dieTemperature)
.\ARM_GCC_493\Debug\PSoC_2_Pi.a(CyLib.o)
                              .\ARM_GCC_493\Debug\Cm3Start.o (CyResetStatus)
.\ARM_GCC_493\Debug\PSoC_2_Pi.a(cyPm.o)
                              .\ARM_GCC_493\Debug\PSoC_2_Pi.a(CyLib.o) (CyPmReadStatus)
.\ARM_GCC_493\Debug\PSoC_2_Pi.a(CySpc.o)
                              .\ARM_GCC_493\Debug\PSoC_2_Pi.a(EEPROM.o) (CySpcStart)
.\ARM_GCC_493\Debug\PSoC_2_Pi.a(USBUART_cls.o)
                              .\ARM_GCC_493\Debug\PSoC_2_Pi.a(USBUART_drv.o) (USBUART_DispatchClassRqst)
.\ARM_GCC_493\Debug\PSoC_2_Pi.a(USBUART_descr.o)
                              .\ARM_GCC_493\Debug\PSoC_2_Pi.a(USBUART_std.o) (USBUART_DEVICE0_DESCR)
c:/program files (x86)/cypress/psoc creator/3.3/psoc creator/import/gnu/arm/4.9.3/bin/../lib/gcc/arm-none-eabi/4.9.3/armv7-m\libgcc.a(_arm_addsubdf3.o)
                              .\ARM_GCC_493\Debug\mem1.o (__aeabi_dadd)
c:/program files (x86)/cypress/psoc creator/3.3/psoc creator/import/gnu/arm/4.9.3/bin/../lib/gcc/arm-none-eabi/4.9.3/armv7-m\libgcc.a(_arm_muldivdf3.o)
                              .\ARM_GCC_493\Debug\mem1.o (__aeabi_dmul)
c:/program files (x86)/cypress/psoc creator/3.3/psoc creator/import/gnu/arm/4.9.3/bin/../lib/gcc/arm-none-eabi/4.9.3/armv7-m\libgcc.a(_arm_cmpdf2.o)
                              .\ARM_GCC_493\Debug\mem1.o (__aeabi_dcmpgt)
c:/program files (x86)/cypress/psoc creator/3.3/psoc creator/import/gnu/arm/4.9.3/bin/../lib/gcc/arm-none-eabi/4.9.3/armv7-m\libgcc.a(_arm_fixunsdfsi.o)
                              .\ARM_GCC_493\Debug\mem1.o (__aeabi_d2uiz)
c:/program files (x86)/cypress/psoc creator/3.3/psoc creator/import/gnu/arm/4.9.3/bin/../lib/gcc/arm-none-eabi/4.9.3/armv7-m\libgcc.a(_arm_addsubsf3.o)
                              .\ARM_GCC_493\Debug\PSoC_2_Pi.a(ADC_SAR_Seq_1_SAR.o) (__aeabi_i2f)
c:/program files (x86)/cypress/psoc creator/3.3/psoc creator/import/gnu/arm/4.9.3/bin/../lib/gcc/arm-none-eabi/4.9.3/armv7-m\libgcc.a(_arm_muldivsf3.o)
                              .\ARM_GCC_493\Debug\PSoC_2_Pi.a(ADC_SAR_Seq_1_SAR.o) (__aeabi_fmul)
c:/program files (x86)/cypress/psoc creator/3.3/psoc creator/import/gnu/arm/4.9.3/bin/../lib/gcc/arm-none-eabi/4.9.3/armv7-m\libgcc.a(_aeabi_ldivmod.o)
                              .\ARM_GCC_493\Debug\PSoC_2_Pi.a(ADC_SAR_Seq_1_SAR.o) (__aeabi_ldivmod)
c:/program files (x86)/cypress/psoc creator/3.3/psoc creator/import/gnu/arm/4.9.3/bin/../lib/gcc/arm-none-eabi/4.9.3/armv7-m\libgcc.a(bpabi.o)
                              c:/program files (x86)/cypress/psoc creator/3.3/psoc creator/import/gnu/arm/4.9.3/bin/../lib/gcc/arm-none-eabi/4.9.3/armv7-m\libgcc.a(_aeabi_ldivmod.o) (__gnu_ldivmod_helper)
c:/program files (x86)/cypress/psoc creator/3.3/psoc creator/import/gnu/arm/4.9.3/bin/../lib/gcc/arm-none-eabi/4.9.3/armv7-m\libgcc.a(_dvmd_tls.o)
                              c:/program files (x86)/cypress/psoc creator/3.3/psoc creator/import/gnu/arm/4.9.3/bin/../lib/gcc/arm-none-eabi/4.9.3/armv7-m\libgcc.a(_aeabi_ldivmod.o) (__aeabi_ldiv0)
c:/program files (x86)/cypress/psoc creator/3.3/psoc creator/import/gnu/arm/4.9.3/bin/../lib/gcc/arm-none-eabi/4.9.3/armv7-m\libgcc.a(_divdi3.o)
                              c:/program files (x86)/cypress/psoc creator/3.3/psoc creator/import/gnu/arm/4.9.3/bin/../lib/gcc/arm-none-eabi/4.9.3/armv7-m\libgcc.a(bpabi.o) (__divdi3)
c:/program files (x86)/cypress/psoc creator/3.3/psoc creator/import/gnu/arm/4.9.3/bin/../lib/gcc/arm-none-eabi/4.9.3/armv7-m\libgcc.a(_udivdi3.o)
                              c:/program files (x86)/cypress/psoc creator/3.3/psoc creator/import/gnu/arm/4.9.3/bin/../lib/gcc/arm-none-eabi/4.9.3/armv7-m\libgcc.a(bpabi.o) (__udivdi3)
c:/program files (x86)/cypress/psoc creator/3.3/psoc creator/import/gnu/arm/4.9.3/bin/../lib/gcc/arm-none-eabi/4.9.3/../../../../arm-none-eabi/lib/armv7-m\libg_nano.a(lib_a-errno.o)
                              .\ARM_GCC_493\Debug\Cm3Start.o (__errno)
c:/program files (x86)/cypress/psoc creator/3.3/psoc creator/import/gnu/arm/4.9.3/bin/../lib/gcc/arm-none-eabi/4.9.3/../../../../arm-none-eabi/lib/armv7-m\libg_nano.a(lib_a-exit.o)
                              c:/program files (x86)/cypress/psoc creator/3.3/psoc creator/import/gnu/arm/4.9.3/bin/../lib/gcc/arm-none-eabi/4.9.3/../../../../arm-none-eabi/lib/armv7-m/crt0.o (exit)
c:/program files (x86)/cypress/psoc creator/3.3/psoc creator/import/gnu/arm/4.9.3/bin/../lib/gcc/arm-none-eabi/4.9.3/../../../../arm-none-eabi/lib/armv7-m\libg_nano.a(lib_a-impure.o)
                              c:/program files (x86)/cypress/psoc creator/3.3/psoc creator/import/gnu/arm/4.9.3/bin/../lib/gcc/arm-none-eabi/4.9.3/../../../../arm-none-eabi/lib/armv7-m\libg_nano.a(lib_a-exit.o) (_global_impure_ptr)
c:/program files (x86)/cypress/psoc creator/3.3/psoc creator/import/gnu/arm/4.9.3/bin/../lib/gcc/arm-none-eabi/4.9.3/../../../../arm-none-eabi/lib/armv7-m\libg_nano.a(lib_a-init.o)
                              c:/program files (x86)/cypress/psoc creator/3.3/psoc creator/import/gnu/arm/4.9.3/bin/../lib/gcc/arm-none-eabi/4.9.3/../../../../arm-none-eabi/lib/armv7-m/crt0.o (__libc_init_array)
c:/program files (x86)/cypress/psoc creator/3.3/psoc creator/import/gnu/arm/4.9.3/bin/../lib/gcc/arm-none-eabi/4.9.3/../../../../arm-none-eabi/lib/armv7-m\libg_nano.a(lib_a-memcpy.o)
                              .\ARM_GCC_493\Debug\mem1.o (memcpy)
c:/program files (x86)/cypress/psoc creator/3.3/psoc creator/import/gnu/arm/4.9.3/bin/../lib/gcc/arm-none-eabi/4.9.3/../../../../arm-none-eabi/lib/armv7-m\libg_nano.a(lib_a-memset.o)
                              c:/program files (x86)/cypress/psoc creator/3.3/psoc creator/import/gnu/arm/4.9.3/bin/../lib/gcc/arm-none-eabi/4.9.3/../../../../arm-none-eabi/lib/armv7-m/crt0.o (memset)

Allocating common symbols
Common symbol       size              file

USBUART_lastPacketSize
                    0x1               .\ARM_GCC_493\Debug\PSoC_2_Pi.a(USBUART_drv.o)
USBUART_device      0x1               .\ARM_GCC_493\Debug\PSoC_2_Pi.a(USBUART_drv.o)
USBUART_transferByteCount
                    0x2               .\ARM_GCC_493\Debug\PSoC_2_Pi.a(USBUART_drv.o)
StripLights_ledArray
                    0xa0              .\ARM_GCC_493\Debug\PSoC_2_Pi.a(StripLights.o)
USBUART_interfaceSetting_last
                    0x2               .\ARM_GCC_493\Debug\PSoC_2_Pi.a(USBUART_drv.o)
USBUART_transferState
                    0x1               .\ARM_GCC_493\Debug\PSoC_2_Pi.a(USBUART_drv.o)
ADC_SAR_Seq_1_SAR_countsPerVolt
                    0x2               .\ARM_GCC_493\Debug\PSoC_2_Pi.a(ADC_SAR_Seq_1_SAR.o)
CapSense_1_sensorIndex
                    0x1               .\ARM_GCC_493\Debug\PSoC_2_Pi.a(CapSense_1.o)
ADC_SAR_Seq_1_SAR_offset
                    0x2               .\ARM_GCC_493\Debug\PSoC_2_Pi.a(ADC_SAR_Seq_1_SAR.o)
CapSense_1_sensorSignal
                    0x8               .\ARM_GCC_493\Debug\PSoC_2_Pi.a(CapSense_1_CSHL.o)
USBUART_cdc_data_out_ep
                    0x1               .\ARM_GCC_493\Debug\PSoC_2_Pi.a(USBUART_cdc.o)
USBUART_currentTD   0xc               .\ARM_GCC_493\Debug\PSoC_2_Pi.a(USBUART_drv.o)
StripLights_fontX   0x4               .\ARM_GCC_493\Debug\PSoC_2_Pi.a(StripLights_fonts.o)
StripLights_DimMask
                    0x4               .\ARM_GCC_493\Debug\PSoC_2_Pi.a(StripLights.o)
StripLights_DimShift
                    0x4               .\ARM_GCC_493\Debug\PSoC_2_Pi.a(StripLights.o)
ADC_SAR_Seq_1_SAR_countsPer10Volt
                    0x4               .\ARM_GCC_493\Debug\PSoC_2_Pi.a(ADC_SAR_Seq_1_SAR.o)
USBUART_cdc_data_in_ep
                    0x1               .\ARM_GCC_493\Debug\PSoC_2_Pi.a(USBUART_cdc.o)
CapSense_1_csv      0x1               .\ARM_GCC_493\Debug\PSoC_2_Pi.a(CapSense_1.o)
CapSense_1_sensorBaselineLow
                    0x8               .\ARM_GCC_493\Debug\PSoC_2_Pi.a(CapSense_1_CSHL.o)
USBUART_idSerialNumberStringDescriptor
                    0x22              .\ARM_GCC_493\Debug\PSoC_2_Pi.a(USBUART_descr.o)
CapSense_1_rawFilterData1
                    0x10              .\ARM_GCC_493\Debug\PSoC_2_Pi.a(CapSense_1_CSHL.o)
ADC_SAR_Seq_1_SAR_shift
                    0x2               .\ARM_GCC_493\Debug\PSoC_2_Pi.a(ADC_SAR_Seq_1_SAR.o)
CapSense_1_sensorBaseline
                    0x10              .\ARM_GCC_493\Debug\PSoC_2_Pi.a(CapSense_1_CSHL.o)
USBUART_interfaceNumber
                    0x1               .\ARM_GCC_493\Debug\PSoC_2_Pi.a(USBUART_drv.o)
StripLights_refreshComplete
                    0x4               .\ARM_GCC_493\Debug\PSoC_2_Pi.a(StripLights.o)
buffer              0x4               .\ARM_GCC_493\Debug\Python.o
USBUART_interfaceClass
                    0x4               .\ARM_GCC_493\Debug\PSoC_2_Pi.a(USBUART_drv.o)
StripLights_fontOffset
                    0x4               .\ARM_GCC_493\Debug\PSoC_2_Pi.a(StripLights_fonts.o)
CapSense_1_sensorOnMask
                    0x1               .\ARM_GCC_493\Debug\PSoC_2_Pi.a(CapSense_1_CSHL.o)
USBUART_configurationChanged
                    0x1               .\ARM_GCC_493\Debug\PSoC_2_Pi.a(USBUART_drv.o)
USBUART_ep0Mode     0x1               .\ARM_GCC_493\Debug\PSoC_2_Pi.a(USBUART_drv.o)
vessel              0x10              .\ARM_GCC_493\Debug\main.o
StripLights_fontPtr
                    0x4               .\ARM_GCC_493\Debug\PSoC_2_Pi.a(StripLights_fonts.o)
USBUART_deviceAddress
                    0x1               .\ARM_GCC_493\Debug\PSoC_2_Pi.a(USBUART_drv.o)
USBUART_configuration
                    0x1               .\ARM_GCC_493\Debug\PSoC_2_Pi.a(USBUART_drv.o)
CapSense_1_sensorRaw
                    0x10              .\ARM_GCC_493\Debug\PSoC_2_Pi.a(CapSense_1.o)
ADC_SAR_Seq_1_finalArray
                    0x10              .\ARM_GCC_493\Debug\PSoC_2_Pi.a(ADC_SAR_Seq_1.o)
USBUART_ep0Count    0x1               .\ARM_GCC_493\Debug\PSoC_2_Pi.a(USBUART_drv.o)
USBUART_deviceStatus
                    0x1               .\ARM_GCC_493\Debug\PSoC_2_Pi.a(USBUART_drv.o)
USBUART_lineControlBitmap
                    0x2               .\ARM_GCC_493\Debug\PSoC_2_Pi.a(USBUART_cdc.o)
USBUART_EP          0x6c              .\ARM_GCC_493\Debug\PSoC_2_Pi.a(USBUART_drv.o)
CapSense_1_lowBaselineResetCnt
                    0x8               .\ARM_GCC_493\Debug\PSoC_2_Pi.a(CapSense_1_CSHL.o)
USBUART_interfaceSetting
                    0x2               .\ARM_GCC_493\Debug\PSoC_2_Pi.a(USBUART_drv.o)
USBUART_ep0Toggle   0x1               .\ARM_GCC_493\Debug\PSoC_2_Pi.a(USBUART_drv.o)
USBUART_lineChanged
                    0x1               .\ARM_GCC_493\Debug\PSoC_2_Pi.a(USBUART_cdc.o)
dieTemperature      0x2               .\ARM_GCC_493\Debug\PSoC_2_Pi.a(CyFlash.o)
StripLights_fontY   0x4               .\ARM_GCC_493\Debug\PSoC_2_Pi.a(StripLights_fonts.o)
USBUART_interfaceStatus
                    0x2               .\ARM_GCC_493\Debug\PSoC_2_Pi.a(USBUART_drv.o)

Discarded input sections

 .text          0x00000000        0x0 c:/program files (x86)/cypress/psoc creator/3.3/psoc creator/import/gnu/arm/4.9.3/bin/../lib/gcc/arm-none-eabi/4.9.3/armv7-m/crti.o
 .data          0x00000000        0x0 c:/program files (x86)/cypress/psoc creator/3.3/psoc creator/import/gnu/arm/4.9.3/bin/../lib/gcc/arm-none-eabi/4.9.3/armv7-m/crti.o
 .bss           0x00000000        0x0 c:/program files (x86)/cypress/psoc creator/3.3/psoc creator/import/gnu/arm/4.9.3/bin/../lib/gcc/arm-none-eabi/4.9.3/armv7-m/crti.o
 .data          0x00000000        0x4 c:/program files (x86)/cypress/psoc creator/3.3/psoc creator/import/gnu/arm/4.9.3/bin/../lib/gcc/arm-none-eabi/4.9.3/armv7-m/crtbegin.o
 .text          0x00000000       0x74 c:/program files (x86)/cypress/psoc creator/3.3/psoc creator/import/gnu/arm/4.9.3/bin/../lib/gcc/arm-none-eabi/4.9.3/../../../../arm-none-eabi/lib/armv7-m/crt0.o
 .data          0x00000000        0x0 c:/program files (x86)/cypress/psoc creator/3.3/psoc creator/import/gnu/arm/4.9.3/bin/../lib/gcc/arm-none-eabi/4.9.3/../../../../arm-none-eabi/lib/armv7-m/crt0.o
 .bss           0x00000000        0x0 c:/program files (x86)/cypress/psoc creator/3.3/psoc creator/import/gnu/arm/4.9.3/bin/../lib/gcc/arm-none-eabi/4.9.3/../../../../arm-none-eabi/lib/armv7-m/crt0.o
 .ARM.extab     0x00000000        0x0 c:/program files (x86)/cypress/psoc creator/3.3/psoc creator/import/gnu/arm/4.9.3/bin/../lib/gcc/arm-none-eabi/4.9.3/../../../../arm-none-eabi/lib/armv7-m/crt0.o
 .ARM.exidx     0x00000000        0x8 c:/program files (x86)/cypress/psoc creator/3.3/psoc creator/import/gnu/arm/4.9.3/bin/../lib/gcc/arm-none-eabi/4.9.3/../../../../arm-none-eabi/lib/armv7-m/crt0.o
 .text          0x00000000        0x0 .\ARM_GCC_493\Debug\main.o
 .data          0x00000000        0x0 .\ARM_GCC_493\Debug\main.o
 .bss           0x00000000        0x0 .\ARM_GCC_493\Debug\main.o
 .text          0x00000000        0x0 .\ARM_GCC_493\Debug\mem1.o
 .data          0x00000000        0x0 .\ARM_GCC_493\Debug\mem1.o
 .bss           0x00000000        0x0 .\ARM_GCC_493\Debug\mem1.o
 .text          0x00000000        0x0 .\ARM_GCC_493\Debug\LINX.o
 .data          0x00000000        0x0 .\ARM_GCC_493\Debug\LINX.o
 .bss           0x00000000        0x0 .\ARM_GCC_493\Debug\LINX.o
 .text          0x00000000        0x0 .\ARM_GCC_493\Debug\Python.o
 .data          0x00000000        0x0 .\ARM_GCC_493\Debug\Python.o
 .bss           0x00000000        0x0 .\ARM_GCC_493\Debug\Python.o
 .text.Python_parser
                0x00000000      0x350 .\ARM_GCC_493\Debug\Python.o
 .text.Python_Initialize
                0x00000000       0x20 .\ARM_GCC_493\Debug\Python.o
 .text.Python_getData
                0x00000000       0x70 .\ARM_GCC_493\Debug\Python.o
 .text.Python_sendData
                0x00000000       0x54 .\ARM_GCC_493\Debug\Python.o
 COMMON         0x00000000        0x4 .\ARM_GCC_493\Debug\Python.o
 .text          0x00000000        0x0 .\ARM_GCC_493\Debug\cymetadata.o
 .data          0x00000000        0x0 .\ARM_GCC_493\Debug\cymetadata.o
 .bss           0x00000000        0x0 .\ARM_GCC_493\Debug\cymetadata.o
 .text          0x00000000        0x0 .\ARM_GCC_493\Debug\Cm3Start.o
 .data          0x00000000        0x4 .\ARM_GCC_493\Debug\Cm3Start.o
 .bss           0x00000000        0x0 .\ARM_GCC_493\Debug\Cm3Start.o
 .text._exit    0x00000000       0x28 .\ARM_GCC_493\Debug\Cm3Start.o
 .text._sbrk    0x00000000       0x54 .\ARM_GCC_493\Debug\Cm3Start.o
 .text          0x00000000        0x0 .\ARM_GCC_493\Debug\cybootloader.o
 .data          0x00000000        0x0 .\ARM_GCC_493\Debug\cybootloader.o
 .bss           0x00000000        0x0 .\ARM_GCC_493\Debug\cybootloader.o
 .text          0x00000000        0x0 .\ARM_GCC_493\Debug\PSoC_2_Pi.a(cyfitter_cfg.o)
 .data          0x00000000        0x0 .\ARM_GCC_493\Debug\PSoC_2_Pi.a(cyfitter_cfg.o)
 .bss           0x00000000        0x0 .\ARM_GCC_493\Debug\PSoC_2_Pi.a(cyfitter_cfg.o)
 .text.CYCONFIGCPYCODE
                0x00000000       0x1c .\ARM_GCC_493\Debug\PSoC_2_Pi.a(cyfitter_cfg.o)
 .text.SetAnalogRoutingPumps
                0x00000000       0x3c .\ARM_GCC_493\Debug\PSoC_2_Pi.a(cyfitter_cfg.o)
 .text          0x00000000        0x0 .\ARM_GCC_493\Debug\PSoC_2_Pi.a(PWM_CLK_1.o)
 .data          0x00000000        0x0 .\ARM_GCC_493\Debug\PSoC_2_Pi.a(PWM_CLK_1.o)
 .bss           0x00000000        0x0 .\ARM_GCC_493\Debug\PSoC_2_Pi.a(PWM_CLK_1.o)
 .text.PWM_CLK_1_Start
                0x00000000       0x34 .\ARM_GCC_493\Debug\PSoC_2_Pi.a(PWM_CLK_1.o)
 .text.PWM_CLK_1_Stop
                0x00000000       0x34 .\ARM_GCC_493\Debug\PSoC_2_Pi.a(PWM_CLK_1.o)
 .text.PWM_CLK_1_StopBlock
                0x00000000       0xb0 .\ARM_GCC_493\Debug\PSoC_2_Pi.a(PWM_CLK_1.o)
 .text.PWM_CLK_1_StandbyPower
                0x00000000       0x40 .\ARM_GCC_493\Debug\PSoC_2_Pi.a(PWM_CLK_1.o)
 .text.PWM_CLK_1_SetModeRegister
                0x00000000       0x34 .\ARM_GCC_493\Debug\PSoC_2_Pi.a(PWM_CLK_1.o)
 .text.PWM_CLK_1_ClearModeRegister
                0x00000000       0x34 .\ARM_GCC_493\Debug\PSoC_2_Pi.a(PWM_CLK_1.o)
 .text.PWM_CLK_1_GetModeRegister
                0x00000000       0x20 .\ARM_GCC_493\Debug\PSoC_2_Pi.a(PWM_CLK_1.o)
 .text.PWM_CLK_1_SetSourceRegister
                0x00000000       0xbc .\ARM_GCC_493\Debug\PSoC_2_Pi.a(PWM_CLK_1.o)
 .text          0x00000000        0x0 .\ARM_GCC_493\Debug\PSoC_2_Pi.a(PWM_1.o)
 .data          0x00000000        0x0 .\ARM_GCC_493\Debug\PSoC_2_Pi.a(PWM_1.o)
 .text          0x00000000        0x0 .\ARM_GCC_493\Debug\PSoC_2_Pi.a(PWM_1_PM.o)
 .data          0x00000000        0x0 .\ARM_GCC_493\Debug\PSoC_2_Pi.a(PWM_1_PM.o)
 .text          0x00000000        0x0 .\ARM_GCC_493\Debug\PSoC_2_Pi.a(PWM_2.o)
 .data          0x00000000        0x0 .\ARM_GCC_493\Debug\PSoC_2_Pi.a(PWM_2.o)
 .text          0x00000000        0x0 .\ARM_GCC_493\Debug\PSoC_2_Pi.a(PWM_2_PM.o)
 .data          0x00000000        0x0 .\ARM_GCC_493\Debug\PSoC_2_Pi.a(PWM_2_PM.o)
 .text          0x00000000        0x0 .\ARM_GCC_493\Debug\PSoC_2_Pi.a(IDAC8_1.o)
 .data          0x00000000        0x0 .\ARM_GCC_493\Debug\PSoC_2_Pi.a(IDAC8_1.o)
 .text          0x00000000        0x0 .\ARM_GCC_493\Debug\PSoC_2_Pi.a(IDAC8_1_PM.o)
 .data          0x00000000        0x0 .\ARM_GCC_493\Debug\PSoC_2_Pi.a(IDAC8_1_PM.o)
 .text          0x00000000        0x0 .\ARM_GCC_493\Debug\PSoC_2_Pi.a(VDAC8_1.o)
 .data          0x00000000        0x0 .\ARM_GCC_493\Debug\PSoC_2_Pi.a(VDAC8_1.o)
 .text          0x00000000        0x0 .\ARM_GCC_493\Debug\PSoC_2_Pi.a(VDAC8_1_PM.o)
 .data          0x00000000        0x0 .\ARM_GCC_493\Debug\PSoC_2_Pi.a(VDAC8_1_PM.o)
 .text          0x00000000        0x0 .\ARM_GCC_493\Debug\PSoC_2_Pi.a(CapSense_1.o)
 .text.CapSense_1_GetPrescaler
                0x00000000       0x24 .\ARM_GCC_493\Debug\PSoC_2_Pi.a(CapSense_1.o)
 .text.CapSense_1_SetScanSpeed
                0x00000000       0x20 .\ARM_GCC_493\Debug\PSoC_2_Pi.a(CapSense_1.o)
 .text          0x00000000        0x0 .\ARM_GCC_493\Debug\PSoC_2_Pi.a(CapSense_1_CSHL.o)
 .data          0x00000000        0x0 .\ARM_GCC_493\Debug\PSoC_2_Pi.a(CapSense_1_CSHL.o)
 .text.CapSense_1_InitializeEnabledBaselines
                0x00000000       0x6c .\ARM_GCC_493\Debug\PSoC_2_Pi.a(CapSense_1_CSHL.o)
 .text.CapSense_1_CheckIsAnyWidgetActive
                0x00000000       0x38 .\ARM_GCC_493\Debug\PSoC_2_Pi.a(CapSense_1_CSHL.o)
 .text.CapSense_1_EnableWidget
                0x00000000       0x68 .\ARM_GCC_493\Debug\PSoC_2_Pi.a(CapSense_1_CSHL.o)
 .text.CapSense_1_DisableWidget
                0x00000000       0x6c .\ARM_GCC_493\Debug\PSoC_2_Pi.a(CapSense_1_CSHL.o)
 .text          0x00000000        0x0 .\ARM_GCC_493\Debug\PSoC_2_Pi.a(CapSense_1_INT.o)
 .data          0x00000000        0x0 .\ARM_GCC_493\Debug\PSoC_2_Pi.a(CapSense_1_INT.o)
 .bss           0x00000000        0x0 .\ARM_GCC_493\Debug\PSoC_2_Pi.a(CapSense_1_INT.o)
 .text          0x00000000        0x0 .\ARM_GCC_493\Debug\PSoC_2_Pi.a(CapSense_1_PM.o)
 .data          0x00000000        0x0 .\ARM_GCC_493\Debug\PSoC_2_Pi.a(CapSense_1_PM.o)
 .text          0x00000000        0x0 .\ARM_GCC_493\Debug\PSoC_2_Pi.a(PWM_7.o)
 .data          0x00000000        0x0 .\ARM_GCC_493\Debug\PSoC_2_Pi.a(PWM_7.o)
 .text          0x00000000        0x0 .\ARM_GCC_493\Debug\PSoC_2_Pi.a(PWM_7_PM.o)
 .data          0x00000000        0x0 .\ARM_GCC_493\Debug\PSoC_2_Pi.a(PWM_7_PM.o)
 .text          0x00000000        0x0 .\ARM_GCC_493\Debug\PSoC_2_Pi.a(GPIO_5_2.o)
 .data          0x00000000        0x0 .\ARM_GCC_493\Debug\PSoC_2_Pi.a(GPIO_5_2.o)
 .bss           0x00000000        0x0 .\ARM_GCC_493\Debug\PSoC_2_Pi.a(GPIO_5_2.o)
 .text.GPIO_5_2_ReadDataReg
                0x00000000       0x20 .\ARM_GCC_493\Debug\PSoC_2_Pi.a(GPIO_5_2.o)
 .text          0x00000000        0x0 .\ARM_GCC_493\Debug\PSoC_2_Pi.a(GPIO_5_3.o)
 .data          0x00000000        0x0 .\ARM_GCC_493\Debug\PSoC_2_Pi.a(GPIO_5_3.o)
 .bss           0x00000000        0x0 .\ARM_GCC_493\Debug\PSoC_2_Pi.a(GPIO_5_3.o)
 .text.GPIO_5_3_ReadDataReg
                0x00000000       0x20 .\ARM_GCC_493\Debug\PSoC_2_Pi.a(GPIO_5_3.o)
 .text          0x00000000        0x0 .\ARM_GCC_493\Debug\PSoC_2_Pi.a(GPIO_5_4.o)
 .data          0x00000000        0x0 .\ARM_GCC_493\Debug\PSoC_2_Pi.a(GPIO_5_4.o)
 .bss           0x00000000        0x0 .\ARM_GCC_493\Debug\PSoC_2_Pi.a(GPIO_5_4.o)
 .text.GPIO_5_4_ReadDataReg
                0x00000000       0x20 .\ARM_GCC_493\Debug\PSoC_2_Pi.a(GPIO_5_4.o)
 .text          0x00000000        0x0 .\ARM_GCC_493\Debug\PSoC_2_Pi.a(GPIO_5_5.o)
 .data          0x00000000        0x0 .\ARM_GCC_493\Debug\PSoC_2_Pi.a(GPIO_5_5.o)
 .bss           0x00000000        0x0 .\ARM_GCC_493\Debug\PSoC_2_Pi.a(GPIO_5_5.o)
 .text.GPIO_5_5_ReadDataReg
                0x00000000       0x20 .\ARM_GCC_493\Debug\PSoC_2_Pi.a(GPIO_5_5.o)
 .text          0x00000000        0x0 .\ARM_GCC_493\Debug\PSoC_2_Pi.a(GPIO_5_1.o)
 .data          0x00000000        0x0 .\ARM_GCC_493\Debug\PSoC_2_Pi.a(GPIO_5_1.o)
 .bss           0x00000000        0x0 .\ARM_GCC_493\Debug\PSoC_2_Pi.a(GPIO_5_1.o)
 .text.GPIO_5_1_ReadDataReg
                0x00000000       0x20 .\ARM_GCC_493\Debug\PSoC_2_Pi.a(GPIO_5_1.o)
 .text          0x00000000        0x0 .\ARM_GCC_493\Debug\PSoC_2_Pi.a(GPIO_12_6.o)
 .data          0x00000000        0x0 .\ARM_GCC_493\Debug\PSoC_2_Pi.a(GPIO_12_6.o)
 .bss           0x00000000        0x0 .\ARM_GCC_493\Debug\PSoC_2_Pi.a(GPIO_12_6.o)
 .text.GPIO_12_6_ReadDataReg
                0x00000000       0x20 .\ARM_GCC_493\Debug\PSoC_2_Pi.a(GPIO_12_6.o)
 .text          0x00000000        0x0 .\ARM_GCC_493\Debug\PSoC_2_Pi.a(GPIO_12_7.o)
 .data          0x00000000        0x0 .\ARM_GCC_493\Debug\PSoC_2_Pi.a(GPIO_12_7.o)
 .bss           0x00000000        0x0 .\ARM_GCC_493\Debug\PSoC_2_Pi.a(GPIO_12_7.o)
 .text.GPIO_12_7_ReadDataReg
                0x00000000       0x1c .\ARM_GCC_493\Debug\PSoC_2_Pi.a(GPIO_12_7.o)
 .text          0x00000000        0x0 .\ARM_GCC_493\Debug\PSoC_2_Pi.a(GPIO_2_1.o)
 .data          0x00000000        0x0 .\ARM_GCC_493\Debug\PSoC_2_Pi.a(GPIO_2_1.o)
 .bss           0x00000000        0x0 .\ARM_GCC_493\Debug\PSoC_2_Pi.a(GPIO_2_1.o)
 .text.GPIO_2_1_ReadDataReg
                0x00000000       0x20 .\ARM_GCC_493\Debug\PSoC_2_Pi.a(GPIO_2_1.o)
 .text          0x00000000        0x0 .\ARM_GCC_493\Debug\PSoC_2_Pi.a(GPIO_2_7.o)
 .data          0x00000000        0x0 .\ARM_GCC_493\Debug\PSoC_2_Pi.a(GPIO_2_7.o)
 .bss           0x00000000        0x0 .\ARM_GCC_493\Debug\PSoC_2_Pi.a(GPIO_2_7.o)
 .text.GPIO_2_7_ReadDataReg
                0x00000000       0x1c .\ARM_GCC_493\Debug\PSoC_2_Pi.a(GPIO_2_7.o)
 .text          0x00000000        0x0 .\ARM_GCC_493\Debug\PSoC_2_Pi.a(GPIO_2_6.o)
 .data          0x00000000        0x0 .\ARM_GCC_493\Debug\PSoC_2_Pi.a(GPIO_2_6.o)
 .bss           0x00000000        0x0 .\ARM_GCC_493\Debug\PSoC_2_Pi.a(GPIO_2_6.o)
 .text.GPIO_2_6_ReadDataReg
                0x00000000       0x20 .\ARM_GCC_493\Debug\PSoC_2_Pi.a(GPIO_2_6.o)
 .text          0x00000000        0x0 .\ARM_GCC_493\Debug\PSoC_2_Pi.a(GPIO_2_2.o)
 .data          0x00000000        0x0 .\ARM_GCC_493\Debug\PSoC_2_Pi.a(GPIO_2_2.o)
 .bss           0x00000000        0x0 .\ARM_GCC_493\Debug\PSoC_2_Pi.a(GPIO_2_2.o)
 .text.GPIO_2_2_ReadDataReg
                0x00000000       0x20 .\ARM_GCC_493\Debug\PSoC_2_Pi.a(GPIO_2_2.o)
 .text          0x00000000        0x0 .\ARM_GCC_493\Debug\PSoC_2_Pi.a(GPIO_12_0.o)
 .data          0x00000000        0x0 .\ARM_GCC_493\Debug\PSoC_2_Pi.a(GPIO_12_0.o)
 .bss           0x00000000        0x0 .\ARM_GCC_493\Debug\PSoC_2_Pi.a(GPIO_12_0.o)
 .text.GPIO_12_0_ReadDataReg
                0x00000000       0x20 .\ARM_GCC_493\Debug\PSoC_2_Pi.a(GPIO_12_0.o)
 .text          0x00000000        0x0 .\ARM_GCC_493\Debug\PSoC_2_Pi.a(GPIO_2_5.o)
 .data          0x00000000        0x0 .\ARM_GCC_493\Debug\PSoC_2_Pi.a(GPIO_2_5.o)
 .bss           0x00000000        0x0 .\ARM_GCC_493\Debug\PSoC_2_Pi.a(GPIO_2_5.o)
 .text.GPIO_2_5_ReadDataReg
                0x00000000       0x20 .\ARM_GCC_493\Debug\PSoC_2_Pi.a(GPIO_2_5.o)
 .text          0x00000000        0x0 .\ARM_GCC_493\Debug\PSoC_2_Pi.a(GPIO_12_2.o)
 .data          0x00000000        0x0 .\ARM_GCC_493\Debug\PSoC_2_Pi.a(GPIO_12_2.o)
 .bss           0x00000000        0x0 .\ARM_GCC_493\Debug\PSoC_2_Pi.a(GPIO_12_2.o)
 .text.GPIO_12_2_ReadDataReg
                0x00000000       0x20 .\ARM_GCC_493\Debug\PSoC_2_Pi.a(GPIO_12_2.o)
 .text          0x00000000        0x0 .\ARM_GCC_493\Debug\PSoC_2_Pi.a(GPIO_2_0.o)
 .data          0x00000000        0x0 .\ARM_GCC_493\Debug\PSoC_2_Pi.a(GPIO_2_0.o)
 .bss           0x00000000        0x0 .\ARM_GCC_493\Debug\PSoC_2_Pi.a(GPIO_2_0.o)
 .text.GPIO_2_0_ReadDataReg
                0x00000000       0x20 .\ARM_GCC_493\Debug\PSoC_2_Pi.a(GPIO_2_0.o)
 .text          0x00000000        0x0 .\ARM_GCC_493\Debug\PSoC_2_Pi.a(GPIO_2_4.o)
 .data          0x00000000        0x0 .\ARM_GCC_493\Debug\PSoC_2_Pi.a(GPIO_2_4.o)
 .bss           0x00000000        0x0 .\ARM_GCC_493\Debug\PSoC_2_Pi.a(GPIO_2_4.o)
 .text.GPIO_2_4_ReadDataReg
                0x00000000       0x20 .\ARM_GCC_493\Debug\PSoC_2_Pi.a(GPIO_2_4.o)
 .text          0x00000000        0x0 .\ARM_GCC_493\Debug\PSoC_2_Pi.a(GPIO_2_3.o)
 .data          0x00000000        0x0 .\ARM_GCC_493\Debug\PSoC_2_Pi.a(GPIO_2_3.o)
 .bss           0x00000000        0x0 .\ARM_GCC_493\Debug\PSoC_2_Pi.a(GPIO_2_3.o)
 .text.GPIO_2_3_ReadDataReg
                0x00000000       0x20 .\ARM_GCC_493\Debug\PSoC_2_Pi.a(GPIO_2_3.o)
 .text          0x00000000        0x0 .\ARM_GCC_493\Debug\PSoC_2_Pi.a(GPIO_12_3.o)
 .data          0x00000000        0x0 .\ARM_GCC_493\Debug\PSoC_2_Pi.a(GPIO_12_3.o)
 .bss           0x00000000        0x0 .\ARM_GCC_493\Debug\PSoC_2_Pi.a(GPIO_12_3.o)
 .text.GPIO_12_3_ReadDataReg
                0x00000000       0x20 .\ARM_GCC_493\Debug\PSoC_2_Pi.a(GPIO_12_3.o)
 .text          0x00000000        0x0 .\ARM_GCC_493\Debug\PSoC_2_Pi.a(GPIO_12_4.o)
 .data          0x00000000        0x0 .\ARM_GCC_493\Debug\PSoC_2_Pi.a(GPIO_12_4.o)
 .bss           0x00000000        0x0 .\ARM_GCC_493\Debug\PSoC_2_Pi.a(GPIO_12_4.o)
 .text.GPIO_12_4_ReadDataReg
                0x00000000       0x20 .\ARM_GCC_493\Debug\PSoC_2_Pi.a(GPIO_12_4.o)
 .text          0x00000000        0x0 .\ARM_GCC_493\Debug\PSoC_2_Pi.a(GPIO_5_0.o)
 .data          0x00000000        0x0 .\ARM_GCC_493\Debug\PSoC_2_Pi.a(GPIO_5_0.o)
 .bss           0x00000000        0x0 .\ARM_GCC_493\Debug\PSoC_2_Pi.a(GPIO_5_0.o)
 .text.GPIO_5_0_ReadDataReg
                0x00000000       0x20 .\ARM_GCC_493\Debug\PSoC_2_Pi.a(GPIO_5_0.o)
 .text          0x00000000        0x0 .\ARM_GCC_493\Debug\PSoC_2_Pi.a(GPIO_12_5.o)
 .data          0x00000000        0x0 .\ARM_GCC_493\Debug\PSoC_2_Pi.a(GPIO_12_5.o)
 .bss           0x00000000        0x0 .\ARM_GCC_493\Debug\PSoC_2_Pi.a(GPIO_12_5.o)
 .text.GPIO_12_5_ReadDataReg
                0x00000000       0x20 .\ARM_GCC_493\Debug\PSoC_2_Pi.a(GPIO_12_5.o)
 .text          0x00000000        0x0 .\ARM_GCC_493\Debug\PSoC_2_Pi.a(USBUART.o)
 .data          0x00000000        0x0 .\ARM_GCC_493\Debug\PSoC_2_Pi.a(USBUART.o)
 .text.USBUART_Stop
                0x00000000       0xc0 .\ARM_GCC_493\Debug\PSoC_2_Pi.a(USBUART.o)
 .text.USBUART_CheckActivity
                0x00000000       0x34 .\ARM_GCC_493\Debug\PSoC_2_Pi.a(USBUART.o)
 .text.USBUART_IsConfigurationChanged
                0x00000000       0x34 .\ARM_GCC_493\Debug\PSoC_2_Pi.a(USBUART.o)
 .text.USBUART_GetInterfaceSetting
                0x00000000       0x24 .\ARM_GCC_493\Debug\PSoC_2_Pi.a(USBUART.o)
 .text.USBUART_GetEPState
                0x00000000       0x2c .\ARM_GCC_493\Debug\PSoC_2_Pi.a(USBUART.o)
 .text.USBUART_DisableOutEP
                0x00000000       0x38 .\ARM_GCC_493\Debug\PSoC_2_Pi.a(USBUART.o)
 .text.USBUART_Force
                0x00000000       0x20 .\ARM_GCC_493\Debug\PSoC_2_Pi.a(USBUART.o)
 .text.USBUART_GetEPAckState
                0x00000000       0x48 .\ARM_GCC_493\Debug\PSoC_2_Pi.a(USBUART.o)
 .text.USBUART_SetPowerStatus
                0x00000000       0x40 .\ARM_GCC_493\Debug\PSoC_2_Pi.a(USBUART.o)
 .text.USBUART_RWUEnabled
                0x00000000       0x30 .\ARM_GCC_493\Debug\PSoC_2_Pi.a(USBUART.o)
 .text          0x00000000        0x0 .\ARM_GCC_493\Debug\PSoC_2_Pi.a(USBUART_cdc.o)
 .bss           0x00000000        0x0 .\ARM_GCC_493\Debug\PSoC_2_Pi.a(USBUART_cdc.o)
 .text.USBUART_StrLen
                0x00000000       0x30 .\ARM_GCC_493\Debug\PSoC_2_Pi.a(USBUART_cdc.o)
 .text.USBUART_PutString
                0x00000000       0xec .\ARM_GCC_493\Debug\PSoC_2_Pi.a(USBUART_cdc.o)
 .text.USBUART_PutChar
                0x00000000       0x2c .\ARM_GCC_493\Debug\PSoC_2_Pi.a(USBUART_cdc.o)
 .rodata        0x00000000        0x4 .\ARM_GCC_493\Debug\PSoC_2_Pi.a(USBUART_cdc.o)
 .text.USBUART_PutCRLF
                0x00000000       0x30 .\ARM_GCC_493\Debug\PSoC_2_Pi.a(USBUART_cdc.o)
 .text.USBUART_GetCount
                0x00000000       0x4c .\ARM_GCC_493\Debug\PSoC_2_Pi.a(USBUART_cdc.o)
 .text.USBUART_CDCIsReady
                0x00000000       0x30 .\ARM_GCC_493\Debug\PSoC_2_Pi.a(USBUART_cdc.o)
 .text.USBUART_GetData
                0x00000000       0x2c .\ARM_GCC_493\Debug\PSoC_2_Pi.a(USBUART_cdc.o)
 .text.USBUART_GetChar
                0x00000000       0x28 .\ARM_GCC_493\Debug\PSoC_2_Pi.a(USBUART_cdc.o)
 .text.USBUART_IsLineChanged
                0x00000000       0x40 .\ARM_GCC_493\Debug\PSoC_2_Pi.a(USBUART_cdc.o)
 .text.USBUART_GetDTERate
                0x00000000       0x4c .\ARM_GCC_493\Debug\PSoC_2_Pi.a(USBUART_cdc.o)
 .text.USBUART_GetCharFormat
                0x00000000       0x18 .\ARM_GCC_493\Debug\PSoC_2_Pi.a(USBUART_cdc.o)
 .text.USBUART_GetParityType
                0x00000000       0x18 .\ARM_GCC_493\Debug\PSoC_2_Pi.a(USBUART_cdc.o)
 .text.USBUART_GetDataBits
                0x00000000       0x18 .\ARM_GCC_493\Debug\PSoC_2_Pi.a(USBUART_cdc.o)
 .text.USBUART_GetLineControl
                0x00000000       0x18 .\ARM_GCC_493\Debug\PSoC_2_Pi.a(USBUART_cdc.o)
 .text          0x00000000        0x0 .\ARM_GCC_493\Debug\PSoC_2_Pi.a(USBUART_drv.o)
 .data          0x00000000        0x0 .\ARM_GCC_493\Debug\PSoC_2_Pi.a(USBUART_drv.o)
 .bss           0x00000000        0x0 .\ARM_GCC_493\Debug\PSoC_2_Pi.a(USBUART_drv.o)
 .text          0x00000000        0x0 .\ARM_GCC_493\Debug\PSoC_2_Pi.a(USBUART_episr.o)
 .data          0x00000000        0x0 .\ARM_GCC_493\Debug\PSoC_2_Pi.a(USBUART_episr.o)
 .bss           0x00000000        0x0 .\ARM_GCC_493\Debug\PSoC_2_Pi.a(USBUART_episr.o)
 .text          0x00000000        0x0 .\ARM_GCC_493\Debug\PSoC_2_Pi.a(USBUART_std.o)
 .data          0x00000000        0x0 .\ARM_GCC_493\Debug\PSoC_2_Pi.a(USBUART_std.o)
 .text.USBUART_TerminateEP
                0x00000000       0xb8 .\ARM_GCC_493\Debug\PSoC_2_Pi.a(USBUART_std.o)
 .text          0x00000000        0x0 .\ARM_GCC_493\Debug\PSoC_2_Pi.a(USBUART_vnd.o)
 .data          0x00000000        0x0 .\ARM_GCC_493\Debug\PSoC_2_Pi.a(USBUART_vnd.o)
 .bss           0x00000000        0x0 .\ARM_GCC_493\Debug\PSoC_2_Pi.a(USBUART_vnd.o)
 .text          0x00000000        0x0 .\ARM_GCC_493\Debug\PSoC_2_Pi.a(EEPROM.o)
 .data          0x00000000        0x0 .\ARM_GCC_493\Debug\PSoC_2_Pi.a(EEPROM.o)
 .bss           0x00000000        0x0 .\ARM_GCC_493\Debug\PSoC_2_Pi.a(EEPROM.o)
 .text.EEPROM_Stop
                0x00000000        0xc .\ARM_GCC_493\Debug\PSoC_2_Pi.a(EEPROM.o)
 .text.EEPROM_EraseSector
                0x00000000       0x8c .\ARM_GCC_493\Debug\PSoC_2_Pi.a(EEPROM.o)
 .text.EEPROM_Write
                0x00000000       0xf0 .\ARM_GCC_493\Debug\PSoC_2_Pi.a(EEPROM.o)
 .text.EEPROM_StartWrite
                0x00000000       0xb4 .\ARM_GCC_493\Debug\PSoC_2_Pi.a(EEPROM.o)
 .text.EEPROM_QueryWrite
                0x00000000       0x54 .\ARM_GCC_493\Debug\PSoC_2_Pi.a(EEPROM.o)
 .text          0x00000000        0x0 .\ARM_GCC_493\Debug\PSoC_2_Pi.a(WaveDAC_clk.o)
 .data          0x00000000        0x0 .\ARM_GCC_493\Debug\PSoC_2_Pi.a(WaveDAC_clk.o)
 .bss           0x00000000        0x0 .\ARM_GCC_493\Debug\PSoC_2_Pi.a(WaveDAC_clk.o)
 .text.WaveDAC_clk_StopBlock
                0x00000000       0xb0 .\ARM_GCC_493\Debug\PSoC_2_Pi.a(WaveDAC_clk.o)
 .text.WaveDAC_clk_StandbyPower
                0x00000000       0x40 .\ARM_GCC_493\Debug\PSoC_2_Pi.a(WaveDAC_clk.o)
 .text.WaveDAC_clk_SetModeRegister
                0x00000000       0x34 .\ARM_GCC_493\Debug\PSoC_2_Pi.a(WaveDAC_clk.o)
 .text.WaveDAC_clk_ClearModeRegister
                0x00000000       0x34 .\ARM_GCC_493\Debug\PSoC_2_Pi.a(WaveDAC_clk.o)
 .text.WaveDAC_clk_GetModeRegister
                0x00000000       0x20 .\ARM_GCC_493\Debug\PSoC_2_Pi.a(WaveDAC_clk.o)
 .text.WaveDAC_clk_SetSourceRegister
                0x00000000       0xbc .\ARM_GCC_493\Debug\PSoC_2_Pi.a(WaveDAC_clk.o)
 .text.WaveDAC_clk_SetPhaseRegister
                0x00000000       0x24 .\ARM_GCC_493\Debug\PSoC_2_Pi.a(WaveDAC_clk.o)
 .text.WaveDAC_clk_GetPhaseRegister
                0x00000000       0x20 .\ARM_GCC_493\Debug\PSoC_2_Pi.a(WaveDAC_clk.o)
 .text          0x00000000        0x0 .\ARM_GCC_493\Debug\PSoC_2_Pi.a(WaveDAC8_1.o)
 .data          0x00000000        0x0 .\ARM_GCC_493\Debug\PSoC_2_Pi.a(WaveDAC8_1.o)
 .text.WaveDAC8_1_StartEx
                0x00000000       0x34 .\ARM_GCC_493\Debug\PSoC_2_Pi.a(WaveDAC8_1.o)
 .text          0x00000000        0x0 .\ARM_GCC_493\Debug\PSoC_2_Pi.a(WaveDAC8_1_PM.o)
 .data          0x00000000        0x0 .\ARM_GCC_493\Debug\PSoC_2_Pi.a(WaveDAC8_1_PM.o)
 .text          0x00000000        0x0 .\ARM_GCC_493\Debug\PSoC_2_Pi.a(PWM_CLK_4.o)
 .data          0x00000000        0x0 .\ARM_GCC_493\Debug\PSoC_2_Pi.a(PWM_CLK_4.o)
 .bss           0x00000000        0x0 .\ARM_GCC_493\Debug\PSoC_2_Pi.a(PWM_CLK_4.o)
 .text.PWM_CLK_4_Start
                0x00000000       0x34 .\ARM_GCC_493\Debug\PSoC_2_Pi.a(PWM_CLK_4.o)
 .text.PWM_CLK_4_Stop
                0x00000000       0x34 .\ARM_GCC_493\Debug\PSoC_2_Pi.a(PWM_CLK_4.o)
 .text.PWM_CLK_4_StopBlock
                0x00000000       0xb0 .\ARM_GCC_493\Debug\PSoC_2_Pi.a(PWM_CLK_4.o)
 .text.PWM_CLK_4_StandbyPower
                0x00000000       0x40 .\ARM_GCC_493\Debug\PSoC_2_Pi.a(PWM_CLK_4.o)
 .text.PWM_CLK_4_SetModeRegister
                0x00000000       0x34 .\ARM_GCC_493\Debug\PSoC_2_Pi.a(PWM_CLK_4.o)
 .text.PWM_CLK_4_ClearModeRegister
                0x00000000       0x34 .\ARM_GCC_493\Debug\PSoC_2_Pi.a(PWM_CLK_4.o)
 .text.PWM_CLK_4_GetModeRegister
                0x00000000       0x20 .\ARM_GCC_493\Debug\PSoC_2_Pi.a(PWM_CLK_4.o)
 .text.PWM_CLK_4_SetSourceRegister
                0x00000000       0xbc .\ARM_GCC_493\Debug\PSoC_2_Pi.a(PWM_CLK_4.o)
 .text          0x00000000        0x0 .\ARM_GCC_493\Debug\PSoC_2_Pi.a(PWM_3.o)
 .data          0x00000000        0x0 .\ARM_GCC_493\Debug\PSoC_2_Pi.a(PWM_3.o)
 .text          0x00000000        0x0 .\ARM_GCC_493\Debug\PSoC_2_Pi.a(PWM_3_PM.o)
 .data          0x00000000        0x0 .\ARM_GCC_493\Debug\PSoC_2_Pi.a(PWM_3_PM.o)
 .text          0x00000000        0x0 .\ARM_GCC_493\Debug\PSoC_2_Pi.a(PWM_CLK_3.o)
 .data          0x00000000        0x0 .\ARM_GCC_493\Debug\PSoC_2_Pi.a(PWM_CLK_3.o)
 .bss           0x00000000        0x0 .\ARM_GCC_493\Debug\PSoC_2_Pi.a(PWM_CLK_3.o)
 .text.PWM_CLK_3_Start
                0x00000000       0x34 .\ARM_GCC_493\Debug\PSoC_2_Pi.a(PWM_CLK_3.o)
 .text.PWM_CLK_3_Stop
                0x00000000       0x34 .\ARM_GCC_493\Debug\PSoC_2_Pi.a(PWM_CLK_3.o)
 .text.PWM_CLK_3_StopBlock
                0x00000000       0xb0 .\ARM_GCC_493\Debug\PSoC_2_Pi.a(PWM_CLK_3.o)
 .text.PWM_CLK_3_StandbyPower
                0x00000000       0x40 .\ARM_GCC_493\Debug\PSoC_2_Pi.a(PWM_CLK_3.o)
 .text.PWM_CLK_3_SetModeRegister
                0x00000000       0x34 .\ARM_GCC_493\Debug\PSoC_2_Pi.a(PWM_CLK_3.o)
 .text.PWM_CLK_3_ClearModeRegister
                0x00000000       0x34 .\ARM_GCC_493\Debug\PSoC_2_Pi.a(PWM_CLK_3.o)
 .text.PWM_CLK_3_GetModeRegister
                0x00000000       0x20 .\ARM_GCC_493\Debug\PSoC_2_Pi.a(PWM_CLK_3.o)
 .text.PWM_CLK_3_SetSourceRegister
                0x00000000       0xbc .\ARM_GCC_493\Debug\PSoC_2_Pi.a(PWM_CLK_3.o)
 .text          0x00000000        0x0 .\ARM_GCC_493\Debug\PSoC_2_Pi.a(PWM_6.o)
 .data          0x00000000        0x0 .\ARM_GCC_493\Debug\PSoC_2_Pi.a(PWM_6.o)
 .text          0x00000000        0x0 .\ARM_GCC_493\Debug\PSoC_2_Pi.a(PWM_6_PM.o)
 .data          0x00000000        0x0 .\ARM_GCC_493\Debug\PSoC_2_Pi.a(PWM_6_PM.o)
 .text          0x00000000        0x0 .\ARM_GCC_493\Debug\PSoC_2_Pi.a(PWM_5.o)
 .data          0x00000000        0x0 .\ARM_GCC_493\Debug\PSoC_2_Pi.a(PWM_5.o)
 .text          0x00000000        0x0 .\ARM_GCC_493\Debug\PSoC_2_Pi.a(PWM_5_PM.o)
 .data          0x00000000        0x0 .\ARM_GCC_493\Debug\PSoC_2_Pi.a(PWM_5_PM.o)
 .text          0x00000000        0x0 .\ARM_GCC_493\Debug\PSoC_2_Pi.a(PWM_CLK_2.o)
 .data          0x00000000        0x0 .\ARM_GCC_493\Debug\PSoC_2_Pi.a(PWM_CLK_2.o)
 .bss           0x00000000        0x0 .\ARM_GCC_493\Debug\PSoC_2_Pi.a(PWM_CLK_2.o)
 .text.PWM_CLK_2_Start
                0x00000000       0x34 .\ARM_GCC_493\Debug\PSoC_2_Pi.a(PWM_CLK_2.o)
 .text.PWM_CLK_2_Stop
                0x00000000       0x34 .\ARM_GCC_493\Debug\PSoC_2_Pi.a(PWM_CLK_2.o)
 .text.PWM_CLK_2_StopBlock
                0x00000000       0xb0 .\ARM_GCC_493\Debug\PSoC_2_Pi.a(PWM_CLK_2.o)
 .text.PWM_CLK_2_StandbyPower
                0x00000000       0x40 .\ARM_GCC_493\Debug\PSoC_2_Pi.a(PWM_CLK_2.o)
 .text.PWM_CLK_2_SetModeRegister
                0x00000000       0x34 .\ARM_GCC_493\Debug\PSoC_2_Pi.a(PWM_CLK_2.o)
 .text.PWM_CLK_2_ClearModeRegister
                0x00000000       0x34 .\ARM_GCC_493\Debug\PSoC_2_Pi.a(PWM_CLK_2.o)
 .text.PWM_CLK_2_GetModeRegister
                0x00000000       0x20 .\ARM_GCC_493\Debug\PSoC_2_Pi.a(PWM_CLK_2.o)
 .text.PWM_CLK_2_SetSourceRegister
                0x00000000       0xbc .\ARM_GCC_493\Debug\PSoC_2_Pi.a(PWM_CLK_2.o)
 .text          0x00000000        0x0 .\ARM_GCC_493\Debug\PSoC_2_Pi.a(PWM_4.o)
 .data          0x00000000        0x0 .\ARM_GCC_493\Debug\PSoC_2_Pi.a(PWM_4.o)
 .text          0x00000000        0x0 .\ARM_GCC_493\Debug\PSoC_2_Pi.a(PWM_4_PM.o)
 .data          0x00000000        0x0 .\ARM_GCC_493\Debug\PSoC_2_Pi.a(PWM_4_PM.o)
 .text          0x00000000        0x0 .\ARM_GCC_493\Debug\PSoC_2_Pi.a(GPIO_5_6.o)
 .data          0x00000000        0x0 .\ARM_GCC_493\Debug\PSoC_2_Pi.a(GPIO_5_6.o)
 .bss           0x00000000        0x0 .\ARM_GCC_493\Debug\PSoC_2_Pi.a(GPIO_5_6.o)
 .text.GPIO_5_6_ReadDataReg
                0x00000000       0x20 .\ARM_GCC_493\Debug\PSoC_2_Pi.a(GPIO_5_6.o)
 .text          0x00000000        0x0 .\ARM_GCC_493\Debug\PSoC_2_Pi.a(GPIO_5_7.o)
 .data          0x00000000        0x0 .\ARM_GCC_493\Debug\PSoC_2_Pi.a(GPIO_5_7.o)
 .bss           0x00000000        0x0 .\ARM_GCC_493\Debug\PSoC_2_Pi.a(GPIO_5_7.o)
 .text.GPIO_5_7_ReadDataReg
                0x00000000       0x1c .\ARM_GCC_493\Debug\PSoC_2_Pi.a(GPIO_5_7.o)
 .text          0x00000000        0x0 .\ARM_GCC_493\Debug\PSoC_2_Pi.a(StripLights.o)
 .data          0x00000000        0x0 .\ARM_GCC_493\Debug\PSoC_2_Pi.a(StripLights.o)
 .rodata        0x00000000      0x178 .\ARM_GCC_493\Debug\PSoC_2_Pi.a(StripLights.o)
 .text.StripLights_ColorInc
                0x00000000       0x54 .\ARM_GCC_493\Debug\PSoC_2_Pi.a(StripLights.o)
 .text.StripLights_DisplayClear
                0x00000000       0x1c .\ARM_GCC_493\Debug\PSoC_2_Pi.a(StripLights.o)
 .text.StripLights_WriteColor
                0x00000000       0x50 .\ARM_GCC_493\Debug\PSoC_2_Pi.a(StripLights.o)
 .text.StripLights_DrawCircle
                0x00000000      0x160 .\ARM_GCC_493\Debug\PSoC_2_Pi.a(StripLights.o)
 .text.StripLights_DrawLine
                0x00000000       0xfc .\ARM_GCC_493\Debug\PSoC_2_Pi.a(StripLights.o)
 .text.StripLights_DrawRect
                0x00000000       0xac .\ARM_GCC_493\Debug\PSoC_2_Pi.a(StripLights.o)
 .text          0x00000000        0x0 .\ARM_GCC_493\Debug\PSoC_2_Pi.a(StripLights_fonts.o)
 .data          0x00000000        0x0 .\ARM_GCC_493\Debug\PSoC_2_Pi.a(StripLights_fonts.o)
 .bss           0x00000000        0x0 .\ARM_GCC_493\Debug\PSoC_2_Pi.a(StripLights_fonts.o)
 .text.StripLights_PrintString
                0x00000000      0x104 .\ARM_GCC_493\Debug\PSoC_2_Pi.a(StripLights_fonts.o)
 .text.StripLights_PutChar
                0x00000000       0xf0 .\ARM_GCC_493\Debug\PSoC_2_Pi.a(StripLights_fonts.o)
 .text          0x00000000        0x0 .\ARM_GCC_493\Debug\PSoC_2_Pi.a(ADC_SAR_Seq_1.o)
 .data          0x00000000        0x0 .\ARM_GCC_493\Debug\PSoC_2_Pi.a(ADC_SAR_Seq_1.o)
 .text.ADC_SAR_Seq_1_GetAdcResult
                0x00000000       0x10 .\ARM_GCC_493\Debug\PSoC_2_Pi.a(ADC_SAR_Seq_1.o)
 .text.ADC_SAR_Seq_1_SetGain
                0x00000000       0x1c .\ARM_GCC_493\Debug\PSoC_2_Pi.a(ADC_SAR_Seq_1.o)
 .text.ADC_SAR_Seq_1_SetScaledGain
                0x00000000       0x14 .\ARM_GCC_493\Debug\PSoC_2_Pi.a(ADC_SAR_Seq_1.o)
 .text.ADC_SAR_Seq_1_CountsTo_mVolts
                0x00000000       0x20 .\ARM_GCC_493\Debug\PSoC_2_Pi.a(ADC_SAR_Seq_1.o)
 .text.ADC_SAR_Seq_1_CountsTo_Volts
                0x00000000       0x20 .\ARM_GCC_493\Debug\PSoC_2_Pi.a(ADC_SAR_Seq_1.o)
 .text          0x00000000        0x0 .\ARM_GCC_493\Debug\PSoC_2_Pi.a(ADC_SAR_Seq_1_INT.o)
 .data          0x00000000        0x0 .\ARM_GCC_493\Debug\PSoC_2_Pi.a(ADC_SAR_Seq_1_INT.o)
 .bss           0x00000000        0x0 .\ARM_GCC_493\Debug\PSoC_2_Pi.a(ADC_SAR_Seq_1_INT.o)
 .text          0x00000000        0x0 .\ARM_GCC_493\Debug\PSoC_2_Pi.a(Timer.o)
 .data          0x00000000        0x0 .\ARM_GCC_493\Debug\PSoC_2_Pi.a(Timer.o)
 .text.Timer_SoftwareCapture
                0x00000000       0x14 .\ARM_GCC_493\Debug\PSoC_2_Pi.a(Timer.o)
 .text.Timer_ReadControlRegister
                0x00000000       0x18 .\ARM_GCC_493\Debug\PSoC_2_Pi.a(Timer.o)
 .text.Timer_WriteControlRegister
                0x00000000       0x20 .\ARM_GCC_493\Debug\PSoC_2_Pi.a(Timer.o)
 .text.Timer_ReadCapture
                0x00000000       0x18 .\ARM_GCC_493\Debug\PSoC_2_Pi.a(Timer.o)
 .text          0x00000000        0x0 .\ARM_GCC_493\Debug\PSoC_2_Pi.a(TIMER_REG.o)
 .data          0x00000000        0x0 .\ARM_GCC_493\Debug\PSoC_2_Pi.a(TIMER_REG.o)
 .bss           0x00000000        0x0 .\ARM_GCC_493\Debug\PSoC_2_Pi.a(TIMER_REG.o)
 .text.TIMER_REG_Read
                0x00000000       0x18 .\ARM_GCC_493\Debug\PSoC_2_Pi.a(TIMER_REG.o)
 .text          0x00000000        0x0 .\ARM_GCC_493\Debug\PSoC_2_Pi.a(GPIO_12_1.o)
 .data          0x00000000        0x0 .\ARM_GCC_493\Debug\PSoC_2_Pi.a(GPIO_12_1.o)
 .bss           0x00000000        0x0 .\ARM_GCC_493\Debug\PSoC_2_Pi.a(GPIO_12_1.o)
 .text.GPIO_12_1_ReadDataReg
                0x00000000       0x20 .\ARM_GCC_493\Debug\PSoC_2_Pi.a(GPIO_12_1.o)
 .text          0x00000000        0x0 .\ARM_GCC_493\Debug\PSoC_2_Pi.a(PWM_8.o)
 .data          0x00000000        0x0 .\ARM_GCC_493\Debug\PSoC_2_Pi.a(PWM_8.o)
 .text          0x00000000        0x0 .\ARM_GCC_493\Debug\PSoC_2_Pi.a(PWM_8_PM.o)
 .data          0x00000000        0x0 .\ARM_GCC_493\Debug\PSoC_2_Pi.a(PWM_8_PM.o)
 .text          0x00000000        0x0 .\ARM_GCC_493\Debug\PSoC_2_Pi.a(CapSense_1_CompCH0.o)
 .data          0x00000000        0x0 .\ARM_GCC_493\Debug\PSoC_2_Pi.a(CapSense_1_CompCH0.o)
 .bss           0x00000000        0x1 .\ARM_GCC_493\Debug\PSoC_2_Pi.a(CapSense_1_CompCH0.o)
 .text.CapSense_1_CompCH0_Start
                0x00000000       0x20 .\ARM_GCC_493\Debug\PSoC_2_Pi.a(CapSense_1_CompCH0.o)
 .text.CapSense_1_CompCH0_GetCompare
                0x00000000       0x20 .\ARM_GCC_493\Debug\PSoC_2_Pi.a(CapSense_1_CompCH0.o)
 .text.CapSense_1_CompCH0_trimAdjust
                0x00000000       0xbc .\ARM_GCC_493\Debug\PSoC_2_Pi.a(CapSense_1_CompCH0.o)
 .text.CapSense_1_CompCH0_ZeroCal
                0x00000000       0xc4 .\ARM_GCC_493\Debug\PSoC_2_Pi.a(CapSense_1_CompCH0.o)
 .text.CapSense_1_CompCH0_LoadTrim
                0x00000000       0x30 .\ARM_GCC_493\Debug\PSoC_2_Pi.a(CapSense_1_CompCH0.o)
 .text.CapSense_1_CompCH0_PwrDwnOverrideEnable
                0x00000000       0x20 .\ARM_GCC_493\Debug\PSoC_2_Pi.a(CapSense_1_CompCH0.o)
 .text.CapSense_1_CompCH0_PwrDwnOverrideDisable
                0x00000000       0x20 .\ARM_GCC_493\Debug\PSoC_2_Pi.a(CapSense_1_CompCH0.o)
 .text          0x00000000        0x0 .\ARM_GCC_493\Debug\PSoC_2_Pi.a(CapSense_1_IdacCH0.o)
 .data          0x00000000        0x0 .\ARM_GCC_493\Debug\PSoC_2_Pi.a(CapSense_1_IdacCH0.o)
 .bss           0x00000000        0x1 .\ARM_GCC_493\Debug\PSoC_2_Pi.a(CapSense_1_IdacCH0.o)
 .text.CapSense_1_IdacCH0_Start
                0x00000000       0x28 .\ARM_GCC_493\Debug\PSoC_2_Pi.a(CapSense_1_IdacCH0.o)
 .text          0x00000000        0x0 .\ARM_GCC_493\Debug\PSoC_2_Pi.a(CapSense_1_AMuxCH0.o)
 .data          0x00000000        0x1 .\ARM_GCC_493\Debug\PSoC_2_Pi.a(CapSense_1_AMuxCH0.o)
 .bss           0x00000000        0x1 .\ARM_GCC_493\Debug\PSoC_2_Pi.a(CapSense_1_AMuxCH0.o)
 .text.CapSense_1_AMuxCH0_Start
                0x00000000       0x14 .\ARM_GCC_493\Debug\PSoC_2_Pi.a(CapSense_1_AMuxCH0.o)
 .text.CapSense_1_AMuxCH0_Stop
                0x00000000        0xc .\ARM_GCC_493\Debug\PSoC_2_Pi.a(CapSense_1_AMuxCH0.o)
 .text.CapSense_1_AMuxCH0_Select
                0x00000000       0x28 .\ARM_GCC_493\Debug\PSoC_2_Pi.a(CapSense_1_AMuxCH0.o)
 .text.CapSense_1_AMuxCH0_FastSelect
                0x00000000       0x34 .\ARM_GCC_493\Debug\PSoC_2_Pi.a(CapSense_1_AMuxCH0.o)
 .text          0x00000000        0x0 .\ARM_GCC_493\Debug\PSoC_2_Pi.a(CapSense_1_IntClock.o)
 .data          0x00000000        0x0 .\ARM_GCC_493\Debug\PSoC_2_Pi.a(CapSense_1_IntClock.o)
 .bss           0x00000000        0x0 .\ARM_GCC_493\Debug\PSoC_2_Pi.a(CapSense_1_IntClock.o)
 .text.CapSense_1_IntClock_StopBlock
                0x00000000       0xb0 .\ARM_GCC_493\Debug\PSoC_2_Pi.a(CapSense_1_IntClock.o)
 .text.CapSense_1_IntClock_StandbyPower
                0x00000000       0x40 .\ARM_GCC_493\Debug\PSoC_2_Pi.a(CapSense_1_IntClock.o)
 .text.CapSense_1_IntClock_SetDividerRegister
                0x00000000      0x160 .\ARM_GCC_493\Debug\PSoC_2_Pi.a(CapSense_1_IntClock.o)
 .text.CapSense_1_IntClock_GetDividerRegister
                0x00000000       0x18 .\ARM_GCC_493\Debug\PSoC_2_Pi.a(CapSense_1_IntClock.o)
 .text.CapSense_1_IntClock_SetModeRegister
                0x00000000       0x34 .\ARM_GCC_493\Debug\PSoC_2_Pi.a(CapSense_1_IntClock.o)
 .text.CapSense_1_IntClock_ClearModeRegister
                0x00000000       0x34 .\ARM_GCC_493\Debug\PSoC_2_Pi.a(CapSense_1_IntClock.o)
 .text.CapSense_1_IntClock_GetModeRegister
                0x00000000       0x20 .\ARM_GCC_493\Debug\PSoC_2_Pi.a(CapSense_1_IntClock.o)
 .text.CapSense_1_IntClock_SetSourceRegister
                0x00000000       0xbc .\ARM_GCC_493\Debug\PSoC_2_Pi.a(CapSense_1_IntClock.o)
 .text.CapSense_1_IntClock_GetSourceRegister
                0x00000000       0x20 .\ARM_GCC_493\Debug\PSoC_2_Pi.a(CapSense_1_IntClock.o)
 .text          0x00000000        0x0 .\ARM_GCC_493\Debug\PSoC_2_Pi.a(WaveDAC8_1_Wave1_DMA_dma.o)
 .bss           0x00000000        0x0 .\ARM_GCC_493\Debug\PSoC_2_Pi.a(WaveDAC8_1_Wave1_DMA_dma.o)
 .text.WaveDAC8_1_Wave1_DMA_DmaRelease
                0x00000000       0x14 .\ARM_GCC_493\Debug\PSoC_2_Pi.a(WaveDAC8_1_Wave1_DMA_dma.o)
 .text          0x00000000        0x0 .\ARM_GCC_493\Debug\PSoC_2_Pi.a(WaveDAC8_1_Wave2_DMA_dma.o)
 .bss           0x00000000        0x0 .\ARM_GCC_493\Debug\PSoC_2_Pi.a(WaveDAC8_1_Wave2_DMA_dma.o)
 .text.WaveDAC8_1_Wave2_DMA_DmaRelease
                0x00000000       0x14 .\ARM_GCC_493\Debug\PSoC_2_Pi.a(WaveDAC8_1_Wave2_DMA_dma.o)
 .text          0x00000000        0x0 .\ARM_GCC_493\Debug\PSoC_2_Pi.a(WaveDAC8_1_VDAC8.o)
 .data          0x00000000        0x0 .\ARM_GCC_493\Debug\PSoC_2_Pi.a(WaveDAC8_1_VDAC8.o)
 .bss           0x00000000        0x1 .\ARM_GCC_493\Debug\PSoC_2_Pi.a(WaveDAC8_1_VDAC8.o)
 .text.WaveDAC8_1_VDAC8_Start
                0x00000000       0x28 .\ARM_GCC_493\Debug\PSoC_2_Pi.a(WaveDAC8_1_VDAC8.o)
 .text          0x00000000        0x0 .\ARM_GCC_493\Debug\PSoC_2_Pi.a(WaveDAC8_1_VDAC8_PM.o)
 .data          0x00000000        0x0 .\ARM_GCC_493\Debug\PSoC_2_Pi.a(WaveDAC8_1_VDAC8_PM.o)
 .text.WaveDAC8_1_VDAC8_Sleep
                0x00000000       0x34 .\ARM_GCC_493\Debug\PSoC_2_Pi.a(WaveDAC8_1_VDAC8_PM.o)
 .text.WaveDAC8_1_VDAC8_Wakeup
                0x00000000       0x2c .\ARM_GCC_493\Debug\PSoC_2_Pi.a(WaveDAC8_1_VDAC8_PM.o)
 .text          0x00000000        0x0 .\ARM_GCC_493\Debug\PSoC_2_Pi.a(WaveDAC8_1_BuffAmp.o)
 .data          0x00000000        0x0 .\ARM_GCC_493\Debug\PSoC_2_Pi.a(WaveDAC8_1_BuffAmp.o)
 .bss           0x00000000        0x1 .\ARM_GCC_493\Debug\PSoC_2_Pi.a(WaveDAC8_1_BuffAmp.o)
 .text.WaveDAC8_1_BuffAmp_Start
                0x00000000       0x20 .\ARM_GCC_493\Debug\PSoC_2_Pi.a(WaveDAC8_1_BuffAmp.o)
 .text.WaveDAC8_1_BuffAmp_Stop
                0x00000000       0x54 .\ARM_GCC_493\Debug\PSoC_2_Pi.a(WaveDAC8_1_BuffAmp.o)
 .text          0x00000000        0x0 .\ARM_GCC_493\Debug\PSoC_2_Pi.a(StripLights_isr.o)
 .data          0x00000000        0x0 .\ARM_GCC_493\Debug\PSoC_2_Pi.a(StripLights_isr.o)
 .bss           0x00000000        0x0 .\ARM_GCC_493\Debug\PSoC_2_Pi.a(StripLights_isr.o)
 .text.StripLights_isr_Start
                0x00000000       0x20 .\ARM_GCC_493\Debug\PSoC_2_Pi.a(StripLights_isr.o)
 .text.StripLights_isr_Stop
                0x00000000       0x14 .\ARM_GCC_493\Debug\PSoC_2_Pi.a(StripLights_isr.o)
 .text.StripLights_isr_Interrupt
                0x00000000        0xc .\ARM_GCC_493\Debug\PSoC_2_Pi.a(StripLights_isr.o)
 .text.StripLights_isr_GetVector
                0x00000000       0x20 .\ARM_GCC_493\Debug\PSoC_2_Pi.a(StripLights_isr.o)
 .text.StripLights_isr_GetPriority
                0x00000000       0x24 .\ARM_GCC_493\Debug\PSoC_2_Pi.a(StripLights_isr.o)
 .text.StripLights_isr_GetState
                0x00000000       0x24 .\ARM_GCC_493\Debug\PSoC_2_Pi.a(StripLights_isr.o)
 .text.StripLights_isr_SetPending
                0x00000000       0x18 .\ARM_GCC_493\Debug\PSoC_2_Pi.a(StripLights_isr.o)
 .text.StripLights_isr_ClearPending
                0x00000000       0x18 .\ARM_GCC_493\Debug\PSoC_2_Pi.a(StripLights_isr.o)
 .text          0x00000000        0x0 .\ARM_GCC_493\Debug\PSoC_2_Pi.a(ADC_SAR_Seq_1_SAR.o)
 .data          0x00000000        0x0 .\ARM_GCC_493\Debug\PSoC_2_Pi.a(ADC_SAR_Seq_1_SAR.o)
 .text.ADC_SAR_Seq_1_SAR_SetPower
                0x00000000       0x40 .\ARM_GCC_493\Debug\PSoC_2_Pi.a(ADC_SAR_Seq_1_SAR.o)
 .text.ADC_SAR_Seq_1_SAR_IsEndConversion
                0x00000000       0x40 .\ARM_GCC_493\Debug\PSoC_2_Pi.a(ADC_SAR_Seq_1_SAR.o)
 .text.ADC_SAR_Seq_1_SAR_GetResult8
                0x00000000       0x2c .\ARM_GCC_493\Debug\PSoC_2_Pi.a(ADC_SAR_Seq_1_SAR.o)
 .text.ADC_SAR_Seq_1_SAR_GetResult16
                0x00000000       0x34 .\ARM_GCC_493\Debug\PSoC_2_Pi.a(ADC_SAR_Seq_1_SAR.o)
 .text.ADC_SAR_Seq_1_SAR_SetGain
                0x00000000       0x2c .\ARM_GCC_493\Debug\PSoC_2_Pi.a(ADC_SAR_Seq_1_SAR.o)
 .text.ADC_SAR_Seq_1_SAR_SetScaledGain
                0x00000000       0x1c .\ARM_GCC_493\Debug\PSoC_2_Pi.a(ADC_SAR_Seq_1_SAR.o)
 .text.ADC_SAR_Seq_1_SAR_CountsTo_mVolts
                0x00000000       0x8c .\ARM_GCC_493\Debug\PSoC_2_Pi.a(ADC_SAR_Seq_1_SAR.o)
 .text.ADC_SAR_Seq_1_SAR_CountsTo_Volts
                0x00000000       0x84 .\ARM_GCC_493\Debug\PSoC_2_Pi.a(ADC_SAR_Seq_1_SAR.o)
 .text          0x00000000        0x0 .\ARM_GCC_493\Debug\PSoC_2_Pi.a(ADC_SAR_Seq_1_TempBuf_dma.o)
 .bss           0x00000000        0x0 .\ARM_GCC_493\Debug\PSoC_2_Pi.a(ADC_SAR_Seq_1_TempBuf_dma.o)
 .text.ADC_SAR_Seq_1_TempBuf_DmaRelease
                0x00000000       0x14 .\ARM_GCC_493\Debug\PSoC_2_Pi.a(ADC_SAR_Seq_1_TempBuf_dma.o)
 .text          0x00000000        0x0 .\ARM_GCC_493\Debug\PSoC_2_Pi.a(ADC_SAR_Seq_1_FinalBuf_dma.o)
 .bss           0x00000000        0x0 .\ARM_GCC_493\Debug\PSoC_2_Pi.a(ADC_SAR_Seq_1_FinalBuf_dma.o)
 .text.ADC_SAR_Seq_1_FinalBuf_DmaRelease
                0x00000000       0x14 .\ARM_GCC_493\Debug\PSoC_2_Pi.a(ADC_SAR_Seq_1_FinalBuf_dma.o)
 .text          0x00000000        0x0 .\ARM_GCC_493\Debug\PSoC_2_Pi.a(ADC_SAR_Seq_1_IRQ.o)
 .data          0x00000000        0x0 .\ARM_GCC_493\Debug\PSoC_2_Pi.a(ADC_SAR_Seq_1_IRQ.o)
 .bss           0x00000000        0x0 .\ARM_GCC_493\Debug\PSoC_2_Pi.a(ADC_SAR_Seq_1_IRQ.o)
 .text.ADC_SAR_Seq_1_IRQ_Start
                0x00000000       0x20 .\ARM_GCC_493\Debug\PSoC_2_Pi.a(ADC_SAR_Seq_1_IRQ.o)
 .text.ADC_SAR_Seq_1_IRQ_StartEx
                0x00000000       0x24 .\ARM_GCC_493\Debug\PSoC_2_Pi.a(ADC_SAR_Seq_1_IRQ.o)
 .text.ADC_SAR_Seq_1_IRQ_Stop
                0x00000000       0x14 .\ARM_GCC_493\Debug\PSoC_2_Pi.a(ADC_SAR_Seq_1_IRQ.o)
 .text.ADC_SAR_Seq_1_IRQ_Interrupt
                0x00000000        0xc .\ARM_GCC_493\Debug\PSoC_2_Pi.a(ADC_SAR_Seq_1_IRQ.o)
 .text.ADC_SAR_Seq_1_IRQ_GetVector
                0x00000000       0x20 .\ARM_GCC_493\Debug\PSoC_2_Pi.a(ADC_SAR_Seq_1_IRQ.o)
 .text.ADC_SAR_Seq_1_IRQ_GetPriority
                0x00000000       0x24 .\ARM_GCC_493\Debug\PSoC_2_Pi.a(ADC_SAR_Seq_1_IRQ.o)
 .text.ADC_SAR_Seq_1_IRQ_Enable
                0x00000000       0x18 .\ARM_GCC_493\Debug\PSoC_2_Pi.a(ADC_SAR_Seq_1_IRQ.o)
 .text.ADC_SAR_Seq_1_IRQ_GetState
                0x00000000       0x20 .\ARM_GCC_493\Debug\PSoC_2_Pi.a(ADC_SAR_Seq_1_IRQ.o)
 .text.ADC_SAR_Seq_1_IRQ_Disable
                0x00000000       0x18 .\ARM_GCC_493\Debug\PSoC_2_Pi.a(ADC_SAR_Seq_1_IRQ.o)
 .text.ADC_SAR_Seq_1_IRQ_SetPending
                0x00000000       0x18 .\ARM_GCC_493\Debug\PSoC_2_Pi.a(ADC_SAR_Seq_1_IRQ.o)
 .text.ADC_SAR_Seq_1_IRQ_ClearPending
                0x00000000       0x18 .\ARM_GCC_493\Debug\PSoC_2_Pi.a(ADC_SAR_Seq_1_IRQ.o)
 .data          0x00000000        0x0 .\ARM_GCC_493\Debug\PSoC_2_Pi.a(CyBootAsmGnu.o)
 .bss           0x00000000        0x0 .\ARM_GCC_493\Debug\PSoC_2_Pi.a(CyBootAsmGnu.o)
 .text          0x00000000        0x0 .\ARM_GCC_493\Debug\PSoC_2_Pi.a(CyDmac.o)
 .bss           0x00000000        0x0 .\ARM_GCC_493\Debug\PSoC_2_Pi.a(CyDmac.o)
 .text.CyDmacError
                0x00000000       0x20 .\ARM_GCC_493\Debug\PSoC_2_Pi.a(CyDmac.o)
 .text.CyDmacClearError
                0x00000000       0x24 .\ARM_GCC_493\Debug\PSoC_2_Pi.a(CyDmac.o)
 .text.CyDmacErrorAddress
                0x00000000       0x18 .\ARM_GCC_493\Debug\PSoC_2_Pi.a(CyDmac.o)
 .text.CyDmaChAlloc
                0x00000000       0x64 .\ARM_GCC_493\Debug\PSoC_2_Pi.a(CyDmac.o)
 .text.CyDmaChFree
                0x00000000       0x4c .\ARM_GCC_493\Debug\PSoC_2_Pi.a(CyDmac.o)
 .text.CyDmaClearPendingDrq
                0x00000000       0x64 .\ARM_GCC_493\Debug\PSoC_2_Pi.a(CyDmac.o)
 .text.CyDmaChGetRequest
                0x00000000       0x38 .\ARM_GCC_493\Debug\PSoC_2_Pi.a(CyDmac.o)
 .text.CyDmaChStatus
                0x00000000       0x60 .\ARM_GCC_493\Debug\PSoC_2_Pi.a(CyDmac.o)
 .text.CyDmaTdFreeCount
                0x00000000       0x1c .\ARM_GCC_493\Debug\PSoC_2_Pi.a(CyDmac.o)
 .text.CyDmaTdGetConfiguration
                0x00000000       0x88 .\ARM_GCC_493\Debug\PSoC_2_Pi.a(CyDmac.o)
 .text.CyDmaTdGetAddress
                0x00000000       0x6c .\ARM_GCC_493\Debug\PSoC_2_Pi.a(CyDmac.o)
 .text.CyDmaChRoundRobin
                0x00000000       0x70 .\ARM_GCC_493\Debug\PSoC_2_Pi.a(CyDmac.o)
 .text          0x00000000        0x0 .\ARM_GCC_493\Debug\PSoC_2_Pi.a(CyFlash.o)
 .data          0x00000000        0x0 .\ARM_GCC_493\Debug\PSoC_2_Pi.a(CyFlash.o)
 .bss           0x00000000        0x4 .\ARM_GCC_493\Debug\PSoC_2_Pi.a(CyFlash.o)
 .text.CyFlash_Start
                0x00000000       0x8c .\ARM_GCC_493\Debug\PSoC_2_Pi.a(CyFlash.o)
 .text.CyFlash_Stop
                0x00000000       0x44 .\ARM_GCC_493\Debug\PSoC_2_Pi.a(CyFlash.o)
 .text.CySetTempInt
                0x00000000       0x7c .\ARM_GCC_493\Debug\PSoC_2_Pi.a(CyFlash.o)
 .text.CyFlashGetSpcAlgorithm
                0x00000000       0x70 .\ARM_GCC_493\Debug\PSoC_2_Pi.a(CyFlash.o)
 .text.CySetTemp
                0x00000000       0x24 .\ARM_GCC_493\Debug\PSoC_2_Pi.a(CyFlash.o)
 .text.CySetFlashEEBuffer
                0x00000000       0x54 .\ARM_GCC_493\Debug\PSoC_2_Pi.a(CyFlash.o)
 .text.CyWriteRowData
                0x00000000       0x3c .\ARM_GCC_493\Debug\PSoC_2_Pi.a(CyFlash.o)
 .text.CyWriteRowFull
                0x00000000      0x158 .\ARM_GCC_493\Debug\PSoC_2_Pi.a(CyFlash.o)
 .text.CyFlash_SetWaitCycles
                0x00000000       0xbc .\ARM_GCC_493\Debug\PSoC_2_Pi.a(CyFlash.o)
 .text.CyEEPROM_Stop
                0x00000000       0x44 .\ARM_GCC_493\Debug\PSoC_2_Pi.a(CyFlash.o)
 .text.CyEEPROM_ReadReserve
                0x00000000       0x30 .\ARM_GCC_493\Debug\PSoC_2_Pi.a(CyFlash.o)
 .text.CyEEPROM_ReadRelease
                0x00000000       0x20 .\ARM_GCC_493\Debug\PSoC_2_Pi.a(CyFlash.o)
 .text          0x00000000        0x0 .\ARM_GCC_493\Debug\PSoC_2_Pi.a(CyLib.o)
 .bss           0x00000000       0x18 .\ARM_GCC_493\Debug\PSoC_2_Pi.a(CyLib.o)
 .text.CyPLL_OUT_Start
                0x00000000       0xb0 .\ARM_GCC_493\Debug\PSoC_2_Pi.a(CyLib.o)
 .text.CyPLL_OUT_Stop
                0x00000000       0x20 .\ARM_GCC_493\Debug\PSoC_2_Pi.a(CyLib.o)
 .text.CyPLL_OUT_SetPQ
                0x00000000       0x90 .\ARM_GCC_493\Debug\PSoC_2_Pi.a(CyLib.o)
 .text.CyPLL_OUT_SetSource
                0x00000000       0x54 .\ARM_GCC_493\Debug\PSoC_2_Pi.a(CyLib.o)
 .text.CyIMO_Start
                0x00000000       0x94 .\ARM_GCC_493\Debug\PSoC_2_Pi.a(CyLib.o)
 .text.CyIMO_Stop
                0x00000000       0x34 .\ARM_GCC_493\Debug\PSoC_2_Pi.a(CyLib.o)
 .text.CyUSB_PowerOnCheck
                0x00000000       0x60 .\ARM_GCC_493\Debug\PSoC_2_Pi.a(CyLib.o)
 .text.CyIMO_SetTrimValue
                0x00000000      0x108 .\ARM_GCC_493\Debug\PSoC_2_Pi.a(CyLib.o)
 .text.CyIMO_SetFreq
                0x00000000      0x1ac .\ARM_GCC_493\Debug\PSoC_2_Pi.a(CyLib.o)
 .text.CyIMO_SetSource
                0x00000000       0x8c .\ARM_GCC_493\Debug\PSoC_2_Pi.a(CyLib.o)
 .text.CyIMO_EnableDoubler
                0x00000000       0x20 .\ARM_GCC_493\Debug\PSoC_2_Pi.a(CyLib.o)
 .text.CyIMO_DisableDoubler
                0x00000000       0x20 .\ARM_GCC_493\Debug\PSoC_2_Pi.a(CyLib.o)
 .text.CyMasterClk_SetSource
                0x00000000       0x34 .\ARM_GCC_493\Debug\PSoC_2_Pi.a(CyLib.o)
 .text.CyMasterClk_SetDivider
                0x00000000       0x20 .\ARM_GCC_493\Debug\PSoC_2_Pi.a(CyLib.o)
 .text.CyBusClk_Internal_SetDivider
                0x00000000       0x78 .\ARM_GCC_493\Debug\PSoC_2_Pi.a(CyLib.o)
 .text.CyBusClk_SetDivider
                0x00000000       0xb4 .\ARM_GCC_493\Debug\PSoC_2_Pi.a(CyLib.o)
 .text.CyUsbClk_SetSource
                0x00000000       0x34 .\ARM_GCC_493\Debug\PSoC_2_Pi.a(CyLib.o)
 .text.CyILO_Start1K
                0x00000000       0x20 .\ARM_GCC_493\Debug\PSoC_2_Pi.a(CyLib.o)
 .text.CyILO_Stop1K
                0x00000000       0x20 .\ARM_GCC_493\Debug\PSoC_2_Pi.a(CyLib.o)
 .text.CyILO_Start100K
                0x00000000       0x20 .\ARM_GCC_493\Debug\PSoC_2_Pi.a(CyLib.o)
 .text.CyILO_Stop100K
                0x00000000       0x20 .\ARM_GCC_493\Debug\PSoC_2_Pi.a(CyLib.o)
 .text.CyILO_Enable33K
                0x00000000       0x20 .\ARM_GCC_493\Debug\PSoC_2_Pi.a(CyLib.o)
 .text.CyILO_Disable33K
                0x00000000       0x20 .\ARM_GCC_493\Debug\PSoC_2_Pi.a(CyLib.o)
 .text.CyILO_SetSource
                0x00000000       0x38 .\ARM_GCC_493\Debug\PSoC_2_Pi.a(CyLib.o)
 .text.CyILO_SetPowerMode
                0x00000000       0x4c .\ARM_GCC_493\Debug\PSoC_2_Pi.a(CyLib.o)
 .text.CyXTAL_32KHZ_Start
                0x00000000       0x84 .\ARM_GCC_493\Debug\PSoC_2_Pi.a(CyLib.o)
 .text.CyXTAL_32KHZ_Stop
                0x00000000       0x50 .\ARM_GCC_493\Debug\PSoC_2_Pi.a(CyLib.o)
 .text.CyXTAL_32KHZ_ReadStatus
                0x00000000       0x20 .\ARM_GCC_493\Debug\PSoC_2_Pi.a(CyLib.o)
 .text.CyXTAL_32KHZ_SetPowerMode
                0x00000000       0xb4 .\ARM_GCC_493\Debug\PSoC_2_Pi.a(CyLib.o)
 .text.CyXTAL_Start
                0x00000000       0xd0 .\ARM_GCC_493\Debug\PSoC_2_Pi.a(CyLib.o)
 .text.CyXTAL_Stop
                0x00000000       0x20 .\ARM_GCC_493\Debug\PSoC_2_Pi.a(CyLib.o)
 .text.CyXTAL_EnableErrStatus
                0x00000000       0x20 .\ARM_GCC_493\Debug\PSoC_2_Pi.a(CyLib.o)
 .text.CyXTAL_DisableErrStatus
                0x00000000       0x20 .\ARM_GCC_493\Debug\PSoC_2_Pi.a(CyLib.o)
 .text.CyXTAL_ReadStatus
                0x00000000       0x28 .\ARM_GCC_493\Debug\PSoC_2_Pi.a(CyLib.o)
 .text.CyXTAL_EnableFaultRecovery
                0x00000000       0x20 .\ARM_GCC_493\Debug\PSoC_2_Pi.a(CyLib.o)
 .text.CyXTAL_DisableFaultRecovery
                0x00000000       0x20 .\ARM_GCC_493\Debug\PSoC_2_Pi.a(CyLib.o)
 .text.CyXTAL_SetStartup
                0x00000000       0x34 .\ARM_GCC_493\Debug\PSoC_2_Pi.a(CyLib.o)
 .text.CyXTAL_SetFbVoltage
                0x00000000       0x34 .\ARM_GCC_493\Debug\PSoC_2_Pi.a(CyLib.o)
 .text.CyXTAL_SetWdVoltage
                0x00000000       0x38 .\ARM_GCC_493\Debug\PSoC_2_Pi.a(CyLib.o)
 .text.CyDelay  0x00000000       0x44 .\ARM_GCC_493\Debug\PSoC_2_Pi.a(CyLib.o)
 .text.CyDelayFreq
                0x00000000       0x7c .\ARM_GCC_493\Debug\PSoC_2_Pi.a(CyLib.o)
 .text.CyWdtStart
                0x00000000       0x8c .\ARM_GCC_493\Debug\PSoC_2_Pi.a(CyLib.o)
 .text.CyWdtClear
                0x00000000       0x18 .\ARM_GCC_493\Debug\PSoC_2_Pi.a(CyLib.o)
 .text.CyVdLvDigitEnable
                0x00000000       0xb4 .\ARM_GCC_493\Debug\PSoC_2_Pi.a(CyLib.o)
 .text.CyVdLvAnalogEnable
                0x00000000       0xb0 .\ARM_GCC_493\Debug\PSoC_2_Pi.a(CyLib.o)
 .text.CyVdLvDigitDisable
                0x00000000       0x48 .\ARM_GCC_493\Debug\PSoC_2_Pi.a(CyLib.o)
 .text.CyVdLvAnalogDisable
                0x00000000       0x48 .\ARM_GCC_493\Debug\PSoC_2_Pi.a(CyLib.o)
 .text.CyVdHvAnalogEnable
                0x00000000       0x5c .\ARM_GCC_493\Debug\PSoC_2_Pi.a(CyLib.o)
 .text.CyVdHvAnalogDisable
                0x00000000       0x20 .\ARM_GCC_493\Debug\PSoC_2_Pi.a(CyLib.o)
 .text.CyVdStickyStatus
                0x00000000       0x38 .\ARM_GCC_493\Debug\PSoC_2_Pi.a(CyLib.o)
 .text.CyVdRealTimeStatus
                0x00000000       0x2c .\ARM_GCC_493\Debug\PSoC_2_Pi.a(CyLib.o)
 .text.CyDisableInts
                0x00000000       0x34 .\ARM_GCC_493\Debug\PSoC_2_Pi.a(CyLib.o)
 .text.CyEnableInts
                0x00000000       0x28 .\ARM_GCC_493\Debug\PSoC_2_Pi.a(CyLib.o)
 .text.CyFlushCache
                0x00000000       0x58 .\ARM_GCC_493\Debug\PSoC_2_Pi.a(CyLib.o)
 .text.CyIntSetSysVector
                0x00000000       0x4c .\ARM_GCC_493\Debug\PSoC_2_Pi.a(CyLib.o)
 .text.CyIntGetSysVector
                0x00000000       0x38 .\ARM_GCC_493\Debug\PSoC_2_Pi.a(CyLib.o)
 .text.CyIntGetVector
                0x00000000       0x38 .\ARM_GCC_493\Debug\PSoC_2_Pi.a(CyLib.o)
 .text.CyIntGetPriority
                0x00000000       0x38 .\ARM_GCC_493\Debug\PSoC_2_Pi.a(CyLib.o)
 .text.CyIntGetState
                0x00000000       0x44 .\ARM_GCC_493\Debug\PSoC_2_Pi.a(CyLib.o)
 .text.CySysTickStart
                0x00000000       0x20 .\ARM_GCC_493\Debug\PSoC_2_Pi.a(CyLib.o)
 .text.CySysTickInit
                0x00000000       0x68 .\ARM_GCC_493\Debug\PSoC_2_Pi.a(CyLib.o)
 .text.CySysTickEnable
                0x00000000       0x1c .\ARM_GCC_493\Debug\PSoC_2_Pi.a(CyLib.o)
 .text.CySysTickStop
                0x00000000       0x1c .\ARM_GCC_493\Debug\PSoC_2_Pi.a(CyLib.o)
 .text.CySysTickEnableInterrupt
                0x00000000       0x1c .\ARM_GCC_493\Debug\PSoC_2_Pi.a(CyLib.o)
 .text.CySysTickDisableInterrupt
                0x00000000       0x1c .\ARM_GCC_493\Debug\PSoC_2_Pi.a(CyLib.o)
 .text.CySysTickSetReload
                0x00000000       0x20 .\ARM_GCC_493\Debug\PSoC_2_Pi.a(CyLib.o)
 .text.CySysTickGetReload
                0x00000000       0x1c .\ARM_GCC_493\Debug\PSoC_2_Pi.a(CyLib.o)
 .text.CySysTickGetValue
                0x00000000       0x20 .\ARM_GCC_493\Debug\PSoC_2_Pi.a(CyLib.o)
 .text.CySysTickSetClockSource
                0x00000000       0x38 .\ARM_GCC_493\Debug\PSoC_2_Pi.a(CyLib.o)
 .text.CySysTickGetCountFlag
                0x00000000       0x1c .\ARM_GCC_493\Debug\PSoC_2_Pi.a(CyLib.o)
 .text.CySysTickClear
                0x00000000       0x18 .\ARM_GCC_493\Debug\PSoC_2_Pi.a(CyLib.o)
 .text.CySysTickSetCallback
                0x00000000       0x30 .\ARM_GCC_493\Debug\PSoC_2_Pi.a(CyLib.o)
 .text.CySysTickGetCallback
                0x00000000       0x20 .\ARM_GCC_493\Debug\PSoC_2_Pi.a(CyLib.o)
 .text.CySysTickServiceCallbacks
                0x00000000       0x44 .\ARM_GCC_493\Debug\PSoC_2_Pi.a(CyLib.o)
 .text          0x00000000        0x0 .\ARM_GCC_493\Debug\PSoC_2_Pi.a(cyPm.o)
 .data          0x00000000        0x0 .\ARM_GCC_493\Debug\PSoC_2_Pi.a(cyPm.o)
 .bss           0x00000000       0x44 .\ARM_GCC_493\Debug\PSoC_2_Pi.a(cyPm.o)
 .rodata        0x00000000       0x10 .\ARM_GCC_493\Debug\PSoC_2_Pi.a(cyPm.o)
 .text.CyPmSaveClocks
                0x00000000      0x284 .\ARM_GCC_493\Debug\PSoC_2_Pi.a(cyPm.o)
 .text.CyPmRestoreClocks
                0x00000000      0x300 .\ARM_GCC_493\Debug\PSoC_2_Pi.a(cyPm.o)
 .text.CyPmAltAct
                0x00000000       0xb8 .\ARM_GCC_493\Debug\PSoC_2_Pi.a(cyPm.o)
 .text.CyPmSleep
                0x00000000      0x170 .\ARM_GCC_493\Debug\PSoC_2_Pi.a(cyPm.o)
 .text.CyPmHibernate
                0x00000000      0x140 .\ARM_GCC_493\Debug\PSoC_2_Pi.a(cyPm.o)
 .text.CyPmReadStatus
                0x00000000       0x58 .\ARM_GCC_493\Debug\PSoC_2_Pi.a(cyPm.o)
 .text.CyPmHibSaveSet
                0x00000000       0xd4 .\ARM_GCC_493\Debug\PSoC_2_Pi.a(cyPm.o)
 .text.CyPmHibRestore
                0x00000000       0x68 .\ARM_GCC_493\Debug\PSoC_2_Pi.a(cyPm.o)
 .text.CyPmCtwSetInterval
                0x00000000       0x90 .\ARM_GCC_493\Debug\PSoC_2_Pi.a(cyPm.o)
 .text.CyPmOppsSet
                0x00000000       0x40 .\ARM_GCC_493\Debug\PSoC_2_Pi.a(cyPm.o)
 .text.CyPmFtwSetInterval
                0x00000000       0x90 .\ARM_GCC_493\Debug\PSoC_2_Pi.a(cyPm.o)
 .text.CyPmHibSlpSaveSet
                0x00000000      0x280 .\ARM_GCC_493\Debug\PSoC_2_Pi.a(cyPm.o)
 .text.CyPmHibSlpRestore
                0x00000000      0x188 .\ARM_GCC_493\Debug\PSoC_2_Pi.a(cyPm.o)
 .text.CyPmHviLviSaveDisable
                0x00000000       0xd4 .\ARM_GCC_493\Debug\PSoC_2_Pi.a(cyPm.o)
 .text.CyPmHviLviRestore
                0x00000000       0x54 .\ARM_GCC_493\Debug\PSoC_2_Pi.a(cyPm.o)
 .text          0x00000000        0x0 .\ARM_GCC_493\Debug\PSoC_2_Pi.a(CySpc.o)
 .data          0x00000000        0x0 .\ARM_GCC_493\Debug\PSoC_2_Pi.a(CySpc.o)
 .text.CySpcStop
                0x00000000       0x44 .\ARM_GCC_493\Debug\PSoC_2_Pi.a(CySpc.o)
 .text.CySpcReadData
                0x00000000       0x58 .\ARM_GCC_493\Debug\PSoC_2_Pi.a(CySpc.o)
 .text.CySpcLoadRow
                0x00000000       0x8c .\ARM_GCC_493\Debug\PSoC_2_Pi.a(CySpc.o)
 .text.CySpcLoadRowFull
                0x00000000       0xd0 .\ARM_GCC_493\Debug\PSoC_2_Pi.a(CySpc.o)
 .text.CySpcEraseSector
                0x00000000       0x70 .\ARM_GCC_493\Debug\PSoC_2_Pi.a(CySpc.o)
 .text.CySpcGetTemp
                0x00000000       0x64 .\ARM_GCC_493\Debug\PSoC_2_Pi.a(CySpc.o)
 .text.CySpcGetAlgorithm
                0x00000000       0x48 .\ARM_GCC_493\Debug\PSoC_2_Pi.a(CySpc.o)
 .text          0x00000000        0x0 .\ARM_GCC_493\Debug\PSoC_2_Pi.a(USBUART_cls.o)
 .data          0x00000000        0x0 .\ARM_GCC_493\Debug\PSoC_2_Pi.a(USBUART_cls.o)
 .bss           0x00000000        0x0 .\ARM_GCC_493\Debug\PSoC_2_Pi.a(USBUART_cls.o)
 .text          0x00000000        0x0 .\ARM_GCC_493\Debug\PSoC_2_Pi.a(USBUART_descr.o)
 .data          0x00000000        0x0 .\ARM_GCC_493\Debug\PSoC_2_Pi.a(USBUART_descr.o)
 .bss           0x00000000        0x0 .\ARM_GCC_493\Debug\PSoC_2_Pi.a(USBUART_descr.o)
 .data          0x00000000        0x0 c:/program files (x86)/cypress/psoc creator/3.3/psoc creator/import/gnu/arm/4.9.3/bin/../lib/gcc/arm-none-eabi/4.9.3/armv7-m\libgcc.a(_arm_addsubdf3.o)
 .bss           0x00000000        0x0 c:/program files (x86)/cypress/psoc creator/3.3/psoc creator/import/gnu/arm/4.9.3/bin/../lib/gcc/arm-none-eabi/4.9.3/armv7-m\libgcc.a(_arm_addsubdf3.o)
 .data          0x00000000        0x0 c:/program files (x86)/cypress/psoc creator/3.3/psoc creator/import/gnu/arm/4.9.3/bin/../lib/gcc/arm-none-eabi/4.9.3/armv7-m\libgcc.a(_arm_muldivdf3.o)
 .bss           0x00000000        0x0 c:/program files (x86)/cypress/psoc creator/3.3/psoc creator/import/gnu/arm/4.9.3/bin/../lib/gcc/arm-none-eabi/4.9.3/armv7-m\libgcc.a(_arm_muldivdf3.o)
 .data          0x00000000        0x0 c:/program files (x86)/cypress/psoc creator/3.3/psoc creator/import/gnu/arm/4.9.3/bin/../lib/gcc/arm-none-eabi/4.9.3/armv7-m\libgcc.a(_arm_cmpdf2.o)
 .bss           0x00000000        0x0 c:/program files (x86)/cypress/psoc creator/3.3/psoc creator/import/gnu/arm/4.9.3/bin/../lib/gcc/arm-none-eabi/4.9.3/armv7-m\libgcc.a(_arm_cmpdf2.o)
 .data          0x00000000        0x0 c:/program files (x86)/cypress/psoc creator/3.3/psoc creator/import/gnu/arm/4.9.3/bin/../lib/gcc/arm-none-eabi/4.9.3/armv7-m\libgcc.a(_arm_fixunsdfsi.o)
 .bss           0x00000000        0x0 c:/program files (x86)/cypress/psoc creator/3.3/psoc creator/import/gnu/arm/4.9.3/bin/../lib/gcc/arm-none-eabi/4.9.3/armv7-m\libgcc.a(_arm_fixunsdfsi.o)
 .text          0x00000000      0x21c c:/program files (x86)/cypress/psoc creator/3.3/psoc creator/import/gnu/arm/4.9.3/bin/../lib/gcc/arm-none-eabi/4.9.3/armv7-m\libgcc.a(_arm_addsubsf3.o)
 .data          0x00000000        0x0 c:/program files (x86)/cypress/psoc creator/3.3/psoc creator/import/gnu/arm/4.9.3/bin/../lib/gcc/arm-none-eabi/4.9.3/armv7-m\libgcc.a(_arm_addsubsf3.o)
 .bss           0x00000000        0x0 c:/program files (x86)/cypress/psoc creator/3.3/psoc creator/import/gnu/arm/4.9.3/bin/../lib/gcc/arm-none-eabi/4.9.3/armv7-m\libgcc.a(_arm_addsubsf3.o)
 .text          0x00000000      0x2a0 c:/program files (x86)/cypress/psoc creator/3.3/psoc creator/import/gnu/arm/4.9.3/bin/../lib/gcc/arm-none-eabi/4.9.3/armv7-m\libgcc.a(_arm_muldivsf3.o)
 .data          0x00000000        0x0 c:/program files (x86)/cypress/psoc creator/3.3/psoc creator/import/gnu/arm/4.9.3/bin/../lib/gcc/arm-none-eabi/4.9.3/armv7-m\libgcc.a(_arm_muldivsf3.o)
 .bss           0x00000000        0x0 c:/program files (x86)/cypress/psoc creator/3.3/psoc creator/import/gnu/arm/4.9.3/bin/../lib/gcc/arm-none-eabi/4.9.3/armv7-m\libgcc.a(_arm_muldivsf3.o)
 .data          0x00000000        0x0 c:/program files (x86)/cypress/psoc creator/3.3/psoc creator/import/gnu/arm/4.9.3/bin/../lib/gcc/arm-none-eabi/4.9.3/armv7-m\libgcc.a(_aeabi_ldivmod.o)
 .bss           0x00000000        0x0 c:/program files (x86)/cypress/psoc creator/3.3/psoc creator/import/gnu/arm/4.9.3/bin/../lib/gcc/arm-none-eabi/4.9.3/armv7-m\libgcc.a(_aeabi_ldivmod.o)
 .data          0x00000000        0x0 c:/program files (x86)/cypress/psoc creator/3.3/psoc creator/import/gnu/arm/4.9.3/bin/../lib/gcc/arm-none-eabi/4.9.3/armv7-m\libgcc.a(bpabi.o)
 .bss           0x00000000        0x0 c:/program files (x86)/cypress/psoc creator/3.3/psoc creator/import/gnu/arm/4.9.3/bin/../lib/gcc/arm-none-eabi/4.9.3/armv7-m\libgcc.a(bpabi.o)
 .data          0x00000000        0x0 c:/program files (x86)/cypress/psoc creator/3.3/psoc creator/import/gnu/arm/4.9.3/bin/../lib/gcc/arm-none-eabi/4.9.3/armv7-m\libgcc.a(_dvmd_tls.o)
 .bss           0x00000000        0x0 c:/program files (x86)/cypress/psoc creator/3.3/psoc creator/import/gnu/arm/4.9.3/bin/../lib/gcc/arm-none-eabi/4.9.3/armv7-m\libgcc.a(_dvmd_tls.o)
 .data          0x00000000        0x0 c:/program files (x86)/cypress/psoc creator/3.3/psoc creator/import/gnu/arm/4.9.3/bin/../lib/gcc/arm-none-eabi/4.9.3/armv7-m\libgcc.a(_divdi3.o)
 .bss           0x00000000        0x0 c:/program files (x86)/cypress/psoc creator/3.3/psoc creator/import/gnu/arm/4.9.3/bin/../lib/gcc/arm-none-eabi/4.9.3/armv7-m\libgcc.a(_divdi3.o)
 .ARM.extab     0x00000000        0x0 c:/program files (x86)/cypress/psoc creator/3.3/psoc creator/import/gnu/arm/4.9.3/bin/../lib/gcc/arm-none-eabi/4.9.3/armv7-m\libgcc.a(_divdi3.o)
 .data          0x00000000        0x0 c:/program files (x86)/cypress/psoc creator/3.3/psoc creator/import/gnu/arm/4.9.3/bin/../lib/gcc/arm-none-eabi/4.9.3/armv7-m\libgcc.a(_udivdi3.o)
 .bss           0x00000000        0x0 c:/program files (x86)/cypress/psoc creator/3.3/psoc creator/import/gnu/arm/4.9.3/bin/../lib/gcc/arm-none-eabi/4.9.3/armv7-m\libgcc.a(_udivdi3.o)
 .ARM.extab     0x00000000        0x0 c:/program files (x86)/cypress/psoc creator/3.3/psoc creator/import/gnu/arm/4.9.3/bin/../lib/gcc/arm-none-eabi/4.9.3/armv7-m\libgcc.a(_udivdi3.o)
 .text          0x00000000        0x0 c:/program files (x86)/cypress/psoc creator/3.3/psoc creator/import/gnu/arm/4.9.3/bin/../lib/gcc/arm-none-eabi/4.9.3/../../../../arm-none-eabi/lib/armv7-m\libg_nano.a(lib_a-errno.o)
 .data          0x00000000        0x0 c:/program files (x86)/cypress/psoc creator/3.3/psoc creator/import/gnu/arm/4.9.3/bin/../lib/gcc/arm-none-eabi/4.9.3/../../../../arm-none-eabi/lib/armv7-m\libg_nano.a(lib_a-errno.o)
 .bss           0x00000000        0x0 c:/program files (x86)/cypress/psoc creator/3.3/psoc creator/import/gnu/arm/4.9.3/bin/../lib/gcc/arm-none-eabi/4.9.3/../../../../arm-none-eabi/lib/armv7-m\libg_nano.a(lib_a-errno.o)
 .text.__errno  0x00000000        0xc c:/program files (x86)/cypress/psoc creator/3.3/psoc creator/import/gnu/arm/4.9.3/bin/../lib/gcc/arm-none-eabi/4.9.3/../../../../arm-none-eabi/lib/armv7-m\libg_nano.a(lib_a-errno.o)
 .text          0x00000000        0x0 c:/program files (x86)/cypress/psoc creator/3.3/psoc creator/import/gnu/arm/4.9.3/bin/../lib/gcc/arm-none-eabi/4.9.3/../../../../arm-none-eabi/lib/armv7-m\libg_nano.a(lib_a-exit.o)
 .data          0x00000000        0x0 c:/program files (x86)/cypress/psoc creator/3.3/psoc creator/import/gnu/arm/4.9.3/bin/../lib/gcc/arm-none-eabi/4.9.3/../../../../arm-none-eabi/lib/armv7-m\libg_nano.a(lib_a-exit.o)
 .bss           0x00000000        0x0 c:/program files (x86)/cypress/psoc creator/3.3/psoc creator/import/gnu/arm/4.9.3/bin/../lib/gcc/arm-none-eabi/4.9.3/../../../../arm-none-eabi/lib/armv7-m\libg_nano.a(lib_a-exit.o)
 .text.exit     0x00000000       0x28 c:/program files (x86)/cypress/psoc creator/3.3/psoc creator/import/gnu/arm/4.9.3/bin/../lib/gcc/arm-none-eabi/4.9.3/../../../../arm-none-eabi/lib/armv7-m\libg_nano.a(lib_a-exit.o)
 .text          0x00000000        0x0 c:/program files (x86)/cypress/psoc creator/3.3/psoc creator/import/gnu/arm/4.9.3/bin/../lib/gcc/arm-none-eabi/4.9.3/../../../../arm-none-eabi/lib/armv7-m\libg_nano.a(lib_a-impure.o)
 .data          0x00000000        0x0 c:/program files (x86)/cypress/psoc creator/3.3/psoc creator/import/gnu/arm/4.9.3/bin/../lib/gcc/arm-none-eabi/4.9.3/../../../../arm-none-eabi/lib/armv7-m\libg_nano.a(lib_a-impure.o)
 .bss           0x00000000        0x0 c:/program files (x86)/cypress/psoc creator/3.3/psoc creator/import/gnu/arm/4.9.3/bin/../lib/gcc/arm-none-eabi/4.9.3/../../../../arm-none-eabi/lib/armv7-m\libg_nano.a(lib_a-impure.o)
 .data.impure_data
                0x00000000       0x60 c:/program files (x86)/cypress/psoc creator/3.3/psoc creator/import/gnu/arm/4.9.3/bin/../lib/gcc/arm-none-eabi/4.9.3/../../../../arm-none-eabi/lib/armv7-m\libg_nano.a(lib_a-impure.o)
 .data._impure_ptr
                0x00000000        0x4 c:/program files (x86)/cypress/psoc creator/3.3/psoc creator/import/gnu/arm/4.9.3/bin/../lib/gcc/arm-none-eabi/4.9.3/../../../../arm-none-eabi/lib/armv7-m\libg_nano.a(lib_a-impure.o)
 .rodata.str1.1
                0x00000000        0x2 c:/program files (x86)/cypress/psoc creator/3.3/psoc creator/import/gnu/arm/4.9.3/bin/../lib/gcc/arm-none-eabi/4.9.3/../../../../arm-none-eabi/lib/armv7-m\libg_nano.a(lib_a-impure.o)
 .rodata._global_impure_ptr
                0x00000000        0x4 c:/program files (x86)/cypress/psoc creator/3.3/psoc creator/import/gnu/arm/4.9.3/bin/../lib/gcc/arm-none-eabi/4.9.3/../../../../arm-none-eabi/lib/armv7-m\libg_nano.a(lib_a-impure.o)
 .text          0x00000000        0x0 c:/program files (x86)/cypress/psoc creator/3.3/psoc creator/import/gnu/arm/4.9.3/bin/../lib/gcc/arm-none-eabi/4.9.3/../../../../arm-none-eabi/lib/armv7-m\libg_nano.a(lib_a-init.o)
 .data          0x00000000        0x0 c:/program files (x86)/cypress/psoc creator/3.3/psoc creator/import/gnu/arm/4.9.3/bin/../lib/gcc/arm-none-eabi/4.9.3/../../../../arm-none-eabi/lib/armv7-m\libg_nano.a(lib_a-init.o)
 .bss           0x00000000        0x0 c:/program files (x86)/cypress/psoc creator/3.3/psoc creator/import/gnu/arm/4.9.3/bin/../lib/gcc/arm-none-eabi/4.9.3/../../../../arm-none-eabi/lib/armv7-m\libg_nano.a(lib_a-init.o)
 .text          0x00000000        0x0 c:/program files (x86)/cypress/psoc creator/3.3/psoc creator/import/gnu/arm/4.9.3/bin/../lib/gcc/arm-none-eabi/4.9.3/../../../../arm-none-eabi/lib/armv7-m\libg_nano.a(lib_a-memcpy.o)
 .data          0x00000000        0x0 c:/program files (x86)/cypress/psoc creator/3.3/psoc creator/import/gnu/arm/4.9.3/bin/../lib/gcc/arm-none-eabi/4.9.3/../../../../arm-none-eabi/lib/armv7-m\libg_nano.a(lib_a-memcpy.o)
 .bss           0x00000000        0x0 c:/program files (x86)/cypress/psoc creator/3.3/psoc creator/import/gnu/arm/4.9.3/bin/../lib/gcc/arm-none-eabi/4.9.3/../../../../arm-none-eabi/lib/armv7-m\libg_nano.a(lib_a-memcpy.o)
 .text          0x00000000        0x0 c:/program files (x86)/cypress/psoc creator/3.3/psoc creator/import/gnu/arm/4.9.3/bin/../lib/gcc/arm-none-eabi/4.9.3/../../../../arm-none-eabi/lib/armv7-m\libg_nano.a(lib_a-memset.o)
 .data          0x00000000        0x0 c:/program files (x86)/cypress/psoc creator/3.3/psoc creator/import/gnu/arm/4.9.3/bin/../lib/gcc/arm-none-eabi/4.9.3/../../../../arm-none-eabi/lib/armv7-m\libg_nano.a(lib_a-memset.o)
 .bss           0x00000000        0x0 c:/program files (x86)/cypress/psoc creator/3.3/psoc creator/import/gnu/arm/4.9.3/bin/../lib/gcc/arm-none-eabi/4.9.3/../../../../arm-none-eabi/lib/armv7-m\libg_nano.a(lib_a-memset.o)
 .text          0x00000000        0x0 c:/program files (x86)/cypress/psoc creator/3.3/psoc creator/import/gnu/arm/4.9.3/bin/../lib/gcc/arm-none-eabi/4.9.3/armv7-m/crtend.o
 .data          0x00000000        0x0 c:/program files (x86)/cypress/psoc creator/3.3/psoc creator/import/gnu/arm/4.9.3/bin/../lib/gcc/arm-none-eabi/4.9.3/armv7-m/crtend.o
 .bss           0x00000000        0x0 c:/program files (x86)/cypress/psoc creator/3.3/psoc creator/import/gnu/arm/4.9.3/bin/../lib/gcc/arm-none-eabi/4.9.3/armv7-m/crtend.o
 .text          0x00000000        0x0 c:/program files (x86)/cypress/psoc creator/3.3/psoc creator/import/gnu/arm/4.9.3/bin/../lib/gcc/arm-none-eabi/4.9.3/armv7-m/crtn.o
 .data          0x00000000        0x0 c:/program files (x86)/cypress/psoc creator/3.3/psoc creator/import/gnu/arm/4.9.3/bin/../lib/gcc/arm-none-eabi/4.9.3/armv7-m/crtn.o
 .bss           0x00000000        0x0 c:/program files (x86)/cypress/psoc creator/3.3/psoc creator/import/gnu/arm/4.9.3/bin/../lib/gcc/arm-none-eabi/4.9.3/armv7-m/crtn.o

Memory Configuration

Name             Origin             Length             Attributes
rom              0x00000000         0x00040000         xr
ram              0x1fff8000         0x00010000         xrw
*default*        0x00000000         0xffffffff

Linker script and memory map

LOAD c:/program files (x86)/cypress/psoc creator/3.3/psoc creator/import/gnu/arm/4.9.3/bin/../lib/gcc/arm-none-eabi/4.9.3/armv7-m/crti.o
LOAD c:/program files (x86)/cypress/psoc creator/3.3/psoc creator/import/gnu/arm/4.9.3/bin/../lib/gcc/arm-none-eabi/4.9.3/armv7-m/crtbegin.o
LOAD c:/program files (x86)/cypress/psoc creator/3.3/psoc creator/import/gnu/arm/4.9.3/bin/../lib/gcc/arm-none-eabi/4.9.3/../../../../arm-none-eabi/lib/armv7-m/crt0.o
START GROUP
LOAD .\ARM_GCC_493\Debug\main.o
LOAD .\ARM_GCC_493\Debug\mem1.o
LOAD .\ARM_GCC_493\Debug\LINX.o
LOAD .\ARM_GCC_493\Debug\Python.o
LOAD .\ARM_GCC_493\Debug\cymetadata.o
LOAD .\ARM_GCC_493\Debug\Cm3Start.o
LOAD .\ARM_GCC_493\Debug\cybootloader.o
LOAD .\ARM_GCC_493\Debug\PSoC_2_Pi.a
LOAD C:\Program Files (x86)\Cypress\PSoC Creator\3.3\PSoC Creator\psoc\content\cycomponentlibrary\CyComponentLibrary.cylib\CortexM3\ARM_GCC_493\Debug\CyComponentLibrary.a
END GROUP
START GROUP
LOAD c:/program files (x86)/cypress/psoc creator/3.3/psoc creator/import/gnu/arm/4.9.3/bin/../lib/gcc/arm-none-eabi/4.9.3/armv7-m\libgcc.a
LOAD c:/program files (x86)/cypress/psoc creator/3.3/psoc creator/import/gnu/arm/4.9.3/bin/../lib/gcc/arm-none-eabi/4.9.3/../../../../arm-none-eabi/lib/armv7-m\libg_nano.a
LOAD c:/program files (x86)/cypress/psoc creator/3.3/psoc creator/import/gnu/arm/4.9.3/bin/../lib/gcc/arm-none-eabi/4.9.3/../../../../arm-none-eabi/lib/armv7-m\libc_nano.a
END GROUP
START GROUP
LOAD c:/program files (x86)/cypress/psoc creator/3.3/psoc creator/import/gnu/arm/4.9.3/bin/../lib/gcc/arm-none-eabi/4.9.3/armv7-m\libgcc.a
LOAD c:/program files (x86)/cypress/psoc creator/3.3/psoc creator/import/gnu/arm/4.9.3/bin/../lib/gcc/arm-none-eabi/4.9.3/../../../../arm-none-eabi/lib/armv7-m\libc_nano.a
END GROUP
LOAD c:/program files (x86)/cypress/psoc creator/3.3/psoc creator/import/gnu/arm/4.9.3/bin/../lib/gcc/arm-none-eabi/4.9.3/armv7-m/crtend.o
LOAD c:/program files (x86)/cypress/psoc creator/3.3/psoc creator/import/gnu/arm/4.9.3/bin/../lib/gcc/arm-none-eabi/4.9.3/armv7-m/crtn.o
START GROUP
LOAD c:/program files (x86)/cypress/psoc creator/3.3/psoc creator/import/gnu/arm/4.9.3/bin/../lib/gcc/arm-none-eabi/4.9.3/armv7-m\libgcc.a
LOAD c:/program files (x86)/cypress/psoc creator/3.3/psoc creator/import/gnu/arm/4.9.3/bin/../lib/gcc/arm-none-eabi/4.9.3/../../../../arm-none-eabi/lib/armv7-m\libc.a
LOAD c:/program files (x86)/cypress/psoc creator/3.3/psoc creator/import/gnu/arm/4.9.3/bin/../lib/gcc/arm-none-eabi/4.9.3/../../../../arm-none-eabi/lib/armv7-m\libnosys.a
END GROUP
                0x00000000                CY_APPL_ORIGIN = 0x0
                0x00000100                CY_FLASH_ROW_SIZE = 0x100
                0x00000020                CY_ECC_ROW_SIZE = 0x20
                0x00000000                CY_EE_IN_BTLDR = 0x0
                0x00000001                CY_APPL_LOADABLE = 0x1
                0x00000800                CY_EE_SIZE = 0x800
                0x00000001                CY_APPL_NUM = 0x1
                0x00000001                CY_APPL_MAX = 0x1
                0x00000040                CY_METADATA_SIZE = 0x40
                0x1fff8438                PROVIDE (__cy_heap_start, _end)
                0x00000001                PROVIDE (__cy_region_num, ((__cy_regions_end - __cy_regions) / 0x10))
                0x20008000                PROVIDE (__cy_stack, (ORIGIN (ram) + 0x10000))
                0x20004000                PROVIDE (__cy_heap_end, (__cy_stack - 0x4000))

.cybootloader   0x00000000     0x2c00
 *(.cybootloader)
 .cybootloader  0x00000000     0x2c00 .\ARM_GCC_493\Debug\cybootloader.o
                0x00000000                cy_bootloader
                0x00002c00                appl1_start = CY_APPL_ORIGIN?CY_APPL_ORIGIN:ALIGN (CY_FLASH_ROW_SIZE)
                0x00021500                appl2_start = (appl1_start + ALIGN ((((0x40000 - appl1_start) - (0x2 * CY_FLASH_ROW_SIZE)) / 0x2), CY_FLASH_ROW_SIZE))
                0x00002c00                appl_start = (CY_APPL_NUM == 0x1)?appl1_start:appl2_start
                0x00000580                ecc_offset = ((appl_start / CY_FLASH_ROW_SIZE) * CY_ECC_ROW_SIZE)
                0x00000000                ee_offset = (CY_APPL_LOADABLE && ! (CY_EE_IN_BTLDR))?((CY_EE_SIZE / CY_APPL_MAX) * (CY_APPL_NUM - 0x1)):0x0
                0x00000800                ee_size = (CY_APPL_LOADABLE && ! (CY_EE_IN_BTLDR))?(CY_EE_SIZE / CY_APPL_MAX):CY_EE_SIZE
                0x00000580                PROVIDE (CY_ECC_OFFSET, ecc_offset)

.text           0x00002c00     0xdf06
 CREATE_OBJECT_SYMBOLS
                0x00002c00                PROVIDE (__cy_interrupt_vector, RomVectors)
 *(.romvectors)
 .romvectors    0x00002c00       0x10 .\ARM_GCC_493\Debug\Cm3Start.o
                0x00002c00                RomVectors
                0x00000001                ASSERT ((. != __cy_interrupt_vector), No interrupt vector)
                0x00000001                ASSERT (CY_APPL_ORIGIN?(SIZEOF (.cybootloader) <= CY_APPL_ORIGIN):0x1, Wrong image location)
                0x00002c10                PROVIDE (__cy_reset, Reset)
 *(.text.Reset)
 .text.Reset    0x00002c10        0x8 .\ARM_GCC_493\Debug\Cm3Start.o
                0x00002c10                Reset
                0x00000001                ASSERT ((. != __cy_reset), No reset code)
 *(.dma_init)
                0x00000001                ASSERT ((((appl_start + .) <= 0x10000) || 0x1), DMA Init must be within the first 64k of flash)
 *(.text .text.* .gnu.linkonce.t.*)
 .text          0x00002c18       0x5c c:/program files (x86)/cypress/psoc creator/3.3/psoc creator/import/gnu/arm/4.9.3/bin/../lib/gcc/arm-none-eabi/4.9.3/armv7-m/crtbegin.o
 .text.main     0x00002c74       0x40 .\ARM_GCC_493\Debug\main.o
                0x00002c74                main
 .text.readData
                0x00002cb4      0x29c .\ARM_GCC_493\Debug\mem1.o
                0x00002cb4                readData
 .text.CheckBuild
                0x00002f50      0x45c .\ARM_GCC_493\Debug\mem1.o
                0x00002f50                CheckBuild
 .text.VDAC0_Control
                0x000033ac       0xa8 .\ARM_GCC_493\Debug\mem1.o
                0x000033ac                VDAC0_Control
 .text.IDAC0_Control
                0x00003454       0xd4 .\ARM_GCC_493\Debug\mem1.o
                0x00003454                IDAC0_Control
 .text.WAVEDAC_Control
                0x00003528       0xec .\ARM_GCC_493\Debug\mem1.o
                0x00003528                WAVEDAC_Control
 *fill*         0x00003614        0x4 
 .text.Generate_Wave
                0x00003618      0x408 .\ARM_GCC_493\Debug\mem1.o
                0x00003618                Generate_Wave
 .text.PWM_Control_0
                0x00003a20       0xd4 .\ARM_GCC_493\Debug\mem1.o
                0x00003a20                PWM_Control_0
 .text.PWM_Control_1
                0x00003af4       0xd4 .\ARM_GCC_493\Debug\mem1.o
                0x00003af4                PWM_Control_1
 .text.PWM_Control_2
                0x00003bc8       0xd4 .\ARM_GCC_493\Debug\mem1.o
                0x00003bc8                PWM_Control_2
 .text.PWM_Control_3
                0x00003c9c       0xd4 .\ARM_GCC_493\Debug\mem1.o
                0x00003c9c                PWM_Control_3
 .text.PWM_Control_4
                0x00003d70       0xd4 .\ARM_GCC_493\Debug\mem1.o
                0x00003d70                PWM_Control_4
 .text.PWM_Control_5
                0x00003e44       0xd4 .\ARM_GCC_493\Debug\mem1.o
                0x00003e44                PWM_Control_5
 .text.PWM_Control_6
                0x00003f18       0xd4 .\ARM_GCC_493\Debug\mem1.o
                0x00003f18                PWM_Control_6
 .text.PWM_Control_7
                0x00003fec       0xd4 .\ARM_GCC_493\Debug\mem1.o
                0x00003fec                PWM_Control_7
 .text.GPIO_Control
                0x000040c0      0x780 .\ARM_GCC_493\Debug\mem1.o
                0x000040c0                GPIO_Control
 .text.Analog_Read
                0x00004840       0xcc .\ARM_GCC_493\Debug\mem1.o
                0x00004840                Analog_Read
 .text.CapSense_Read
                0x0000490c      0x10c .\ARM_GCC_493\Debug\mem1.o
                0x0000490c                CapSense_Read
 .text.Range_Finder
                0x00004a18     0x13e0 .\ARM_GCC_493\Debug\mem1.o
                0x00004a18                Range_Finder
 .text.test_read
                0x00005df8       0x20 .\ARM_GCC_493\Debug\mem1.o
                0x00005df8                test_read
 .text.StripLightsControl
                0x00005e18       0x9c .\ARM_GCC_493\Debug\mem1.o
                0x00005e18                StripLightsControl
 .text.Stripe   0x00005eb4       0x44 .\ARM_GCC_493\Debug\mem1.o
                0x00005eb4                Stripe
 .text.NeoPixel_DrawRow
                0x00005ef8       0x4c .\ARM_GCC_493\Debug\mem1.o
                0x00005ef8                NeoPixel_DrawRow
 .text.NeoPixel_DrawColumn
                0x00005f44       0x4c .\ARM_GCC_493\Debug\mem1.o
                0x00005f44                NeoPixel_DrawColumn
 .text.SetNeoPixel
                0x00005f90       0x3c .\ARM_GCC_493\Debug\mem1.o
                0x00005f90                SetNeoPixel
 .text.LINX_Initialize
                0x00005fcc       0x48 .\ARM_GCC_493\Debug\LINX.o
                0x00005fcc                LINX_Initialize
 .text.LINX_GetCommand
                0x00006014       0x5c .\ARM_GCC_493\Debug\LINX.o
                0x00006014                LINX_GetCommand
 .text.LINX_CalculateChecksum
                0x00006070       0x40 .\ARM_GCC_493\Debug\LINX.o
                0x00006070                LINX_CalculateChecksum
 .text.LINX_PackResult
                0x000060b0       0xa4 .\ARM_GCC_493\Debug\LINX.o
                0x000060b0                LINX_PackResult
 .text.LINX_ProcessCommand
                0x00006154     0x11a4 .\ARM_GCC_493\Debug\LINX.o
                0x00006154                LINX_ProcessCommand
 .text.LINX_SendResponse
                0x000072f8       0x20 .\ARM_GCC_493\Debug\LINX.o
                0x000072f8                LINX_SendResponse
 .text.IntDefaultHandler
                0x00007318        0x8 .\ARM_GCC_493\Debug\Cm3Start.o
                0x00007318                IntDefaultHandler
 .text.Start_c  0x00007320       0x98 .\ARM_GCC_493\Debug\Cm3Start.o
                0x00007320                Start_c
 .text.initialize_psoc
                0x000073b8       0x90 .\ARM_GCC_493\Debug\Cm3Start.o
                0x000073b8                initialize_psoc
 .text.CYMEMZERO
                0x00007448       0x1c .\ARM_GCC_493\Debug\PSoC_2_Pi.a(cyfitter_cfg.o)
 .text.CYCONFIGCPY
                0x00007464       0x1c .\ARM_GCC_493\Debug\PSoC_2_Pi.a(cyfitter_cfg.o)
 .text.CyClockStartupError
                0x00007480        0xc .\ARM_GCC_493\Debug\PSoC_2_Pi.a(cyfitter_cfg.o)
 .text.cfg_write_bytes32
                0x0000748c       0x74 .\ARM_GCC_493\Debug\PSoC_2_Pi.a(cyfitter_cfg.o)
 .text.ClockSetup
                0x00007500      0x1d8 .\ARM_GCC_493\Debug\PSoC_2_Pi.a(cyfitter_cfg.o)
 .text.AnalogSetDefault
                0x000076d8      0x128 .\ARM_GCC_493\Debug\PSoC_2_Pi.a(cyfitter_cfg.o)
 .text.CapSense_1_AMuxCH0_Set
                0x00007800       0x40 .\ARM_GCC_493\Debug\PSoC_2_Pi.a(cyfitter_cfg.o)
                0x00007800                CapSense_1_AMuxCH0_Set
 .text.CapSense_1_AMuxCH0_Unset
                0x00007840       0x44 .\ARM_GCC_493\Debug\PSoC_2_Pi.a(cyfitter_cfg.o)
                0x00007840                CapSense_1_AMuxCH0_Unset
 .text.cyfitter_cfg
                0x00007884      0x214 .\ARM_GCC_493\Debug\PSoC_2_Pi.a(cyfitter_cfg.o)
                0x00007884                cyfitter_cfg
 .text.PWM_CLK_1_SetDividerRegister
                0x00007a98      0x160 .\ARM_GCC_493\Debug\PSoC_2_Pi.a(PWM_CLK_1.o)
                0x00007a98                PWM_CLK_1_SetDividerRegister
 .text.PWM_CLK_1_GetDividerRegister
                0x00007bf8       0x18 .\ARM_GCC_493\Debug\PSoC_2_Pi.a(PWM_CLK_1.o)
                0x00007bf8                PWM_CLK_1_GetDividerRegister
 .text.PWM_CLK_1_GetSourceRegister
                0x00007c10       0x20 .\ARM_GCC_493\Debug\PSoC_2_Pi.a(PWM_CLK_1.o)
                0x00007c10                PWM_CLK_1_GetSourceRegister
 .text.PWM_1_Start
                0x00007c30       0x20 .\ARM_GCC_493\Debug\PSoC_2_Pi.a(PWM_1.o)
                0x00007c30                PWM_1_Start
 .text.PWM_1_Init
                0x00007c50       0x94 .\ARM_GCC_493\Debug\PSoC_2_Pi.a(PWM_1.o)
                0x00007c50                PWM_1_Init
 .text.PWM_1_Enable
                0x00007ce4       0x20 .\ARM_GCC_493\Debug\PSoC_2_Pi.a(PWM_1.o)
                0x00007ce4                PWM_1_Enable
 .text.PWM_1_Stop
                0x00007d04       0x20 .\ARM_GCC_493\Debug\PSoC_2_Pi.a(PWM_1.o)
                0x00007d04                PWM_1_Stop
 .text.PWM_1_WriteCounter
                0x00007d24       0x20 .\ARM_GCC_493\Debug\PSoC_2_Pi.a(PWM_1.o)
                0x00007d24                PWM_1_WriteCounter
 .text.PWM_1_ReadCounter
                0x00007d44       0x20 .\ARM_GCC_493\Debug\PSoC_2_Pi.a(PWM_1.o)
                0x00007d44                PWM_1_ReadCounter
 .text.PWM_1_ClearFIFO
                0x00007d64       0x1c .\ARM_GCC_493\Debug\PSoC_2_Pi.a(PWM_1.o)
                0x00007d64                PWM_1_ClearFIFO
 .text.PWM_1_WritePeriod
                0x00007d80       0x20 .\ARM_GCC_493\Debug\PSoC_2_Pi.a(PWM_1.o)
                0x00007d80                PWM_1_WritePeriod
 .text.PWM_1_WriteCompare
                0x00007da0       0x20 .\ARM_GCC_493\Debug\PSoC_2_Pi.a(PWM_1.o)
                0x00007da0                PWM_1_WriteCompare
 .text.PWM_1_SetInterruptMode
                0x00007dc0       0x20 .\ARM_GCC_493\Debug\PSoC_2_Pi.a(PWM_1.o)
                0x00007dc0                PWM_1_SetInterruptMode
 .text.PWM_1_ReadStatusRegister
                0x00007de0       0x18 .\ARM_GCC_493\Debug\PSoC_2_Pi.a(PWM_1.o)
                0x00007de0                PWM_1_ReadStatusRegister
 .text.PWM_1_ReadControlRegister
                0x00007df8       0x20 .\ARM_GCC_493\Debug\PSoC_2_Pi.a(PWM_1.o)
                0x00007df8                PWM_1_ReadControlRegister
 .text.PWM_1_WriteControlRegister
                0x00007e18       0x20 .\ARM_GCC_493\Debug\PSoC_2_Pi.a(PWM_1.o)
                0x00007e18                PWM_1_WriteControlRegister
 .text.PWM_1_ReadCapture
                0x00007e38       0x18 .\ARM_GCC_493\Debug\PSoC_2_Pi.a(PWM_1.o)
                0x00007e38                PWM_1_ReadCapture
 .text.PWM_1_ReadCompare
                0x00007e50       0x18 .\ARM_GCC_493\Debug\PSoC_2_Pi.a(PWM_1.o)
                0x00007e50                PWM_1_ReadCompare
 .text.PWM_1_ReadPeriod
                0x00007e68       0x18 .\ARM_GCC_493\Debug\PSoC_2_Pi.a(PWM_1.o)
                0x00007e68                PWM_1_ReadPeriod
 .text.PWM_1_SaveConfig
                0x00007e80       0x3c .\ARM_GCC_493\Debug\PSoC_2_Pi.a(PWM_1_PM.o)
                0x00007e80                PWM_1_SaveConfig
 .text.PWM_1_RestoreConfig
                0x00007ebc       0x34 .\ARM_GCC_493\Debug\PSoC_2_Pi.a(PWM_1_PM.o)
                0x00007ebc                PWM_1_RestoreConfig
 .text.PWM_1_Sleep
                0x00007ef0       0x34 .\ARM_GCC_493\Debug\PSoC_2_Pi.a(PWM_1_PM.o)
                0x00007ef0                PWM_1_Sleep
 .text.PWM_1_Wakeup
                0x00007f24       0x1c .\ARM_GCC_493\Debug\PSoC_2_Pi.a(PWM_1_PM.o)
                0x00007f24                PWM_1_Wakeup
 .text.PWM_2_Start
                0x00007f40       0x20 .\ARM_GCC_493\Debug\PSoC_2_Pi.a(PWM_2.o)
                0x00007f40                PWM_2_Start
 .text.PWM_2_Init
                0x00007f60       0x94 .\ARM_GCC_493\Debug\PSoC_2_Pi.a(PWM_2.o)
                0x00007f60                PWM_2_Init
 .text.PWM_2_Enable
                0x00007ff4       0x20 .\ARM_GCC_493\Debug\PSoC_2_Pi.a(PWM_2.o)
                0x00007ff4                PWM_2_Enable
 .text.PWM_2_Stop
                0x00008014       0x20 .\ARM_GCC_493\Debug\PSoC_2_Pi.a(PWM_2.o)
                0x00008014                PWM_2_Stop
 .text.PWM_2_WriteCounter
                0x00008034       0x20 .\ARM_GCC_493\Debug\PSoC_2_Pi.a(PWM_2.o)
                0x00008034                PWM_2_WriteCounter
 .text.PWM_2_ReadCounter
                0x00008054       0x20 .\ARM_GCC_493\Debug\PSoC_2_Pi.a(PWM_2.o)
                0x00008054                PWM_2_ReadCounter
 .text.PWM_2_ClearFIFO
                0x00008074       0x1c .\ARM_GCC_493\Debug\PSoC_2_Pi.a(PWM_2.o)
                0x00008074                PWM_2_ClearFIFO
 .text.PWM_2_WritePeriod
                0x00008090       0x20 .\ARM_GCC_493\Debug\PSoC_2_Pi.a(PWM_2.o)
                0x00008090                PWM_2_WritePeriod
 .text.PWM_2_WriteCompare
                0x000080b0       0x20 .\ARM_GCC_493\Debug\PSoC_2_Pi.a(PWM_2.o)
                0x000080b0                PWM_2_WriteCompare
 .text.PWM_2_SetInterruptMode
                0x000080d0       0x20 .\ARM_GCC_493\Debug\PSoC_2_Pi.a(PWM_2.o)
                0x000080d0                PWM_2_SetInterruptMode
 .text.PWM_2_ReadStatusRegister
                0x000080f0       0x18 .\ARM_GCC_493\Debug\PSoC_2_Pi.a(PWM_2.o)
                0x000080f0                PWM_2_ReadStatusRegister
 .text.PWM_2_ReadControlRegister
                0x00008108       0x20 .\ARM_GCC_493\Debug\PSoC_2_Pi.a(PWM_2.o)
                0x00008108                PWM_2_ReadControlRegister
 .text.PWM_2_WriteControlRegister
                0x00008128       0x20 .\ARM_GCC_493\Debug\PSoC_2_Pi.a(PWM_2.o)
                0x00008128                PWM_2_WriteControlRegister
 .text.PWM_2_ReadCapture
                0x00008148       0x18 .\ARM_GCC_493\Debug\PSoC_2_Pi.a(PWM_2.o)
                0x00008148                PWM_2_ReadCapture
 .text.PWM_2_ReadCompare
                0x00008160       0x18 .\ARM_GCC_493\Debug\PSoC_2_Pi.a(PWM_2.o)
                0x00008160                PWM_2_ReadCompare
 .text.PWM_2_ReadPeriod
                0x00008178       0x18 .\ARM_GCC_493\Debug\PSoC_2_Pi.a(PWM_2.o)
                0x00008178                PWM_2_ReadPeriod
 .text.PWM_2_SaveConfig
                0x00008190       0x3c .\ARM_GCC_493\Debug\PSoC_2_Pi.a(PWM_2_PM.o)
                0x00008190                PWM_2_SaveConfig
 .text.PWM_2_RestoreConfig
                0x000081cc       0x34 .\ARM_GCC_493\Debug\PSoC_2_Pi.a(PWM_2_PM.o)
                0x000081cc                PWM_2_RestoreConfig
 .text.PWM_2_Sleep
                0x00008200       0x34 .\ARM_GCC_493\Debug\PSoC_2_Pi.a(PWM_2_PM.o)
                0x00008200                PWM_2_Sleep
 .text.PWM_2_Wakeup
                0x00008234       0x1c .\ARM_GCC_493\Debug\PSoC_2_Pi.a(PWM_2_PM.o)
                0x00008234                PWM_2_Wakeup
 .text.IDAC8_1_Init
                0x00008250       0x34 .\ARM_GCC_493\Debug\PSoC_2_Pi.a(IDAC8_1.o)
                0x00008250                IDAC8_1_Init
 .text.IDAC8_1_Enable
                0x00008284       0x34 .\ARM_GCC_493\Debug\PSoC_2_Pi.a(IDAC8_1.o)
                0x00008284                IDAC8_1_Enable
 .text.IDAC8_1_Start
                0x000082b8       0x28 .\ARM_GCC_493\Debug\PSoC_2_Pi.a(IDAC8_1.o)
                0x000082b8                IDAC8_1_Start
 .text.IDAC8_1_Stop
                0x000082e0       0x34 .\ARM_GCC_493\Debug\PSoC_2_Pi.a(IDAC8_1.o)
                0x000082e0                IDAC8_1_Stop
 .text.IDAC8_1_SetSpeed
                0x00008314       0x40 .\ARM_GCC_493\Debug\PSoC_2_Pi.a(IDAC8_1.o)
                0x00008314                IDAC8_1_SetSpeed
 .text.IDAC8_1_SetPolarity
                0x00008354       0x40 .\ARM_GCC_493\Debug\PSoC_2_Pi.a(IDAC8_1.o)
                0x00008354                IDAC8_1_SetPolarity
 .text.IDAC8_1_SetRange
                0x00008394       0x40 .\ARM_GCC_493\Debug\PSoC_2_Pi.a(IDAC8_1.o)
                0x00008394                IDAC8_1_SetRange
 .text.IDAC8_1_SetValue
                0x000083d4       0x20 .\ARM_GCC_493\Debug\PSoC_2_Pi.a(IDAC8_1.o)
                0x000083d4                IDAC8_1_SetValue
 .text.IDAC8_1_DacTrim
                0x000083f4       0x54 .\ARM_GCC_493\Debug\PSoC_2_Pi.a(IDAC8_1.o)
                0x000083f4                IDAC8_1_DacTrim
 .text.IDAC8_1_SaveConfig
                0x00008448       0x30 .\ARM_GCC_493\Debug\PSoC_2_Pi.a(IDAC8_1_PM.o)
                0x00008448                IDAC8_1_SaveConfig
 .text.IDAC8_1_RestoreConfig
                0x00008478       0x6c .\ARM_GCC_493\Debug\PSoC_2_Pi.a(IDAC8_1_PM.o)
                0x00008478                IDAC8_1_RestoreConfig
 .text.IDAC8_1_Sleep
                0x000084e4       0x34 .\ARM_GCC_493\Debug\PSoC_2_Pi.a(IDAC8_1_PM.o)
                0x000084e4                IDAC8_1_Sleep
 .text.IDAC8_1_Wakeup
                0x00008518       0x2c .\ARM_GCC_493\Debug\PSoC_2_Pi.a(IDAC8_1_PM.o)
                0x00008518                IDAC8_1_Wakeup
 .text.VDAC8_1_Init
                0x00008544       0x28 .\ARM_GCC_493\Debug\PSoC_2_Pi.a(VDAC8_1.o)
                0x00008544                VDAC8_1_Init
 .text.VDAC8_1_Enable
                0x0000856c       0x34 .\ARM_GCC_493\Debug\PSoC_2_Pi.a(VDAC8_1.o)
                0x0000856c                VDAC8_1_Enable
 .text.VDAC8_1_Start
                0x000085a0       0x28 .\ARM_GCC_493\Debug\PSoC_2_Pi.a(VDAC8_1.o)
                0x000085a0                VDAC8_1_Start
 .text.VDAC8_1_Stop
                0x000085c8       0x34 .\ARM_GCC_493\Debug\PSoC_2_Pi.a(VDAC8_1.o)
                0x000085c8                VDAC8_1_Stop
 .text.VDAC8_1_SetSpeed
                0x000085fc       0x40 .\ARM_GCC_493\Debug\PSoC_2_Pi.a(VDAC8_1.o)
                0x000085fc                VDAC8_1_SetSpeed
 .text.VDAC8_1_SetRange
                0x0000863c       0x40 .\ARM_GCC_493\Debug\PSoC_2_Pi.a(VDAC8_1.o)
                0x0000863c                VDAC8_1_SetRange
 .text.VDAC8_1_SetValue
                0x0000867c       0x20 .\ARM_GCC_493\Debug\PSoC_2_Pi.a(VDAC8_1.o)
                0x0000867c                VDAC8_1_SetValue
 .text.VDAC8_1_DacTrim
                0x0000869c       0x3c .\ARM_GCC_493\Debug\PSoC_2_Pi.a(VDAC8_1.o)
                0x0000869c                VDAC8_1_DacTrim
 .text.VDAC8_1_SaveConfig
                0x000086d8       0x30 .\ARM_GCC_493\Debug\PSoC_2_Pi.a(VDAC8_1_PM.o)
                0x000086d8                VDAC8_1_SaveConfig
 .text.VDAC8_1_RestoreConfig
                0x00008708       0x6c .\ARM_GCC_493\Debug\PSoC_2_Pi.a(VDAC8_1_PM.o)
                0x00008708                VDAC8_1_RestoreConfig
 .text.VDAC8_1_Sleep
                0x00008774       0x34 .\ARM_GCC_493\Debug\PSoC_2_Pi.a(VDAC8_1_PM.o)
                0x00008774                VDAC8_1_Sleep
 .text.VDAC8_1_Wakeup
                0x000087a8       0x2c .\ARM_GCC_493\Debug\PSoC_2_Pi.a(VDAC8_1_PM.o)
                0x000087a8                VDAC8_1_Wakeup
 .text.CapSense_1_Init
                0x000087d4      0x148 .\ARM_GCC_493\Debug\PSoC_2_Pi.a(CapSense_1.o)
                0x000087d4                CapSense_1_Init
 .text.CapSense_1_Enable
                0x0000891c       0x98 .\ARM_GCC_493\Debug\PSoC_2_Pi.a(CapSense_1.o)
                0x0000891c                CapSense_1_Enable
 .text.CapSense_1_Start
                0x000089b4       0x20 .\ARM_GCC_493\Debug\PSoC_2_Pi.a(CapSense_1.o)
                0x000089b4                CapSense_1_Start
 .text.CapSense_1_Stop
                0x000089d4       0x94 .\ARM_GCC_493\Debug\PSoC_2_Pi.a(CapSense_1.o)
                0x000089d4                CapSense_1_Stop
 .text.CapSense_1_FindNextSensor
                0x00008a68       0x50 .\ARM_GCC_493\Debug\PSoC_2_Pi.a(CapSense_1.o)
                0x00008a68                CapSense_1_FindNextSensor
 .text.CapSense_1_SetScanSlotSettings
                0x00008ab8       0x50 .\ARM_GCC_493\Debug\PSoC_2_Pi.a(CapSense_1.o)
                0x00008ab8                CapSense_1_SetScanSlotSettings
 .text.CapSense_1_ScanSensor
                0x00008b08       0x34 .\ARM_GCC_493\Debug\PSoC_2_Pi.a(CapSense_1.o)
                0x00008b08                CapSense_1_ScanSensor
 .text.CapSense_1_ScanEnabledWidgets
                0x00008b3c       0x54 .\ARM_GCC_493\Debug\PSoC_2_Pi.a(CapSense_1.o)
                0x00008b3c                CapSense_1_ScanEnabledWidgets
 .text.CapSense_1_IsBusy
                0x00008b90       0x20 .\ARM_GCC_493\Debug\PSoC_2_Pi.a(CapSense_1.o)
                0x00008b90                CapSense_1_IsBusy
 .text.CapSense_1_ReadSensorRaw
                0x00008bb0       0x24 .\ARM_GCC_493\Debug\PSoC_2_Pi.a(CapSense_1.o)
                0x00008bb0                CapSense_1_ReadSensorRaw
 .text.CapSense_1_ClearSensors
                0x00008bd4       0x28 .\ARM_GCC_493\Debug\PSoC_2_Pi.a(CapSense_1.o)
                0x00008bd4                CapSense_1_ClearSensors
 .text.CapSense_1_EnableSensor
                0x00008bfc       0x68 .\ARM_GCC_493\Debug\PSoC_2_Pi.a(CapSense_1.o)
                0x00008bfc                CapSense_1_EnableSensor
 .text.CapSense_1_DisableSensor
                0x00008c64       0x6c .\ARM_GCC_493\Debug\PSoC_2_Pi.a(CapSense_1.o)
                0x00008c64                CapSense_1_DisableSensor
 .text.CapSense_1_PreScan
                0x00008cd0       0x58 .\ARM_GCC_493\Debug\PSoC_2_Pi.a(CapSense_1.o)
                0x00008cd0                CapSense_1_PreScan
 .text.CapSense_1_PostScan
                0x00008d28       0x98 .\ARM_GCC_493\Debug\PSoC_2_Pi.a(CapSense_1.o)
                0x00008d28                CapSense_1_PostScan
 .text.CapSense_1_SetPrescaler
                0x00008dc0       0x2c .\ARM_GCC_493\Debug\PSoC_2_Pi.a(CapSense_1.o)
                0x00008dc0                CapSense_1_SetPrescaler
 .text.CapSense_1_SetAnalogSwitchesSource
                0x00008dec       0x40 .\ARM_GCC_493\Debug\PSoC_2_Pi.a(CapSense_1.o)
                0x00008dec                CapSense_1_SetAnalogSwitchesSource
 .text.CapSense_1_BaseInit
                0x00008e2c       0x78 .\ARM_GCC_493\Debug\PSoC_2_Pi.a(CapSense_1_CSHL.o)
                0x00008e2c                CapSense_1_BaseInit
 .text.CapSense_1_InitializeSensorBaseline
                0x00008ea4       0x2c .\ARM_GCC_493\Debug\PSoC_2_Pi.a(CapSense_1_CSHL.o)
                0x00008ea4                CapSense_1_InitializeSensorBaseline
 .text.CapSense_1_InitializeAllBaselines
                0x00008ed0       0x28 .\ARM_GCC_493\Debug\PSoC_2_Pi.a(CapSense_1_CSHL.o)
                0x00008ed0                CapSense_1_InitializeAllBaselines
 .text.CapSense_1_UpdateSensorBaseline
                0x00008ef8      0x174 .\ARM_GCC_493\Debug\PSoC_2_Pi.a(CapSense_1_CSHL.o)
                0x00008ef8                CapSense_1_UpdateSensorBaseline
 .text.CapSense_1_UpdateEnabledBaselines
                0x0000906c       0x50 .\ARM_GCC_493\Debug\PSoC_2_Pi.a(CapSense_1_CSHL.o)
                0x0000906c                CapSense_1_UpdateEnabledBaselines
 .text.CapSense_1_CheckIsSensorActive
                0x000090bc      0x108 .\ARM_GCC_493\Debug\PSoC_2_Pi.a(CapSense_1_CSHL.o)
                0x000090bc                CapSense_1_CheckIsSensorActive
 .text.CapSense_1_CheckIsWidgetActive
                0x000091c4       0x54 .\ARM_GCC_493\Debug\PSoC_2_Pi.a(CapSense_1_CSHL.o)
                0x000091c4                CapSense_1_CheckIsWidgetActive
 .text.CapSense_1_IIR4Filter
                0x00009218       0x38 .\ARM_GCC_493\Debug\PSoC_2_Pi.a(CapSense_1_CSHL.o)
                0x00009218                CapSense_1_IIR4Filter
 .text.CapSense_1_IsrCH0_ISR
                0x00009250       0x78 .\ARM_GCC_493\Debug\PSoC_2_Pi.a(CapSense_1_INT.o)
                0x00009250                CapSense_1_IsrCH0_ISR
 .text.CapSense_1_SaveConfig
                0x000092c8       0x1c .\ARM_GCC_493\Debug\PSoC_2_Pi.a(CapSense_1_PM.o)
                0x000092c8                CapSense_1_SaveConfig
 .text.CapSense_1_Sleep
                0x000092e4       0x34 .\ARM_GCC_493\Debug\PSoC_2_Pi.a(CapSense_1_PM.o)
                0x000092e4                CapSense_1_Sleep
 .text.CapSense_1_RestoreConfig
                0x00009318       0x58 .\ARM_GCC_493\Debug\PSoC_2_Pi.a(CapSense_1_PM.o)
                0x00009318                CapSense_1_RestoreConfig
 .text.CapSense_1_Wakeup
                0x00009370       0x1c .\ARM_GCC_493\Debug\PSoC_2_Pi.a(CapSense_1_PM.o)
                0x00009370                CapSense_1_Wakeup
 .text.PWM_7_Start
                0x0000938c       0x20 .\ARM_GCC_493\Debug\PSoC_2_Pi.a(PWM_7.o)
                0x0000938c                PWM_7_Start
 .text.PWM_7_Init
                0x000093ac       0x94 .\ARM_GCC_493\Debug\PSoC_2_Pi.a(PWM_7.o)
                0x000093ac                PWM_7_Init
 .text.PWM_7_Enable
                0x00009440       0x20 .\ARM_GCC_493\Debug\PSoC_2_Pi.a(PWM_7.o)
                0x00009440                PWM_7_Enable
 .text.PWM_7_Stop
                0x00009460       0x20 .\ARM_GCC_493\Debug\PSoC_2_Pi.a(PWM_7.o)
                0x00009460                PWM_7_Stop
 .text.PWM_7_WriteCounter
                0x00009480       0x20 .\ARM_GCC_493\Debug\PSoC_2_Pi.a(PWM_7.o)
                0x00009480                PWM_7_WriteCounter
 .text.PWM_7_ReadCounter
                0x000094a0       0x20 .\ARM_GCC_493\Debug\PSoC_2_Pi.a(PWM_7.o)
                0x000094a0                PWM_7_ReadCounter
 .text.PWM_7_ClearFIFO
                0x000094c0       0x1c .\ARM_GCC_493\Debug\PSoC_2_Pi.a(PWM_7.o)
                0x000094c0                PWM_7_ClearFIFO
 .text.PWM_7_WritePeriod
                0x000094dc       0x20 .\ARM_GCC_493\Debug\PSoC_2_Pi.a(PWM_7.o)
                0x000094dc                PWM_7_WritePeriod
 .text.PWM_7_WriteCompare
                0x000094fc       0x20 .\ARM_GCC_493\Debug\PSoC_2_Pi.a(PWM_7.o)
                0x000094fc                PWM_7_WriteCompare
 .text.PWM_7_SetInterruptMode
                0x0000951c       0x20 .\ARM_GCC_493\Debug\PSoC_2_Pi.a(PWM_7.o)
                0x0000951c                PWM_7_SetInterruptMode
 .text.PWM_7_ReadStatusRegister
                0x0000953c       0x18 .\ARM_GCC_493\Debug\PSoC_2_Pi.a(PWM_7.o)
                0x0000953c                PWM_7_ReadStatusRegister
 .text.PWM_7_ReadControlRegister
                0x00009554       0x20 .\ARM_GCC_493\Debug\PSoC_2_Pi.a(PWM_7.o)
                0x00009554                PWM_7_ReadControlRegister
 .text.PWM_7_WriteControlRegister
                0x00009574       0x20 .\ARM_GCC_493\Debug\PSoC_2_Pi.a(PWM_7.o)
                0x00009574                PWM_7_WriteControlRegister
 .text.PWM_7_ReadCapture
                0x00009594       0x18 .\ARM_GCC_493\Debug\PSoC_2_Pi.a(PWM_7.o)
                0x00009594                PWM_7_ReadCapture
 .text.PWM_7_ReadCompare
                0x000095ac       0x18 .\ARM_GCC_493\Debug\PSoC_2_Pi.a(PWM_7.o)
                0x000095ac                PWM_7_ReadCompare
 .text.PWM_7_ReadPeriod
                0x000095c4       0x18 .\ARM_GCC_493\Debug\PSoC_2_Pi.a(PWM_7.o)
                0x000095c4                PWM_7_ReadPeriod
 .text.PWM_7_SaveConfig
                0x000095dc       0x3c .\ARM_GCC_493\Debug\PSoC_2_Pi.a(PWM_7_PM.o)
                0x000095dc                PWM_7_SaveConfig
 .text.PWM_7_RestoreConfig
                0x00009618       0x34 .\ARM_GCC_493\Debug\PSoC_2_Pi.a(PWM_7_PM.o)
                0x00009618                PWM_7_RestoreConfig
 .text.PWM_7_Sleep
                0x0000964c       0x34 .\ARM_GCC_493\Debug\PSoC_2_Pi.a(PWM_7_PM.o)
                0x0000964c                PWM_7_Sleep
 .text.PWM_7_Wakeup
                0x00009680       0x1c .\ARM_GCC_493\Debug\PSoC_2_Pi.a(PWM_7_PM.o)
                0x00009680                PWM_7_Wakeup
 .text.GPIO_5_2_Write
                0x0000969c       0x3c .\ARM_GCC_493\Debug\PSoC_2_Pi.a(GPIO_5_2.o)
                0x0000969c                GPIO_5_2_Write
 .text.GPIO_5_2_SetDriveMode
                0x000096d8       0x38 .\ARM_GCC_493\Debug\PSoC_2_Pi.a(GPIO_5_2.o)
                0x000096d8                GPIO_5_2_SetDriveMode
 .text.GPIO_5_2_Read
                0x00009710       0x20 .\ARM_GCC_493\Debug\PSoC_2_Pi.a(GPIO_5_2.o)
                0x00009710                GPIO_5_2_Read
 .text.GPIO_5_3_Write
                0x00009730       0x3c .\ARM_GCC_493\Debug\PSoC_2_Pi.a(GPIO_5_3.o)
                0x00009730                GPIO_5_3_Write
 .text.GPIO_5_3_SetDriveMode
                0x0000976c       0x38 .\ARM_GCC_493\Debug\PSoC_2_Pi.a(GPIO_5_3.o)
                0x0000976c                GPIO_5_3_SetDriveMode
 .text.GPIO_5_3_Read
                0x000097a4       0x20 .\ARM_GCC_493\Debug\PSoC_2_Pi.a(GPIO_5_3.o)
                0x000097a4                GPIO_5_3_Read
 .text.GPIO_5_4_Write
                0x000097c4       0x3c .\ARM_GCC_493\Debug\PSoC_2_Pi.a(GPIO_5_4.o)
                0x000097c4                GPIO_5_4_Write
 .text.GPIO_5_4_SetDriveMode
                0x00009800       0x38 .\ARM_GCC_493\Debug\PSoC_2_Pi.a(GPIO_5_4.o)
                0x00009800                GPIO_5_4_SetDriveMode
 .text.GPIO_5_4_Read
                0x00009838       0x20 .\ARM_GCC_493\Debug\PSoC_2_Pi.a(GPIO_5_4.o)
                0x00009838                GPIO_5_4_Read
 .text.GPIO_5_5_Write
                0x00009858       0x3c .\ARM_GCC_493\Debug\PSoC_2_Pi.a(GPIO_5_5.o)
                0x00009858                GPIO_5_5_Write
 .text.GPIO_5_5_SetDriveMode
                0x00009894       0x38 .\ARM_GCC_493\Debug\PSoC_2_Pi.a(GPIO_5_5.o)
                0x00009894                GPIO_5_5_SetDriveMode
 .text.GPIO_5_5_Read
                0x000098cc       0x20 .\ARM_GCC_493\Debug\PSoC_2_Pi.a(GPIO_5_5.o)
                0x000098cc                GPIO_5_5_Read
 .text.GPIO_5_1_Write
                0x000098ec       0x3c .\ARM_GCC_493\Debug\PSoC_2_Pi.a(GPIO_5_1.o)
                0x000098ec                GPIO_5_1_Write
 .text.GPIO_5_1_SetDriveMode
                0x00009928       0x38 .\ARM_GCC_493\Debug\PSoC_2_Pi.a(GPIO_5_1.o)
                0x00009928                GPIO_5_1_SetDriveMode
 .text.GPIO_5_1_Read
                0x00009960       0x20 .\ARM_GCC_493\Debug\PSoC_2_Pi.a(GPIO_5_1.o)
                0x00009960                GPIO_5_1_Read
 .text.GPIO_12_6_Write
                0x00009980       0x3c .\ARM_GCC_493\Debug\PSoC_2_Pi.a(GPIO_12_6.o)
                0x00009980                GPIO_12_6_Write
 .text.GPIO_12_6_SetDriveMode
                0x000099bc       0x38 .\ARM_GCC_493\Debug\PSoC_2_Pi.a(GPIO_12_6.o)
                0x000099bc                GPIO_12_6_SetDriveMode
 .text.GPIO_12_6_Read
                0x000099f4       0x20 .\ARM_GCC_493\Debug\PSoC_2_Pi.a(GPIO_12_6.o)
                0x000099f4                GPIO_12_6_Read
 .text.GPIO_12_7_Write
                0x00009a14       0x34 .\ARM_GCC_493\Debug\PSoC_2_Pi.a(GPIO_12_7.o)
                0x00009a14                GPIO_12_7_Write
 .text.GPIO_12_7_SetDriveMode
                0x00009a48       0x38 .\ARM_GCC_493\Debug\PSoC_2_Pi.a(GPIO_12_7.o)
                0x00009a48                GPIO_12_7_SetDriveMode
 .text.GPIO_12_7_Read
                0x00009a80       0x1c .\ARM_GCC_493\Debug\PSoC_2_Pi.a(GPIO_12_7.o)
                0x00009a80                GPIO_12_7_Read
 .text.GPIO_2_1_Write
                0x00009a9c       0x3c .\ARM_GCC_493\Debug\PSoC_2_Pi.a(GPIO_2_1.o)
                0x00009a9c                GPIO_2_1_Write
 .text.GPIO_2_1_SetDriveMode
                0x00009ad8       0x38 .\ARM_GCC_493\Debug\PSoC_2_Pi.a(GPIO_2_1.o)
                0x00009ad8                GPIO_2_1_SetDriveMode
 .text.GPIO_2_1_Read
                0x00009b10       0x20 .\ARM_GCC_493\Debug\PSoC_2_Pi.a(GPIO_2_1.o)
                0x00009b10                GPIO_2_1_Read
 .text.GPIO_2_7_Write
                0x00009b30       0x34 .\ARM_GCC_493\Debug\PSoC_2_Pi.a(GPIO_2_7.o)
                0x00009b30                GPIO_2_7_Write
 .text.GPIO_2_7_SetDriveMode
                0x00009b64       0x38 .\ARM_GCC_493\Debug\PSoC_2_Pi.a(GPIO_2_7.o)
                0x00009b64                GPIO_2_7_SetDriveMode
 .text.GPIO_2_7_Read
                0x00009b9c       0x1c .\ARM_GCC_493\Debug\PSoC_2_Pi.a(GPIO_2_7.o)
                0x00009b9c                GPIO_2_7_Read
 .text.GPIO_2_6_Write
                0x00009bb8       0x3c .\ARM_GCC_493\Debug\PSoC_2_Pi.a(GPIO_2_6.o)
                0x00009bb8                GPIO_2_6_Write
 .text.GPIO_2_6_SetDriveMode
                0x00009bf4       0x38 .\ARM_GCC_493\Debug\PSoC_2_Pi.a(GPIO_2_6.o)
                0x00009bf4                GPIO_2_6_SetDriveMode
 .text.GPIO_2_6_Read
                0x00009c2c       0x20 .\ARM_GCC_493\Debug\PSoC_2_Pi.a(GPIO_2_6.o)
                0x00009c2c                GPIO_2_6_Read
 .text.GPIO_2_2_Write
                0x00009c4c       0x3c .\ARM_GCC_493\Debug\PSoC_2_Pi.a(GPIO_2_2.o)
                0x00009c4c                GPIO_2_2_Write
 .text.GPIO_2_2_SetDriveMode
                0x00009c88       0x38 .\ARM_GCC_493\Debug\PSoC_2_Pi.a(GPIO_2_2.o)
                0x00009c88                GPIO_2_2_SetDriveMode
 .text.GPIO_2_2_Read
                0x00009cc0       0x20 .\ARM_GCC_493\Debug\PSoC_2_Pi.a(GPIO_2_2.o)
                0x00009cc0                GPIO_2_2_Read
 .text.GPIO_12_0_Write
                0x00009ce0       0x38 .\ARM_GCC_493\Debug\PSoC_2_Pi.a(GPIO_12_0.o)
                0x00009ce0                GPIO_12_0_Write
 .text.GPIO_12_0_SetDriveMode
                0x00009d18       0x38 .\ARM_GCC_493\Debug\PSoC_2_Pi.a(GPIO_12_0.o)
                0x00009d18                GPIO_12_0_SetDriveMode
 .text.GPIO_12_0_Read
                0x00009d50       0x20 .\ARM_GCC_493\Debug\PSoC_2_Pi.a(GPIO_12_0.o)
                0x00009d50                GPIO_12_0_Read
 .text.GPIO_2_5_Write
                0x00009d70       0x3c .\ARM_GCC_493\Debug\PSoC_2_Pi.a(GPIO_2_5.o)
                0x00009d70                GPIO_2_5_Write
 .text.GPIO_2_5_SetDriveMode
                0x00009dac       0x38 .\ARM_GCC_493\Debug\PSoC_2_Pi.a(GPIO_2_5.o)
                0x00009dac                GPIO_2_5_SetDriveMode
 .text.GPIO_2_5_Read
                0x00009de4       0x20 .\ARM_GCC_493\Debug\PSoC_2_Pi.a(GPIO_2_5.o)
                0x00009de4                GPIO_2_5_Read
 .text.GPIO_12_2_Write
                0x00009e04       0x3c .\ARM_GCC_493\Debug\PSoC_2_Pi.a(GPIO_12_2.o)
                0x00009e04                GPIO_12_2_Write
 .text.GPIO_12_2_SetDriveMode
                0x00009e40       0x38 .\ARM_GCC_493\Debug\PSoC_2_Pi.a(GPIO_12_2.o)
                0x00009e40                GPIO_12_2_SetDriveMode
 .text.GPIO_12_2_Read
                0x00009e78       0x20 .\ARM_GCC_493\Debug\PSoC_2_Pi.a(GPIO_12_2.o)
                0x00009e78                GPIO_12_2_Read
 .text.GPIO_2_0_Write
                0x00009e98       0x38 .\ARM_GCC_493\Debug\PSoC_2_Pi.a(GPIO_2_0.o)
                0x00009e98                GPIO_2_0_Write
 .text.GPIO_2_0_SetDriveMode
                0x00009ed0       0x38 .\ARM_GCC_493\Debug\PSoC_2_Pi.a(GPIO_2_0.o)
                0x00009ed0                GPIO_2_0_SetDriveMode
 .text.GPIO_2_0_Read
                0x00009f08       0x20 .\ARM_GCC_493\Debug\PSoC_2_Pi.a(GPIO_2_0.o)
                0x00009f08                GPIO_2_0_Read
 .text.GPIO_2_4_Write
                0x00009f28       0x3c .\ARM_GCC_493\Debug\PSoC_2_Pi.a(GPIO_2_4.o)
                0x00009f28                GPIO_2_4_Write
 .text.GPIO_2_4_SetDriveMode
                0x00009f64       0x38 .\ARM_GCC_493\Debug\PSoC_2_Pi.a(GPIO_2_4.o)
                0x00009f64                GPIO_2_4_SetDriveMode
 .text.GPIO_2_4_Read
                0x00009f9c       0x20 .\ARM_GCC_493\Debug\PSoC_2_Pi.a(GPIO_2_4.o)
                0x00009f9c                GPIO_2_4_Read
 .text.GPIO_2_3_Write
                0x00009fbc       0x3c .\ARM_GCC_493\Debug\PSoC_2_Pi.a(GPIO_2_3.o)
                0x00009fbc                GPIO_2_3_Write
 .text.GPIO_2_3_SetDriveMode
                0x00009ff8       0x38 .\ARM_GCC_493\Debug\PSoC_2_Pi.a(GPIO_2_3.o)
                0x00009ff8                GPIO_2_3_SetDriveMode
 .text.GPIO_2_3_Read
                0x0000a030       0x20 .\ARM_GCC_493\Debug\PSoC_2_Pi.a(GPIO_2_3.o)
                0x0000a030                GPIO_2_3_Read
 .text.GPIO_12_3_Write
                0x0000a050       0x3c .\ARM_GCC_493\Debug\PSoC_2_Pi.a(GPIO_12_3.o)
                0x0000a050                GPIO_12_3_Write
 .text.GPIO_12_3_SetDriveMode
                0x0000a08c       0x38 .\ARM_GCC_493\Debug\PSoC_2_Pi.a(GPIO_12_3.o)
                0x0000a08c                GPIO_12_3_SetDriveMode
 .text.GPIO_12_3_Read
                0x0000a0c4       0x20 .\ARM_GCC_493\Debug\PSoC_2_Pi.a(GPIO_12_3.o)
                0x0000a0c4                GPIO_12_3_Read
 .text.GPIO_12_4_Write
                0x0000a0e4       0x3c .\ARM_GCC_493\Debug\PSoC_2_Pi.a(GPIO_12_4.o)
                0x0000a0e4                GPIO_12_4_Write
 .text.GPIO_12_4_SetDriveMode
                0x0000a120       0x38 .\ARM_GCC_493\Debug\PSoC_2_Pi.a(GPIO_12_4.o)
                0x0000a120                GPIO_12_4_SetDriveMode
 .text.GPIO_12_4_Read
                0x0000a158       0x20 .\ARM_GCC_493\Debug\PSoC_2_Pi.a(GPIO_12_4.o)
                0x0000a158                GPIO_12_4_Read
 .text.GPIO_5_0_Write
                0x0000a178       0x38 .\ARM_GCC_493\Debug\PSoC_2_Pi.a(GPIO_5_0.o)
                0x0000a178                GPIO_5_0_Write
 .text.GPIO_5_0_SetDriveMode
                0x0000a1b0       0x38 .\ARM_GCC_493\Debug\PSoC_2_Pi.a(GPIO_5_0.o)
                0x0000a1b0                GPIO_5_0_SetDriveMode
 .text.GPIO_5_0_Read
                0x0000a1e8       0x20 .\ARM_GCC_493\Debug\PSoC_2_Pi.a(GPIO_5_0.o)
                0x0000a1e8                GPIO_5_0_Read
 .text.GPIO_12_5_Write
                0x0000a208       0x3c .\ARM_GCC_493\Debug\PSoC_2_Pi.a(GPIO_12_5.o)
                0x0000a208                GPIO_12_5_Write
 .text.GPIO_12_5_SetDriveMode
                0x0000a244       0x38 .\ARM_GCC_493\Debug\PSoC_2_Pi.a(GPIO_12_5.o)
                0x0000a244                GPIO_12_5_SetDriveMode
 .text.GPIO_12_5_Read
                0x0000a27c       0x20 .\ARM_GCC_493\Debug\PSoC_2_Pi.a(GPIO_12_5.o)
                0x0000a27c                GPIO_12_5_Read
 .text.USBUART_Start
                0x0000a29c       0x38 .\ARM_GCC_493\Debug\PSoC_2_Pi.a(USBUART.o)
                0x0000a29c                USBUART_Start
 .text.USBUART_Init
                0x0000a2d4      0x18c .\ARM_GCC_493\Debug\PSoC_2_Pi.a(USBUART.o)
                0x0000a2d4                USBUART_Init
 .text.USBUART_InitComponent
                0x0000a460       0xd8 .\ARM_GCC_493\Debug\PSoC_2_Pi.a(USBUART.o)
                0x0000a460                USBUART_InitComponent
 .text.USBUART_ReInitComponent
                0x0000a538       0x68 .\ARM_GCC_493\Debug\PSoC_2_Pi.a(USBUART.o)
                0x0000a538                USBUART_ReInitComponent
 .text.USBUART_GetConfiguration
                0x0000a5a0       0x18 .\ARM_GCC_493\Debug\PSoC_2_Pi.a(USBUART.o)
                0x0000a5a0                USBUART_GetConfiguration
 .text.USBUART_GetEPCount
                0x0000a5b8       0x6c .\ARM_GCC_493\Debug\PSoC_2_Pi.a(USBUART.o)
                0x0000a5b8                USBUART_GetEPCount
 .text.USBUART_LoadInEP
                0x0000a624      0x108 .\ARM_GCC_493\Debug\PSoC_2_Pi.a(USBUART.o)
                0x0000a624                USBUART_LoadInEP
 .text.USBUART_ReadOutEP
                0x0000a72c       0x8c .\ARM_GCC_493\Debug\PSoC_2_Pi.a(USBUART.o)
                0x0000a72c                USBUART_ReadOutEP
 .text.USBUART_EnableOutEP
                0x0000a7b8       0x60 .\ARM_GCC_493\Debug\PSoC_2_Pi.a(USBUART.o)
                0x0000a7b8                USBUART_EnableOutEP
 .text.USBUART_DispatchCDCClassRqst
                0x0000a818       0xcc .\ARM_GCC_493\Debug\PSoC_2_Pi.a(USBUART_cdc.o)
                0x0000a818                USBUART_DispatchCDCClassRqst
 .text.USBUART_CDC_Init
                0x0000a8e4       0x20 .\ARM_GCC_493\Debug\PSoC_2_Pi.a(USBUART_cdc.o)
                0x0000a8e4                USBUART_CDC_Init
 .text.USBUART_PutData
                0x0000a904       0x6c .\ARM_GCC_493\Debug\PSoC_2_Pi.a(USBUART_cdc.o)
                0x0000a904                USBUART_PutData
 .text.USBUART_DataIsReady
                0x0000a970       0x30 .\ARM_GCC_493\Debug\PSoC_2_Pi.a(USBUART_cdc.o)
                0x0000a970                USBUART_DataIsReady
 .text.USBUART_GetAll
                0x0000a9a0       0x44 .\ARM_GCC_493\Debug\PSoC_2_Pi.a(USBUART_cdc.o)
                0x0000a9a0                USBUART_GetAll
 .text.USBUART_EP_0_ISR
                0x0000a9e4       0xf8 .\ARM_GCC_493\Debug\PSoC_2_Pi.a(USBUART_drv.o)
                0x0000a9e4                USBUART_EP_0_ISR
 .text.USBUART_HandleSetup
                0x0000aadc       0x88 .\ARM_GCC_493\Debug\PSoC_2_Pi.a(USBUART_drv.o)
                0x0000aadc                USBUART_HandleSetup
 .text.USBUART_HandleIN
                0x0000ab64       0x4c .\ARM_GCC_493\Debug\PSoC_2_Pi.a(USBUART_drv.o)
                0x0000ab64                USBUART_HandleIN
 .text.USBUART_HandleOUT
                0x0000abb0       0x58 .\ARM_GCC_493\Debug\PSoC_2_Pi.a(USBUART_drv.o)
                0x0000abb0                USBUART_HandleOUT
 .text.USBUART_LoadEP0
                0x0000ac08       0xd4 .\ARM_GCC_493\Debug\PSoC_2_Pi.a(USBUART_drv.o)
                0x0000ac08                USBUART_LoadEP0
 .text.USBUART_InitControlRead
                0x0000acdc       0x74 .\ARM_GCC_493\Debug\PSoC_2_Pi.a(USBUART_drv.o)
                0x0000acdc                USBUART_InitControlRead
 .text.USBUART_InitZeroLengthControlTransfer
                0x0000ad50       0x44 .\ARM_GCC_493\Debug\PSoC_2_Pi.a(USBUART_drv.o)
                0x0000ad50                USBUART_InitZeroLengthControlTransfer
 .text.USBUART_ControlReadDataStage
                0x0000ad94        0xc .\ARM_GCC_493\Debug\PSoC_2_Pi.a(USBUART_drv.o)
                0x0000ad94                USBUART_ControlReadDataStage
 .text.USBUART_ControlReadStatusStage
                0x0000ada0       0x40 .\ARM_GCC_493\Debug\PSoC_2_Pi.a(USBUART_drv.o)
                0x0000ada0                USBUART_ControlReadStatusStage
 .text.USBUART_InitControlWrite
                0x0000ade0       0x68 .\ARM_GCC_493\Debug\PSoC_2_Pi.a(USBUART_drv.o)
                0x0000ade0                USBUART_InitControlWrite
 .text.USBUART_ControlWriteDataStage
                0x0000ae48       0xb8 .\ARM_GCC_493\Debug\PSoC_2_Pi.a(USBUART_drv.o)
                0x0000ae48                USBUART_ControlWriteDataStage
 .text.USBUART_ControlWriteStatusStage
                0x0000af00       0x20 .\ARM_GCC_493\Debug\PSoC_2_Pi.a(USBUART_drv.o)
                0x0000af00                USBUART_ControlWriteStatusStage
 .text.USBUART_InitNoDataControlTransfer
                0x0000af20       0x38 .\ARM_GCC_493\Debug\PSoC_2_Pi.a(USBUART_drv.o)
                0x0000af20                USBUART_InitNoDataControlTransfer
 .text.USBUART_NoDataControlStatusStage
                0x0000af58       0x48 .\ARM_GCC_493\Debug\PSoC_2_Pi.a(USBUART_drv.o)
                0x0000af58                USBUART_NoDataControlStatusStage
 .text.USBUART_UpdateStatusBlock
                0x0000afa0       0x40 .\ARM_GCC_493\Debug\PSoC_2_Pi.a(USBUART_drv.o)
                0x0000afa0                USBUART_UpdateStatusBlock
 .text.USBUART_InitializeStatusBlock
                0x0000afe0       0x34 .\ARM_GCC_493\Debug\PSoC_2_Pi.a(USBUART_drv.o)
                0x0000afe0                USBUART_InitializeStatusBlock
 .text.USBUART_EP_1_ISR
                0x0000b014       0x54 .\ARM_GCC_493\Debug\PSoC_2_Pi.a(USBUART_episr.o)
                0x0000b014                USBUART_EP_1_ISR
 .text.USBUART_EP_2_ISR
                0x0000b068       0x54 .\ARM_GCC_493\Debug\PSoC_2_Pi.a(USBUART_episr.o)
                0x0000b068                USBUART_EP_2_ISR
 .text.USBUART_EP_3_ISR
                0x0000b0bc       0x5c .\ARM_GCC_493\Debug\PSoC_2_Pi.a(USBUART_episr.o)
                0x0000b0bc                USBUART_EP_3_ISR
 .text.USBUART_SOF_ISR
                0x0000b118        0xc .\ARM_GCC_493\Debug\PSoC_2_Pi.a(USBUART_episr.o)
                0x0000b118                USBUART_SOF_ISR
 .text.USBUART_BUS_RESET_ISR
                0x0000b124        0xc .\ARM_GCC_493\Debug\PSoC_2_Pi.a(USBUART_episr.o)
                0x0000b124                USBUART_BUS_RESET_ISR
 .text.USBUART_HandleStandardRqst
                0x0000b130      0x4a4 .\ARM_GCC_493\Debug\PSoC_2_Pi.a(USBUART_std.o)
                0x0000b130                USBUART_HandleStandardRqst
 .text.USBUART_ReadDieID
                0x0000b5d4       0x90 .\ARM_GCC_493\Debug\PSoC_2_Pi.a(USBUART_std.o)
                0x0000b5d4                USBUART_ReadDieID
 .text.USBUART_ConfigReg
                0x0000b664      0x180 .\ARM_GCC_493\Debug\PSoC_2_Pi.a(USBUART_std.o)
                0x0000b664                USBUART_ConfigReg
 .text.USBUART_Config
                0x0000b7e4      0x348 .\ARM_GCC_493\Debug\PSoC_2_Pi.a(USBUART_std.o)
                0x0000b7e4                USBUART_Config
 .text.USBUART_ConfigAltChanged
                0x0000bb2c      0x27c .\ARM_GCC_493\Debug\PSoC_2_Pi.a(USBUART_std.o)
                0x0000bb2c                USBUART_ConfigAltChanged
 .text.USBUART_GetConfigTablePtr
                0x0000bda8       0x54 .\ARM_GCC_493\Debug\PSoC_2_Pi.a(USBUART_std.o)
                0x0000bda8                USBUART_GetConfigTablePtr
 .text.USBUART_GetDeviceTablePtr
                0x0000bdfc       0x24 .\ARM_GCC_493\Debug\PSoC_2_Pi.a(USBUART_std.o)
                0x0000bdfc                USBUART_GetDeviceTablePtr
 .text.USBUART_GetInterfaceClassTablePtr
                0x0000be20       0x4c .\ARM_GCC_493\Debug\PSoC_2_Pi.a(USBUART_std.o)
                0x0000be20                USBUART_GetInterfaceClassTablePtr
 .text.USBUART_SetEndpointHalt
                0x0000be6c       0xe0 .\ARM_GCC_493\Debug\PSoC_2_Pi.a(USBUART_std.o)
                0x0000be6c                USBUART_SetEndpointHalt
 .text.USBUART_ClearEndpointHalt
                0x0000bf4c      0x144 .\ARM_GCC_493\Debug\PSoC_2_Pi.a(USBUART_std.o)
                0x0000bf4c                USBUART_ClearEndpointHalt
 .text.USBUART_ValidateAlternateSetting
                0x0000c090       0x78 .\ARM_GCC_493\Debug\PSoC_2_Pi.a(USBUART_std.o)
                0x0000c090                USBUART_ValidateAlternateSetting
 .text.USBUART_HandleVendorRqst
                0x0000c108       0x58 .\ARM_GCC_493\Debug\PSoC_2_Pi.a(USBUART_vnd.o)
                0x0000c108                USBUART_HandleVendorRqst
 .text.EEPROM_Enable
                0x0000c160        0xc .\ARM_GCC_493\Debug\PSoC_2_Pi.a(EEPROM.o)
                0x0000c160                EEPROM_Enable
 .text.EEPROM_Start
                0x0000c16c        0xc .\ARM_GCC_493\Debug\PSoC_2_Pi.a(EEPROM.o)
                0x0000c16c                EEPROM_Start
 .text.EEPROM_ByteWrite
                0x0000c178      0x104 .\ARM_GCC_493\Debug\PSoC_2_Pi.a(EEPROM.o)
                0x0000c178                EEPROM_ByteWrite
 .text.WaveDAC_clk_Start
                0x0000c27c       0x34 .\ARM_GCC_493\Debug\PSoC_2_Pi.a(WaveDAC_clk.o)
                0x0000c27c                WaveDAC_clk_Start
 .text.WaveDAC_clk_Stop
                0x0000c2b0       0x34 .\ARM_GCC_493\Debug\PSoC_2_Pi.a(WaveDAC_clk.o)
                0x0000c2b0                WaveDAC_clk_Stop
 .text.WaveDAC_clk_SetDividerRegister
                0x0000c2e4      0x160 .\ARM_GCC_493\Debug\PSoC_2_Pi.a(WaveDAC_clk.o)
                0x0000c2e4                WaveDAC_clk_SetDividerRegister
 .text.WaveDAC_clk_GetDividerRegister
                0x0000c444       0x18 .\ARM_GCC_493\Debug\PSoC_2_Pi.a(WaveDAC_clk.o)
                0x0000c444                WaveDAC_clk_GetDividerRegister
 .text.WaveDAC_clk_GetSourceRegister
                0x0000c45c       0x20 .\ARM_GCC_493\Debug\PSoC_2_Pi.a(WaveDAC_clk.o)
                0x0000c45c                WaveDAC_clk_GetSourceRegister
 .text.WaveDAC8_1_Init
                0x0000c47c       0x54 .\ARM_GCC_493\Debug\PSoC_2_Pi.a(WaveDAC8_1.o)
                0x0000c47c                WaveDAC8_1_Init
 .text.WaveDAC8_1_Enable
                0x0000c4d0       0x34 .\ARM_GCC_493\Debug\PSoC_2_Pi.a(WaveDAC8_1.o)
                0x0000c4d0                WaveDAC8_1_Enable
 .text.WaveDAC8_1_Start
                0x0000c504       0x20 .\ARM_GCC_493\Debug\PSoC_2_Pi.a(WaveDAC8_1.o)
                0x0000c504                WaveDAC8_1_Start
 .text.WaveDAC8_1_Stop
                0x0000c524       0x28 .\ARM_GCC_493\Debug\PSoC_2_Pi.a(WaveDAC8_1.o)
                0x0000c524                WaveDAC8_1_Stop
 .text.WaveDAC8_1_Wave1Setup
                0x0000c54c       0x70 .\ARM_GCC_493\Debug\PSoC_2_Pi.a(WaveDAC8_1.o)
                0x0000c54c                WaveDAC8_1_Wave1Setup
 .text.WaveDAC8_1_Wave2Setup
                0x0000c5bc       0x70 .\ARM_GCC_493\Debug\PSoC_2_Pi.a(WaveDAC8_1.o)
                0x0000c5bc                WaveDAC8_1_Wave2Setup
 .text.WaveDAC8_1_Sleep
                0x0000c62c       0x28 .\ARM_GCC_493\Debug\PSoC_2_Pi.a(WaveDAC8_1_PM.o)
                0x0000c62c                WaveDAC8_1_Sleep
 .text.WaveDAC8_1_Wakeup
                0x0000c654       0x1c .\ARM_GCC_493\Debug\PSoC_2_Pi.a(WaveDAC8_1_PM.o)
                0x0000c654                WaveDAC8_1_Wakeup
 .text.PWM_CLK_4_SetDividerRegister
                0x0000c670      0x160 .\ARM_GCC_493\Debug\PSoC_2_Pi.a(PWM_CLK_4.o)
                0x0000c670                PWM_CLK_4_SetDividerRegister
 .text.PWM_CLK_4_GetDividerRegister
                0x0000c7d0       0x18 .\ARM_GCC_493\Debug\PSoC_2_Pi.a(PWM_CLK_4.o)
                0x0000c7d0                PWM_CLK_4_GetDividerRegister
 .text.PWM_CLK_4_GetSourceRegister
                0x0000c7e8       0x20 .\ARM_GCC_493\Debug\PSoC_2_Pi.a(PWM_CLK_4.o)
                0x0000c7e8                PWM_CLK_4_GetSourceRegister
 .text.PWM_3_Start
                0x0000c808       0x20 .\ARM_GCC_493\Debug\PSoC_2_Pi.a(PWM_3.o)
                0x0000c808                PWM_3_Start
 .text.PWM_3_Init
                0x0000c828       0x98 .\ARM_GCC_493\Debug\PSoC_2_Pi.a(PWM_3.o)
                0x0000c828                PWM_3_Init
 .text.PWM_3_Enable
                0x0000c8c0       0x20 .\ARM_GCC_493\Debug\PSoC_2_Pi.a(PWM_3.o)
                0x0000c8c0                PWM_3_Enable
 .text.PWM_3_Stop
                0x0000c8e0       0x20 .\ARM_GCC_493\Debug\PSoC_2_Pi.a(PWM_3.o)
                0x0000c8e0                PWM_3_Stop
 .text.PWM_3_WriteCounter
                0x0000c900       0x20 .\ARM_GCC_493\Debug\PSoC_2_Pi.a(PWM_3.o)
                0x0000c900                PWM_3_WriteCounter
 .text.PWM_3_ReadCounter
                0x0000c920       0x20 .\ARM_GCC_493\Debug\PSoC_2_Pi.a(PWM_3.o)
                0x0000c920                PWM_3_ReadCounter
 .text.PWM_3_ClearFIFO
                0x0000c940       0x1c .\ARM_GCC_493\Debug\PSoC_2_Pi.a(PWM_3.o)
                0x0000c940                PWM_3_ClearFIFO
 .text.PWM_3_WritePeriod
                0x0000c95c       0x20 .\ARM_GCC_493\Debug\PSoC_2_Pi.a(PWM_3.o)
                0x0000c95c                PWM_3_WritePeriod
 .text.PWM_3_WriteCompare
                0x0000c97c       0x20 .\ARM_GCC_493\Debug\PSoC_2_Pi.a(PWM_3.o)
                0x0000c97c                PWM_3_WriteCompare
 .text.PWM_3_SetInterruptMode
                0x0000c99c       0x20 .\ARM_GCC_493\Debug\PSoC_2_Pi.a(PWM_3.o)
                0x0000c99c                PWM_3_SetInterruptMode
 .text.PWM_3_ReadStatusRegister
                0x0000c9bc       0x18 .\ARM_GCC_493\Debug\PSoC_2_Pi.a(PWM_3.o)
                0x0000c9bc                PWM_3_ReadStatusRegister
 .text.PWM_3_ReadControlRegister
                0x0000c9d4       0x20 .\ARM_GCC_493\Debug\PSoC_2_Pi.a(PWM_3.o)
                0x0000c9d4                PWM_3_ReadControlRegister
 .text.PWM_3_WriteControlRegister
                0x0000c9f4       0x20 .\ARM_GCC_493\Debug\PSoC_2_Pi.a(PWM_3.o)
                0x0000c9f4                PWM_3_WriteControlRegister
 .text.PWM_3_ReadCapture
                0x0000ca14       0x18 .\ARM_GCC_493\Debug\PSoC_2_Pi.a(PWM_3.o)
                0x0000ca14                PWM_3_ReadCapture
 .text.PWM_3_ReadCompare
                0x0000ca2c       0x18 .\ARM_GCC_493\Debug\PSoC_2_Pi.a(PWM_3.o)
                0x0000ca2c                PWM_3_ReadCompare
 .text.PWM_3_ReadPeriod
                0x0000ca44       0x18 .\ARM_GCC_493\Debug\PSoC_2_Pi.a(PWM_3.o)
                0x0000ca44                PWM_3_ReadPeriod
 .text.PWM_3_SaveConfig
                0x0000ca5c       0x3c .\ARM_GCC_493\Debug\PSoC_2_Pi.a(PWM_3_PM.o)
                0x0000ca5c                PWM_3_SaveConfig
 .text.PWM_3_RestoreConfig
                0x0000ca98       0x34 .\ARM_GCC_493\Debug\PSoC_2_Pi.a(PWM_3_PM.o)
                0x0000ca98                PWM_3_RestoreConfig
 .text.PWM_3_Sleep
                0x0000cacc       0x34 .\ARM_GCC_493\Debug\PSoC_2_Pi.a(PWM_3_PM.o)
                0x0000cacc                PWM_3_Sleep
 .text.PWM_3_Wakeup
                0x0000cb00       0x1c .\ARM_GCC_493\Debug\PSoC_2_Pi.a(PWM_3_PM.o)
                0x0000cb00                PWM_3_Wakeup
 .text.PWM_CLK_3_SetDividerRegister
                0x0000cb1c      0x160 .\ARM_GCC_493\Debug\PSoC_2_Pi.a(PWM_CLK_3.o)
                0x0000cb1c                PWM_CLK_3_SetDividerRegister
 .text.PWM_CLK_3_GetDividerRegister
                0x0000cc7c       0x18 .\ARM_GCC_493\Debug\PSoC_2_Pi.a(PWM_CLK_3.o)
                0x0000cc7c                PWM_CLK_3_GetDividerRegister
 .text.PWM_CLK_3_GetSourceRegister
                0x0000cc94       0x20 .\ARM_GCC_493\Debug\PSoC_2_Pi.a(PWM_CLK_3.o)
                0x0000cc94                PWM_CLK_3_GetSourceRegister
 .text.PWM_6_Start
                0x0000ccb4       0x20 .\ARM_GCC_493\Debug\PSoC_2_Pi.a(PWM_6.o)
                0x0000ccb4                PWM_6_Start
 .text.PWM_6_Init
                0x0000ccd4       0x98 .\ARM_GCC_493\Debug\PSoC_2_Pi.a(PWM_6.o)
                0x0000ccd4                PWM_6_Init
 .text.PWM_6_Enable
                0x0000cd6c       0x20 .\ARM_GCC_493\Debug\PSoC_2_Pi.a(PWM_6.o)
                0x0000cd6c                PWM_6_Enable
 .text.PWM_6_Stop
                0x0000cd8c       0x20 .\ARM_GCC_493\Debug\PSoC_2_Pi.a(PWM_6.o)
                0x0000cd8c                PWM_6_Stop
 .text.PWM_6_WriteCounter
                0x0000cdac       0x20 .\ARM_GCC_493\Debug\PSoC_2_Pi.a(PWM_6.o)
                0x0000cdac                PWM_6_WriteCounter
 .text.PWM_6_ReadCounter
                0x0000cdcc       0x20 .\ARM_GCC_493\Debug\PSoC_2_Pi.a(PWM_6.o)
                0x0000cdcc                PWM_6_ReadCounter
 .text.PWM_6_ClearFIFO
                0x0000cdec       0x1c .\ARM_GCC_493\Debug\PSoC_2_Pi.a(PWM_6.o)
                0x0000cdec                PWM_6_ClearFIFO
 .text.PWM_6_WritePeriod
                0x0000ce08       0x20 .\ARM_GCC_493\Debug\PSoC_2_Pi.a(PWM_6.o)
                0x0000ce08                PWM_6_WritePeriod
 .text.PWM_6_WriteCompare
                0x0000ce28       0x20 .\ARM_GCC_493\Debug\PSoC_2_Pi.a(PWM_6.o)
                0x0000ce28                PWM_6_WriteCompare
 .text.PWM_6_SetInterruptMode
                0x0000ce48       0x20 .\ARM_GCC_493\Debug\PSoC_2_Pi.a(PWM_6.o)
                0x0000ce48                PWM_6_SetInterruptMode
 .text.PWM_6_ReadStatusRegister
                0x0000ce68       0x18 .\ARM_GCC_493\Debug\PSoC_2_Pi.a(PWM_6.o)
                0x0000ce68                PWM_6_ReadStatusRegister
 .text.PWM_6_ReadControlRegister
                0x0000ce80       0x20 .\ARM_GCC_493\Debug\PSoC_2_Pi.a(PWM_6.o)
                0x0000ce80                PWM_6_ReadControlRegister
 .text.PWM_6_WriteControlRegister
                0x0000cea0       0x20 .\ARM_GCC_493\Debug\PSoC_2_Pi.a(PWM_6.o)
                0x0000cea0                PWM_6_WriteControlRegister
 .text.PWM_6_ReadCapture
                0x0000cec0       0x18 .\ARM_GCC_493\Debug\PSoC_2_Pi.a(PWM_6.o)
                0x0000cec0                PWM_6_ReadCapture
 .text.PWM_6_ReadCompare
                0x0000ced8       0x18 .\ARM_GCC_493\Debug\PSoC_2_Pi.a(PWM_6.o)
                0x0000ced8                PWM_6_ReadCompare
 .text.PWM_6_ReadPeriod
                0x0000cef0       0x18 .\ARM_GCC_493\Debug\PSoC_2_Pi.a(PWM_6.o)
                0x0000cef0                PWM_6_ReadPeriod
 .text.PWM_6_SaveConfig
                0x0000cf08       0x3c .\ARM_GCC_493\Debug\PSoC_2_Pi.a(PWM_6_PM.o)
                0x0000cf08                PWM_6_SaveConfig
 .text.PWM_6_RestoreConfig
                0x0000cf44       0x34 .\ARM_GCC_493\Debug\PSoC_2_Pi.a(PWM_6_PM.o)
                0x0000cf44                PWM_6_RestoreConfig
 .text.PWM_6_Sleep
                0x0000cf78       0x34 .\ARM_GCC_493\Debug\PSoC_2_Pi.a(PWM_6_PM.o)
                0x0000cf78                PWM_6_Sleep
 .text.PWM_6_Wakeup
                0x0000cfac       0x1c .\ARM_GCC_493\Debug\PSoC_2_Pi.a(PWM_6_PM.o)
                0x0000cfac                PWM_6_Wakeup
 .text.PWM_5_Start
                0x0000cfc8       0x20 .\ARM_GCC_493\Debug\PSoC_2_Pi.a(PWM_5.o)
                0x0000cfc8                PWM_5_Start
 .text.PWM_5_Init
                0x0000cfe8       0x94 .\ARM_GCC_493\Debug\PSoC_2_Pi.a(PWM_5.o)
                0x0000cfe8                PWM_5_Init
 .text.PWM_5_Enable
                0x0000d07c       0x20 .\ARM_GCC_493\Debug\PSoC_2_Pi.a(PWM_5.o)
                0x0000d07c                PWM_5_Enable
 .text.PWM_5_Stop
                0x0000d09c       0x20 .\ARM_GCC_493\Debug\PSoC_2_Pi.a(PWM_5.o)
                0x0000d09c                PWM_5_Stop
 .text.PWM_5_WriteCounter
                0x0000d0bc       0x20 .\ARM_GCC_493\Debug\PSoC_2_Pi.a(PWM_5.o)
                0x0000d0bc                PWM_5_WriteCounter
 .text.PWM_5_ReadCounter
                0x0000d0dc       0x20 .\ARM_GCC_493\Debug\PSoC_2_Pi.a(PWM_5.o)
                0x0000d0dc                PWM_5_ReadCounter
 .text.PWM_5_ClearFIFO
                0x0000d0fc       0x1c .\ARM_GCC_493\Debug\PSoC_2_Pi.a(PWM_5.o)
                0x0000d0fc                PWM_5_ClearFIFO
 .text.PWM_5_WritePeriod
                0x0000d118       0x20 .\ARM_GCC_493\Debug\PSoC_2_Pi.a(PWM_5.o)
                0x0000d118                PWM_5_WritePeriod
 .text.PWM_5_WriteCompare
                0x0000d138       0x20 .\ARM_GCC_493\Debug\PSoC_2_Pi.a(PWM_5.o)
                0x0000d138                PWM_5_WriteCompare
 .text.PWM_5_SetInterruptMode
                0x0000d158       0x20 .\ARM_GCC_493\Debug\PSoC_2_Pi.a(PWM_5.o)
                0x0000d158                PWM_5_SetInterruptMode
 .text.PWM_5_ReadStatusRegister
                0x0000d178       0x18 .\ARM_GCC_493\Debug\PSoC_2_Pi.a(PWM_5.o)
                0x0000d178                PWM_5_ReadStatusRegister
 .text.PWM_5_ReadControlRegister
                0x0000d190       0x20 .\ARM_GCC_493\Debug\PSoC_2_Pi.a(PWM_5.o)
                0x0000d190                PWM_5_ReadControlRegister
 .text.PWM_5_WriteControlRegister
                0x0000d1b0       0x20 .\ARM_GCC_493\Debug\PSoC_2_Pi.a(PWM_5.o)
                0x0000d1b0                PWM_5_WriteControlRegister
 .text.PWM_5_ReadCapture
                0x0000d1d0       0x18 .\ARM_GCC_493\Debug\PSoC_2_Pi.a(PWM_5.o)
                0x0000d1d0                PWM_5_ReadCapture
 .text.PWM_5_ReadCompare
                0x0000d1e8       0x18 .\ARM_GCC_493\Debug\PSoC_2_Pi.a(PWM_5.o)
                0x0000d1e8                PWM_5_ReadCompare
 .text.PWM_5_ReadPeriod
                0x0000d200       0x18 .\ARM_GCC_493\Debug\PSoC_2_Pi.a(PWM_5.o)
                0x0000d200                PWM_5_ReadPeriod
 .text.PWM_5_SaveConfig
                0x0000d218       0x3c .\ARM_GCC_493\Debug\PSoC_2_Pi.a(PWM_5_PM.o)
                0x0000d218                PWM_5_SaveConfig
 .text.PWM_5_RestoreConfig
                0x0000d254       0x34 .\ARM_GCC_493\Debug\PSoC_2_Pi.a(PWM_5_PM.o)
                0x0000d254                PWM_5_RestoreConfig
 .text.PWM_5_Sleep
                0x0000d288       0x34 .\ARM_GCC_493\Debug\PSoC_2_Pi.a(PWM_5_PM.o)
                0x0000d288                PWM_5_Sleep
 .text.PWM_5_Wakeup
                0x0000d2bc       0x1c .\ARM_GCC_493\Debug\PSoC_2_Pi.a(PWM_5_PM.o)
                0x0000d2bc                PWM_5_Wakeup
 .text.PWM_CLK_2_SetDividerRegister
                0x0000d2d8      0x160 .\ARM_GCC_493\Debug\PSoC_2_Pi.a(PWM_CLK_2.o)
                0x0000d2d8                PWM_CLK_2_SetDividerRegister
 .text.PWM_CLK_2_GetDividerRegister
                0x0000d438       0x18 .\ARM_GCC_493\Debug\PSoC_2_Pi.a(PWM_CLK_2.o)
                0x0000d438                PWM_CLK_2_GetDividerRegister
 .text.PWM_CLK_2_GetSourceRegister
                0x0000d450       0x20 .\ARM_GCC_493\Debug\PSoC_2_Pi.a(PWM_CLK_2.o)
                0x0000d450                PWM_CLK_2_GetSourceRegister
 .text.PWM_4_Start
                0x0000d470       0x20 .\ARM_GCC_493\Debug\PSoC_2_Pi.a(PWM_4.o)
                0x0000d470                PWM_4_Start
 .text.PWM_4_Init
                0x0000d490       0x98 .\ARM_GCC_493\Debug\PSoC_2_Pi.a(PWM_4.o)
                0x0000d490                PWM_4_Init
 .text.PWM_4_Enable
                0x0000d528       0x20 .\ARM_GCC_493\Debug\PSoC_2_Pi.a(PWM_4.o)
                0x0000d528                PWM_4_Enable
 .text.PWM_4_Stop
                0x0000d548       0x20 .\ARM_GCC_493\Debug\PSoC_2_Pi.a(PWM_4.o)
                0x0000d548                PWM_4_Stop
 .text.PWM_4_WriteCounter
                0x0000d568       0x20 .\ARM_GCC_493\Debug\PSoC_2_Pi.a(PWM_4.o)
                0x0000d568                PWM_4_WriteCounter
 .text.PWM_4_ReadCounter
                0x0000d588       0x20 .\ARM_GCC_493\Debug\PSoC_2_Pi.a(PWM_4.o)
                0x0000d588                PWM_4_ReadCounter
 .text.PWM_4_ClearFIFO
                0x0000d5a8       0x1c .\ARM_GCC_493\Debug\PSoC_2_Pi.a(PWM_4.o)
                0x0000d5a8                PWM_4_ClearFIFO
 .text.PWM_4_WritePeriod
                0x0000d5c4       0x20 .\ARM_GCC_493\Debug\PSoC_2_Pi.a(PWM_4.o)
                0x0000d5c4                PWM_4_WritePeriod
 .text.PWM_4_WriteCompare
                0x0000d5e4       0x20 .\ARM_GCC_493\Debug\PSoC_2_Pi.a(PWM_4.o)
                0x0000d5e4                PWM_4_WriteCompare
 .text.PWM_4_SetInterruptMode
                0x0000d604       0x20 .\ARM_GCC_493\Debug\PSoC_2_Pi.a(PWM_4.o)
                0x0000d604                PWM_4_SetInterruptMode
 .text.PWM_4_ReadStatusRegister
                0x0000d624       0x18 .\ARM_GCC_493\Debug\PSoC_2_Pi.a(PWM_4.o)
                0x0000d624                PWM_4_ReadStatusRegister
 .text.PWM_4_ReadControlRegister
                0x0000d63c       0x20 .\ARM_GCC_493\Debug\PSoC_2_Pi.a(PWM_4.o)
                0x0000d63c                PWM_4_ReadControlRegister
 .text.PWM_4_WriteControlRegister
                0x0000d65c       0x20 .\ARM_GCC_493\Debug\PSoC_2_Pi.a(PWM_4.o)
                0x0000d65c                PWM_4_WriteControlRegister
 .text.PWM_4_ReadCapture
                0x0000d67c       0x18 .\ARM_GCC_493\Debug\PSoC_2_Pi.a(PWM_4.o)
                0x0000d67c                PWM_4_ReadCapture
 .text.PWM_4_ReadCompare
                0x0000d694       0x18 .\ARM_GCC_493\Debug\PSoC_2_Pi.a(PWM_4.o)
                0x0000d694                PWM_4_ReadCompare
 .text.PWM_4_ReadPeriod
                0x0000d6ac       0x18 .\ARM_GCC_493\Debug\PSoC_2_Pi.a(PWM_4.o)
                0x0000d6ac                PWM_4_ReadPeriod
 .text.PWM_4_SaveConfig
                0x0000d6c4       0x3c .\ARM_GCC_493\Debug\PSoC_2_Pi.a(PWM_4_PM.o)
                0x0000d6c4                PWM_4_SaveConfig
 .text.PWM_4_RestoreConfig
                0x0000d700       0x34 .\ARM_GCC_493\Debug\PSoC_2_Pi.a(PWM_4_PM.o)
                0x0000d700                PWM_4_RestoreConfig
 .text.PWM_4_Sleep
                0x0000d734       0x34 .\ARM_GCC_493\Debug\PSoC_2_Pi.a(PWM_4_PM.o)
                0x0000d734                PWM_4_Sleep
 .text.PWM_4_Wakeup
                0x0000d768       0x1c .\ARM_GCC_493\Debug\PSoC_2_Pi.a(PWM_4_PM.o)
                0x0000d768                PWM_4_Wakeup
 .text.GPIO_5_6_Write
                0x0000d784       0x3c .\ARM_GCC_493\Debug\PSoC_2_Pi.a(GPIO_5_6.o)
                0x0000d784                GPIO_5_6_Write
 .text.GPIO_5_6_SetDriveMode
                0x0000d7c0       0x38 .\ARM_GCC_493\Debug\PSoC_2_Pi.a(GPIO_5_6.o)
                0x0000d7c0                GPIO_5_6_SetDriveMode
 .text.GPIO_5_6_Read
                0x0000d7f8       0x20 .\ARM_GCC_493\Debug\PSoC_2_Pi.a(GPIO_5_6.o)
                0x0000d7f8                GPIO_5_6_Read
 .text.GPIO_5_7_Write
                0x0000d818       0x34 .\ARM_GCC_493\Debug\PSoC_2_Pi.a(GPIO_5_7.o)
                0x0000d818                GPIO_5_7_Write
 .text.GPIO_5_7_SetDriveMode
                0x0000d84c       0x38 .\ARM_GCC_493\Debug\PSoC_2_Pi.a(GPIO_5_7.o)
                0x0000d84c                GPIO_5_7_SetDriveMode
 .text.GPIO_5_7_Read
                0x0000d884       0x1c .\ARM_GCC_493\Debug\PSoC_2_Pi.a(GPIO_5_7.o)
                0x0000d884                GPIO_5_7_Read
 .text.StripLights_Start
                0x0000d8a0       0x78 .\ARM_GCC_493\Debug\PSoC_2_Pi.a(StripLights.o)
                0x0000d8a0                StripLights_Start
 .text.StripLights_Trigger
                0x0000d918       0xa8 .\ARM_GCC_493\Debug\PSoC_2_Pi.a(StripLights.o)
                0x0000d918                StripLights_Trigger
 .text.StripLights_Ready
                0x0000d9c0       0x2c .\ARM_GCC_493\Debug\PSoC_2_Pi.a(StripLights.o)
                0x0000d9c0                StripLights_Ready
 .text.StripLights_Stop
                0x0000d9ec       0x18 .\ARM_GCC_493\Debug\PSoC_2_Pi.a(StripLights.o)
                0x0000d9ec                StripLights_Stop
 .text.StripLights_ISR
                0x0000da04      0x100 .\ARM_GCC_493\Debug\PSoC_2_Pi.a(StripLights.o)
                0x0000da04                StripLights_ISR
 .text.StripLights_MemClear
                0x0000db04       0x68 .\ARM_GCC_493\Debug\PSoC_2_Pi.a(StripLights.o)
                0x0000db04                StripLights_MemClear
 .text.StripLights_Pixel
                0x0000db6c       0x48 .\ARM_GCC_493\Debug\PSoC_2_Pi.a(StripLights.o)
                0x0000db6c                StripLights_Pixel
 .text.StripLights_Dim
                0x0000dbb4       0x94 .\ARM_GCC_493\Debug\PSoC_2_Pi.a(StripLights.o)
                0x0000dbb4                StripLights_Dim
 .text.StripLights_SetFont
                0x0000dc48       0x60 .\ARM_GCC_493\Debug\PSoC_2_Pi.a(StripLights_fonts.o)
                0x0000dc48                StripLights_SetFont
 .text.ADC_SAR_Seq_1_TempBufDmaInit
                0x0000dca8       0x58 .\ARM_GCC_493\Debug\PSoC_2_Pi.a(ADC_SAR_Seq_1.o)
 .text.ADC_SAR_Seq_1_TempBufDmaRelease
                0x0000dd00       0x74 .\ARM_GCC_493\Debug\PSoC_2_Pi.a(ADC_SAR_Seq_1.o)
 .text.ADC_SAR_Seq_1_FinalBufDmaInit
                0x0000dd74       0x5c .\ARM_GCC_493\Debug\PSoC_2_Pi.a(ADC_SAR_Seq_1.o)
 .text.ADC_SAR_Seq_1_FinalBufDmaRelease
                0x0000ddd0       0x74 .\ARM_GCC_493\Debug\PSoC_2_Pi.a(ADC_SAR_Seq_1.o)
 .text.ADC_SAR_Seq_1_Disable
                0x0000de44       0x58 .\ARM_GCC_493\Debug\PSoC_2_Pi.a(ADC_SAR_Seq_1.o)
                0x0000de44                ADC_SAR_Seq_1_Disable
 .text.ADC_SAR_Seq_1_Init
                0x0000de9c       0x50 .\ARM_GCC_493\Debug\PSoC_2_Pi.a(ADC_SAR_Seq_1.o)
                0x0000de9c                ADC_SAR_Seq_1_Init
 .text.ADC_SAR_Seq_1_Enable
                0x0000deec       0x88 .\ARM_GCC_493\Debug\PSoC_2_Pi.a(ADC_SAR_Seq_1.o)
                0x0000deec                ADC_SAR_Seq_1_Enable
 .text.ADC_SAR_Seq_1_Start
                0x0000df74       0x2c .\ARM_GCC_493\Debug\PSoC_2_Pi.a(ADC_SAR_Seq_1.o)
                0x0000df74                ADC_SAR_Seq_1_Start
 .text.ADC_SAR_Seq_1_Stop
                0x0000dfa0       0x10 .\ARM_GCC_493\Debug\PSoC_2_Pi.a(ADC_SAR_Seq_1.o)
                0x0000dfa0                ADC_SAR_Seq_1_Stop
 .text.ADC_SAR_Seq_1_StartConvert
                0x0000dfb0        0xc .\ARM_GCC_493\Debug\PSoC_2_Pi.a(ADC_SAR_Seq_1.o)
                0x0000dfb0                ADC_SAR_Seq_1_StartConvert
 .text.ADC_SAR_Seq_1_StopConvert
                0x0000dfbc        0xc .\ARM_GCC_493\Debug\PSoC_2_Pi.a(ADC_SAR_Seq_1.o)
                0x0000dfbc                ADC_SAR_Seq_1_StopConvert
 .text.ADC_SAR_Seq_1_IsEndConversion
                0x0000dfc8       0x30 .\ARM_GCC_493\Debug\PSoC_2_Pi.a(ADC_SAR_Seq_1.o)
                0x0000dfc8                ADC_SAR_Seq_1_IsEndConversion
 .text.ADC_SAR_Seq_1_GetResult16
                0x0000dff8       0x3c .\ARM_GCC_493\Debug\PSoC_2_Pi.a(ADC_SAR_Seq_1.o)
                0x0000dff8                ADC_SAR_Seq_1_GetResult16
 .text.ADC_SAR_Seq_1_SetOffset
                0x0000e034       0x1c .\ARM_GCC_493\Debug\PSoC_2_Pi.a(ADC_SAR_Seq_1.o)
                0x0000e034                ADC_SAR_Seq_1_SetOffset
 .text.ADC_SAR_Seq_1_SetResolution
                0x0000e050       0x18 .\ARM_GCC_493\Debug\PSoC_2_Pi.a(ADC_SAR_Seq_1.o)
                0x0000e050                ADC_SAR_Seq_1_SetResolution
 .text.ADC_SAR_Seq_1_CountsTo_uVolts
                0x0000e068       0x20 .\ARM_GCC_493\Debug\PSoC_2_Pi.a(ADC_SAR_Seq_1.o)
                0x0000e068                ADC_SAR_Seq_1_CountsTo_uVolts
 .text.ADC_SAR_Seq_1_ISR
                0x0000e088        0xc .\ARM_GCC_493\Debug\PSoC_2_Pi.a(ADC_SAR_Seq_1_INT.o)
                0x0000e088                ADC_SAR_Seq_1_ISR
 .text.Timer_Init
                0x0000e094       0x9c .\ARM_GCC_493\Debug\PSoC_2_Pi.a(Timer.o)
                0x0000e094                Timer_Init
 .text.Timer_Enable
                0x0000e130       0x48 .\ARM_GCC_493\Debug\PSoC_2_Pi.a(Timer.o)
                0x0000e130                Timer_Enable
 .text.Timer_Start
                0x0000e178       0x20 .\ARM_GCC_493\Debug\PSoC_2_Pi.a(Timer.o)
                0x0000e178                Timer_Start
 .text.Timer_Stop
                0x0000e198       0x48 .\ARM_GCC_493\Debug\PSoC_2_Pi.a(Timer.o)
                0x0000e198                Timer_Stop
 .text.Timer_SetInterruptMode
                0x0000e1e0       0x20 .\ARM_GCC_493\Debug\PSoC_2_Pi.a(Timer.o)
                0x0000e1e0                Timer_SetInterruptMode
 .text.Timer_ReadStatusRegister
                0x0000e200       0x18 .\ARM_GCC_493\Debug\PSoC_2_Pi.a(Timer.o)
                0x0000e200                Timer_ReadStatusRegister
 .text.Timer_ReadPeriod
                0x0000e218       0x18 .\ARM_GCC_493\Debug\PSoC_2_Pi.a(Timer.o)
                0x0000e218                Timer_ReadPeriod
 .text.Timer_WritePeriod
                0x0000e230       0x24 .\ARM_GCC_493\Debug\PSoC_2_Pi.a(Timer.o)
                0x0000e230                Timer_WritePeriod
 .text.Timer_WriteCounter
                0x0000e254       0x20 .\ARM_GCC_493\Debug\PSoC_2_Pi.a(Timer.o)
                0x0000e254                Timer_WriteCounter
 .text.Timer_ReadCounter
                0x0000e274       0x20 .\ARM_GCC_493\Debug\PSoC_2_Pi.a(Timer.o)
                0x0000e274                Timer_ReadCounter
 .text.TIMER_REG_Write
                0x0000e294       0x20 .\ARM_GCC_493\Debug\PSoC_2_Pi.a(TIMER_REG.o)
                0x0000e294                TIMER_REG_Write
 .text.GPIO_12_1_Write
                0x0000e2b4       0x3c .\ARM_GCC_493\Debug\PSoC_2_Pi.a(GPIO_12_1.o)
                0x0000e2b4                GPIO_12_1_Write
 .text.GPIO_12_1_SetDriveMode
                0x0000e2f0       0x38 .\ARM_GCC_493\Debug\PSoC_2_Pi.a(GPIO_12_1.o)
                0x0000e2f0                GPIO_12_1_SetDriveMode
 .text.GPIO_12_1_Read
                0x0000e328       0x20 .\ARM_GCC_493\Debug\PSoC_2_Pi.a(GPIO_12_1.o)
                0x0000e328                GPIO_12_1_Read
 .text.PWM_8_Start
                0x0000e348       0x20 .\ARM_GCC_493\Debug\PSoC_2_Pi.a(PWM_8.o)
                0x0000e348                PWM_8_Start
 .text.PWM_8_Init
                0x0000e368       0x94 .\ARM_GCC_493\Debug\PSoC_2_Pi.a(PWM_8.o)
                0x0000e368                PWM_8_Init
 .text.PWM_8_Enable
                0x0000e3fc       0x20 .\ARM_GCC_493\Debug\PSoC_2_Pi.a(PWM_8.o)
                0x0000e3fc                PWM_8_Enable
 .text.PWM_8_Stop
                0x0000e41c       0x20 .\ARM_GCC_493\Debug\PSoC_2_Pi.a(PWM_8.o)
                0x0000e41c                PWM_8_Stop
 .text.PWM_8_WriteCounter
                0x0000e43c       0x20 .\ARM_GCC_493\Debug\PSoC_2_Pi.a(PWM_8.o)
                0x0000e43c                PWM_8_WriteCounter
 .text.PWM_8_ReadCounter
                0x0000e45c       0x20 .\ARM_GCC_493\Debug\PSoC_2_Pi.a(PWM_8.o)
                0x0000e45c                PWM_8_ReadCounter
 .text.PWM_8_ClearFIFO
                0x0000e47c       0x1c .\ARM_GCC_493\Debug\PSoC_2_Pi.a(PWM_8.o)
                0x0000e47c                PWM_8_ClearFIFO
 .text.PWM_8_WritePeriod
                0x0000e498       0x20 .\ARM_GCC_493\Debug\PSoC_2_Pi.a(PWM_8.o)
                0x0000e498                PWM_8_WritePeriod
 .text.PWM_8_WriteCompare
                0x0000e4b8       0x20 .\ARM_GCC_493\Debug\PSoC_2_Pi.a(PWM_8.o)
                0x0000e4b8                PWM_8_WriteCompare
 .text.PWM_8_SetInterruptMode
                0x0000e4d8       0x20 .\ARM_GCC_493\Debug\PSoC_2_Pi.a(PWM_8.o)
                0x0000e4d8                PWM_8_SetInterruptMode
 .text.PWM_8_ReadStatusRegister
                0x0000e4f8       0x18 .\ARM_GCC_493\Debug\PSoC_2_Pi.a(PWM_8.o)
                0x0000e4f8                PWM_8_ReadStatusRegister
 .text.PWM_8_ReadControlRegister
                0x0000e510       0x20 .\ARM_GCC_493\Debug\PSoC_2_Pi.a(PWM_8.o)
                0x0000e510                PWM_8_ReadControlRegister
 .text.PWM_8_WriteControlRegister
                0x0000e530       0x20 .\ARM_GCC_493\Debug\PSoC_2_Pi.a(PWM_8.o)
                0x0000e530                PWM_8_WriteControlRegister
 .text.PWM_8_ReadCapture
                0x0000e550       0x18 .\ARM_GCC_493\Debug\PSoC_2_Pi.a(PWM_8.o)
                0x0000e550                PWM_8_ReadCapture
 .text.PWM_8_ReadCompare
                0x0000e568       0x18 .\ARM_GCC_493\Debug\PSoC_2_Pi.a(PWM_8.o)
                0x0000e568                PWM_8_ReadCompare
 .text.PWM_8_ReadPeriod
                0x0000e580       0x18 .\ARM_GCC_493\Debug\PSoC_2_Pi.a(PWM_8.o)
                0x0000e580                PWM_8_ReadPeriod
 .text.PWM_8_SaveConfig
                0x0000e598       0x3c .\ARM_GCC_493\Debug\PSoC_2_Pi.a(PWM_8_PM.o)
                0x0000e598                PWM_8_SaveConfig
 .text.PWM_8_RestoreConfig
                0x0000e5d4       0x34 .\ARM_GCC_493\Debug\PSoC_2_Pi.a(PWM_8_PM.o)
                0x0000e5d4                PWM_8_RestoreConfig
 .text.PWM_8_Sleep
                0x0000e608       0x34 .\ARM_GCC_493\Debug\PSoC_2_Pi.a(PWM_8_PM.o)
                0x0000e608                PWM_8_Sleep
 .text.PWM_8_Wakeup
                0x0000e63c       0x1c .\ARM_GCC_493\Debug\PSoC_2_Pi.a(PWM_8_PM.o)
                0x0000e63c                PWM_8_Wakeup
 .text.CapSense_1_CompCH0_Init
                0x0000e658       0x64 .\ARM_GCC_493\Debug\PSoC_2_Pi.a(CapSense_1_CompCH0.o)
                0x0000e658                CapSense_1_CompCH0_Init
 .text.CapSense_1_CompCH0_Enable
                0x0000e6bc       0x34 .\ARM_GCC_493\Debug\PSoC_2_Pi.a(CapSense_1_CompCH0.o)
                0x0000e6bc                CapSense_1_CompCH0_Enable
 .text.CapSense_1_CompCH0_Stop
                0x0000e6f0       0x34 .\ARM_GCC_493\Debug\PSoC_2_Pi.a(CapSense_1_CompCH0.o)
                0x0000e6f0                CapSense_1_CompCH0_Stop
 .text.CapSense_1_CompCH0_SetSpeed
                0x0000e724       0x80 .\ARM_GCC_493\Debug\PSoC_2_Pi.a(CapSense_1_CompCH0.o)
                0x0000e724                CapSense_1_CompCH0_SetSpeed
 .text.CapSense_1_IdacCH0_Init
                0x0000e7a4       0x44 .\ARM_GCC_493\Debug\PSoC_2_Pi.a(CapSense_1_IdacCH0.o)
                0x0000e7a4                CapSense_1_IdacCH0_Init
 .text.CapSense_1_IdacCH0_Enable
                0x0000e7e8       0x34 .\ARM_GCC_493\Debug\PSoC_2_Pi.a(CapSense_1_IdacCH0.o)
                0x0000e7e8                CapSense_1_IdacCH0_Enable
 .text.CapSense_1_IdacCH0_Stop
                0x0000e81c       0x34 .\ARM_GCC_493\Debug\PSoC_2_Pi.a(CapSense_1_IdacCH0.o)
                0x0000e81c                CapSense_1_IdacCH0_Stop
 .text.CapSense_1_IdacCH0_SetSpeed
                0x0000e850       0x40 .\ARM_GCC_493\Debug\PSoC_2_Pi.a(CapSense_1_IdacCH0.o)
                0x0000e850                CapSense_1_IdacCH0_SetSpeed
 .text.CapSense_1_IdacCH0_SetPolarity
                0x0000e890       0x40 .\ARM_GCC_493\Debug\PSoC_2_Pi.a(CapSense_1_IdacCH0.o)
                0x0000e890                CapSense_1_IdacCH0_SetPolarity
 .text.CapSense_1_IdacCH0_SetRange
                0x0000e8d0       0x40 .\ARM_GCC_493\Debug\PSoC_2_Pi.a(CapSense_1_IdacCH0.o)
                0x0000e8d0                CapSense_1_IdacCH0_SetRange
 .text.CapSense_1_IdacCH0_SetValue
                0x0000e910       0x20 .\ARM_GCC_493\Debug\PSoC_2_Pi.a(CapSense_1_IdacCH0.o)
                0x0000e910                CapSense_1_IdacCH0_SetValue
 .text.CapSense_1_IdacCH0_DacTrim
                0x0000e930       0x54 .\ARM_GCC_493\Debug\PSoC_2_Pi.a(CapSense_1_IdacCH0.o)
                0x0000e930                CapSense_1_IdacCH0_DacTrim
 .text.CapSense_1_AMuxCH0_Init
                0x0000e984        0xc .\ARM_GCC_493\Debug\PSoC_2_Pi.a(CapSense_1_AMuxCH0.o)
                0x0000e984                CapSense_1_AMuxCH0_Init
 .text.CapSense_1_AMuxCH0_DisconnectAll
                0x0000e990       0x28 .\ARM_GCC_493\Debug\PSoC_2_Pi.a(CapSense_1_AMuxCH0.o)
                0x0000e990                CapSense_1_AMuxCH0_DisconnectAll
 .text.CapSense_1_IntClock_Start
                0x0000e9b8       0x34 .\ARM_GCC_493\Debug\PSoC_2_Pi.a(CapSense_1_IntClock.o)
                0x0000e9b8                CapSense_1_IntClock_Start
 .text.CapSense_1_IntClock_Stop
                0x0000e9ec       0x34 .\ARM_GCC_493\Debug\PSoC_2_Pi.a(CapSense_1_IntClock.o)
                0x0000e9ec                CapSense_1_IntClock_Stop
 .text.WaveDAC8_1_Wave1_DMA_DmaInitialize
                0x0000ea20       0x68 .\ARM_GCC_493\Debug\PSoC_2_Pi.a(WaveDAC8_1_Wave1_DMA_dma.o)
                0x0000ea20                WaveDAC8_1_Wave1_DMA_DmaInitialize
 .text.WaveDAC8_1_Wave2_DMA_DmaInitialize
                0x0000ea88       0x68 .\ARM_GCC_493\Debug\PSoC_2_Pi.a(WaveDAC8_1_Wave2_DMA_dma.o)
                0x0000ea88                WaveDAC8_1_Wave2_DMA_DmaInitialize
 .text.WaveDAC8_1_VDAC8_Init
                0x0000eaf0       0x3c .\ARM_GCC_493\Debug\PSoC_2_Pi.a(WaveDAC8_1_VDAC8.o)
                0x0000eaf0                WaveDAC8_1_VDAC8_Init
 .text.WaveDAC8_1_VDAC8_Enable
                0x0000eb2c       0x34 .\ARM_GCC_493\Debug\PSoC_2_Pi.a(WaveDAC8_1_VDAC8.o)
                0x0000eb2c                WaveDAC8_1_VDAC8_Enable
 .text.WaveDAC8_1_VDAC8_Stop
                0x0000eb60       0x34 .\ARM_GCC_493\Debug\PSoC_2_Pi.a(WaveDAC8_1_VDAC8.o)
                0x0000eb60                WaveDAC8_1_VDAC8_Stop
 .text.WaveDAC8_1_VDAC8_SetSpeed
                0x0000eb94       0x40 .\ARM_GCC_493\Debug\PSoC_2_Pi.a(WaveDAC8_1_VDAC8.o)
                0x0000eb94                WaveDAC8_1_VDAC8_SetSpeed
 .text.WaveDAC8_1_VDAC8_SetRange
                0x0000ebd4       0x40 .\ARM_GCC_493\Debug\PSoC_2_Pi.a(WaveDAC8_1_VDAC8.o)
                0x0000ebd4                WaveDAC8_1_VDAC8_SetRange
 .text.WaveDAC8_1_VDAC8_SetValue
                0x0000ec14       0x20 .\ARM_GCC_493\Debug\PSoC_2_Pi.a(WaveDAC8_1_VDAC8.o)
                0x0000ec14                WaveDAC8_1_VDAC8_SetValue
 .text.WaveDAC8_1_VDAC8_DacTrim
                0x0000ec34       0x3c .\ARM_GCC_493\Debug\PSoC_2_Pi.a(WaveDAC8_1_VDAC8.o)
                0x0000ec34                WaveDAC8_1_VDAC8_DacTrim
 .text.WaveDAC8_1_VDAC8_SaveConfig
                0x0000ec70       0x30 .\ARM_GCC_493\Debug\PSoC_2_Pi.a(WaveDAC8_1_VDAC8_PM.o)
                0x0000ec70                WaveDAC8_1_VDAC8_SaveConfig
 .text.WaveDAC8_1_VDAC8_RestoreConfig
                0x0000eca0       0x6c .\ARM_GCC_493\Debug\PSoC_2_Pi.a(WaveDAC8_1_VDAC8_PM.o)
                0x0000eca0                WaveDAC8_1_VDAC8_RestoreConfig
 .text.WaveDAC8_1_BuffAmp_Init
                0x0000ed0c        0xc .\ARM_GCC_493\Debug\PSoC_2_Pi.a(WaveDAC8_1_BuffAmp.o)
                0x0000ed0c                WaveDAC8_1_BuffAmp_Init
 .text.WaveDAC8_1_BuffAmp_Enable
                0x0000ed18       0x48 .\ARM_GCC_493\Debug\PSoC_2_Pi.a(WaveDAC8_1_BuffAmp.o)
                0x0000ed18                WaveDAC8_1_BuffAmp_Enable
 .text.WaveDAC8_1_BuffAmp_SetPower
                0x0000ed60       0x40 .\ARM_GCC_493\Debug\PSoC_2_Pi.a(WaveDAC8_1_BuffAmp.o)
                0x0000ed60                WaveDAC8_1_BuffAmp_SetPower
 .text.StripLights_isr_StartEx
                0x0000eda0       0x24 .\ARM_GCC_493\Debug\PSoC_2_Pi.a(StripLights_isr.o)
                0x0000eda0                StripLights_isr_StartEx
 .text.StripLights_isr_SetVector
                0x0000edc4       0x24 .\ARM_GCC_493\Debug\PSoC_2_Pi.a(StripLights_isr.o)
                0x0000edc4                StripLights_isr_SetVector
 .text.StripLights_isr_SetPriority
                0x0000ede8       0x24 .\ARM_GCC_493\Debug\PSoC_2_Pi.a(StripLights_isr.o)
                0x0000ede8                StripLights_isr_SetPriority
 .text.StripLights_isr_Enable
                0x0000ee0c       0x18 .\ARM_GCC_493\Debug\PSoC_2_Pi.a(StripLights_isr.o)
                0x0000ee0c                StripLights_isr_Enable
 .text.StripLights_isr_Disable
                0x0000ee24       0x18 .\ARM_GCC_493\Debug\PSoC_2_Pi.a(StripLights_isr.o)
                0x0000ee24                StripLights_isr_Disable
 .text.ADC_SAR_Seq_1_SAR_Start
                0x0000ee3c       0x20 .\ARM_GCC_493\Debug\PSoC_2_Pi.a(ADC_SAR_Seq_1_SAR.o)
                0x0000ee3c                ADC_SAR_Seq_1_SAR_Start
 .text.ADC_SAR_Seq_1_SAR_Init
                0x0000ee5c       0x2c .\ARM_GCC_493\Debug\PSoC_2_Pi.a(ADC_SAR_Seq_1_SAR.o)
                0x0000ee5c                ADC_SAR_Seq_1_SAR_Init
 .text.ADC_SAR_Seq_1_SAR_Enable
                0x0000ee88       0xc0 .\ARM_GCC_493\Debug\PSoC_2_Pi.a(ADC_SAR_Seq_1_SAR.o)
                0x0000ee88                ADC_SAR_Seq_1_SAR_Enable
 .text.ADC_SAR_Seq_1_SAR_Stop
                0x0000ef48       0x58 .\ARM_GCC_493\Debug\PSoC_2_Pi.a(ADC_SAR_Seq_1_SAR.o)
                0x0000ef48                ADC_SAR_Seq_1_SAR_Stop
 .text.ADC_SAR_Seq_1_SAR_SetResolution
                0x0000efa0       0x50 .\ARM_GCC_493\Debug\PSoC_2_Pi.a(ADC_SAR_Seq_1_SAR.o)
                0x0000efa0                ADC_SAR_Seq_1_SAR_SetResolution
 .text.ADC_SAR_Seq_1_SAR_StartConvert
                0x0000eff0       0x20 .\ARM_GCC_493\Debug\PSoC_2_Pi.a(ADC_SAR_Seq_1_SAR.o)
                0x0000eff0                ADC_SAR_Seq_1_SAR_StartConvert
 .text.ADC_SAR_Seq_1_SAR_StopConvert
                0x0000f010       0x20 .\ARM_GCC_493\Debug\PSoC_2_Pi.a(ADC_SAR_Seq_1_SAR.o)
                0x0000f010                ADC_SAR_Seq_1_SAR_StopConvert
 .text.ADC_SAR_Seq_1_SAR_SetOffset
                0x0000f030       0x20 .\ARM_GCC_493\Debug\PSoC_2_Pi.a(ADC_SAR_Seq_1_SAR.o)
                0x0000f030                ADC_SAR_Seq_1_SAR_SetOffset
 .text.ADC_SAR_Seq_1_SAR_CalcGain
                0x0000f050       0x80 .\ARM_GCC_493\Debug\PSoC_2_Pi.a(ADC_SAR_Seq_1_SAR.o)
 .text.ADC_SAR_Seq_1_SAR_CountsTo_uVolts
                0x0000f0d0       0x94 .\ARM_GCC_493\Debug\PSoC_2_Pi.a(ADC_SAR_Seq_1_SAR.o)
                0x0000f0d0                ADC_SAR_Seq_1_SAR_CountsTo_uVolts
 .text.ADC_SAR_Seq_1_TempBuf_DmaInitialize
                0x0000f164       0x68 .\ARM_GCC_493\Debug\PSoC_2_Pi.a(ADC_SAR_Seq_1_TempBuf_dma.o)
                0x0000f164                ADC_SAR_Seq_1_TempBuf_DmaInitialize
 .text.ADC_SAR_Seq_1_FinalBuf_DmaInitialize
                0x0000f1cc       0x68 .\ARM_GCC_493\Debug\PSoC_2_Pi.a(ADC_SAR_Seq_1_FinalBuf_dma.o)
                0x0000f1cc                ADC_SAR_Seq_1_FinalBuf_DmaInitialize
 .text.ADC_SAR_Seq_1_IRQ_SetVector
                0x0000f234       0x24 .\ARM_GCC_493\Debug\PSoC_2_Pi.a(ADC_SAR_Seq_1_IRQ.o)
                0x0000f234                ADC_SAR_Seq_1_IRQ_SetVector
 .text.ADC_SAR_Seq_1_IRQ_SetPriority
                0x0000f258       0x24 .\ARM_GCC_493\Debug\PSoC_2_Pi.a(ADC_SAR_Seq_1_IRQ.o)
                0x0000f258                ADC_SAR_Seq_1_IRQ_SetPriority
 *fill*         0x0000f27c        0x4 
 .text          0x0000f280       0x20 .\ARM_GCC_493\Debug\PSoC_2_Pi.a(CyBootAsmGnu.o)
                0x0000f280                CyDelayCycles
                0x0000f290                CyEnterCriticalSection
                0x0000f298                CyExitCriticalSection
 .text.CyDmacConfigure
                0x0000f2a0       0x5c .\ARM_GCC_493\Debug\PSoC_2_Pi.a(CyDmac.o)
                0x0000f2a0                CyDmacConfigure
 .text.CyDmaChEnable
                0x0000f2fc       0x8c .\ARM_GCC_493\Debug\PSoC_2_Pi.a(CyDmac.o)
                0x0000f2fc                CyDmaChEnable
 .text.CyDmaChDisable
                0x0000f388       0x64 .\ARM_GCC_493\Debug\PSoC_2_Pi.a(CyDmac.o)
                0x0000f388                CyDmaChDisable
 .text.CyDmaChPriority
                0x0000f3ec       0x60 .\ARM_GCC_493\Debug\PSoC_2_Pi.a(CyDmac.o)
                0x0000f3ec                CyDmaChPriority
 .text.CyDmaChSetExtendedAddress
                0x0000f44c       0x7c .\ARM_GCC_493\Debug\PSoC_2_Pi.a(CyDmac.o)
                0x0000f44c                CyDmaChSetExtendedAddress
 .text.CyDmaChSetInitialTd
                0x0000f4c8       0x3c .\ARM_GCC_493\Debug\PSoC_2_Pi.a(CyDmac.o)
                0x0000f4c8                CyDmaChSetInitialTd
 .text.CyDmaChSetRequest
                0x0000f504       0x58 .\ARM_GCC_493\Debug\PSoC_2_Pi.a(CyDmac.o)
                0x0000f504                CyDmaChSetRequest
 .text.CyDmaChSetConfiguration
                0x0000f55c       0xa0 .\ARM_GCC_493\Debug\PSoC_2_Pi.a(CyDmac.o)
                0x0000f55c                CyDmaChSetConfiguration
 .text.CyDmaTdAllocate
                0x0000f5fc       0x5c .\ARM_GCC_493\Debug\PSoC_2_Pi.a(CyDmac.o)
                0x0000f5fc                CyDmaTdAllocate
 .text.CyDmaTdFree
                0x0000f658       0x54 .\ARM_GCC_493\Debug\PSoC_2_Pi.a(CyDmac.o)
                0x0000f658                CyDmaTdFree
 .text.CyDmaTdSetConfiguration
                0x0000f6ac       0x80 .\ARM_GCC_493\Debug\PSoC_2_Pi.a(CyDmac.o)
                0x0000f6ac                CyDmaTdSetConfiguration
 .text.CyDmaTdSetAddress
                0x0000f72c       0x5c .\ARM_GCC_493\Debug\PSoC_2_Pi.a(CyDmac.o)
                0x0000f72c                CyDmaTdSetAddress
 .text.CyEEPROM_Start
                0x0000f788       0x8c .\ARM_GCC_493\Debug\PSoC_2_Pi.a(CyFlash.o)
                0x0000f788                CyEEPROM_Start
 .text.CyHalt   0x0000f814       0x18 .\ARM_GCC_493\Debug\PSoC_2_Pi.a(CyLib.o)
                0x0000f814                CyHalt
 .text.CySoftwareReset
                0x0000f82c       0x20 .\ARM_GCC_493\Debug\PSoC_2_Pi.a(CyLib.o)
                0x0000f82c                CySoftwareReset
 .text.CyDelayUs
                0x0000f84c       0x24 .\ARM_GCC_493\Debug\PSoC_2_Pi.a(CyLib.o)
                0x0000f84c                CyDelayUs
 .text.CyIntSetVector
                0x0000f870       0x50 .\ARM_GCC_493\Debug\PSoC_2_Pi.a(CyLib.o)
                0x0000f870                CyIntSetVector
 .text.CyIntSetPriority
                0x0000f8c0       0x44 .\ARM_GCC_493\Debug\PSoC_2_Pi.a(CyLib.o)
                0x0000f8c0                CyIntSetPriority
 .text.CySpcStart
                0x0000f904       0x44 .\ARM_GCC_493\Debug\PSoC_2_Pi.a(CySpc.o)
                0x0000f904                CySpcStart
 .text.CySpcLoadMultiByte
                0x0000f948       0xd4 .\ARM_GCC_493\Debug\PSoC_2_Pi.a(CySpc.o)
                0x0000f948                CySpcLoadMultiByte
 .text.CySpcWriteRow
                0x0000fa1c       0x98 .\ARM_GCC_493\Debug\PSoC_2_Pi.a(CySpc.o)
                0x0000fa1c                CySpcWriteRow
 .text.CySpcLock
                0x0000fab4       0x68 .\ARM_GCC_493\Debug\PSoC_2_Pi.a(CySpc.o)
                0x0000fab4                CySpcLock
 .text.CySpcUnlock
                0x0000fb1c       0x50 .\ARM_GCC_493\Debug\PSoC_2_Pi.a(CySpc.o)
                0x0000fb1c                CySpcUnlock
 .text.USBUART_DispatchClassRqst
                0x0000fb6c       0x8c .\ARM_GCC_493\Debug\PSoC_2_Pi.a(USBUART_cls.o)
                0x0000fb6c                USBUART_DispatchClassRqst
 .text          0x0000fbf8      0x370 c:/program files (x86)/cypress/psoc creator/3.3/psoc creator/import/gnu/arm/4.9.3/bin/../lib/gcc/arm-none-eabi/4.9.3/armv7-m\libgcc.a(_arm_addsubdf3.o)
                0x0000fbf8                __aeabi_drsub
                0x0000fc00                __aeabi_dsub
                0x0000fc00                __subdf3
                0x0000fc04                __aeabi_dadd
                0x0000fc04                __adddf3
                0x0000fe7c                __floatunsidf
                0x0000fe7c                __aeabi_ui2d
                0x0000fe9c                __floatsidf
                0x0000fe9c                __aeabi_i2d
                0x0000fec0                __aeabi_f2d
                0x0000fec0                __extendsfdf2
                0x0000fefc                __floatundidf
                0x0000fefc                __aeabi_ul2d
                0x0000ff0c                __floatdidf
                0x0000ff0c                __aeabi_l2d
 .text          0x0000ff68      0x424 c:/program files (x86)/cypress/psoc creator/3.3/psoc creator/import/gnu/arm/4.9.3/bin/../lib/gcc/arm-none-eabi/4.9.3/armv7-m\libgcc.a(_arm_muldivdf3.o)
                0x0000ff68                __aeabi_dmul
                0x0000ff68                __muldf3
                0x000101bc                __divdf3
                0x000101bc                __aeabi_ddiv
 .text          0x0001038c      0x110 c:/program files (x86)/cypress/psoc creator/3.3/psoc creator/import/gnu/arm/4.9.3/bin/../lib/gcc/arm-none-eabi/4.9.3/armv7-m\libgcc.a(_arm_cmpdf2.o)
                0x0001038c                __gtdf2
                0x0001038c                __gedf2
                0x00010394                __ltdf2
                0x00010394                __ledf2
                0x0001039c                __nedf2
                0x0001039c                __eqdf2
                0x0001039c                __cmpdf2
                0x00010418                __aeabi_cdrcmple
                0x00010428                __aeabi_cdcmpeq
                0x00010428                __aeabi_cdcmple
                0x00010438                __aeabi_dcmpeq
                0x0001044c                __aeabi_dcmplt
                0x00010460                __aeabi_dcmple
                0x00010474                __aeabi_dcmpge
                0x00010488                __aeabi_dcmpgt
 .text          0x0001049c       0x40 c:/program files (x86)/cypress/psoc creator/3.3/psoc creator/import/gnu/arm/4.9.3/bin/../lib/gcc/arm-none-eabi/4.9.3/armv7-m\libgcc.a(_arm_fixunsdfsi.o)
                0x0001049c                __aeabi_d2uiz
                0x0001049c                __fixunsdfsi
 .text          0x000104dc       0x38 c:/program files (x86)/cypress/psoc creator/3.3/psoc creator/import/gnu/arm/4.9.3/bin/../lib/gcc/arm-none-eabi/4.9.3/armv7-m\libgcc.a(_aeabi_ldivmod.o)
                0x000104dc                __aeabi_ldivmod
 .text          0x00010514       0x60 c:/program files (x86)/cypress/psoc creator/3.3/psoc creator/import/gnu/arm/4.9.3/bin/../lib/gcc/arm-none-eabi/4.9.3/armv7-m\libgcc.a(bpabi.o)
                0x00010514                __gnu_ldivmod_helper
                0x00010544                __gnu_uldivmod_helper
 .text          0x00010574        0x4 c:/program files (x86)/cypress/psoc creator/3.3/psoc creator/import/gnu/arm/4.9.3/bin/../lib/gcc/arm-none-eabi/4.9.3/armv7-m\libgcc.a(_dvmd_tls.o)
                0x00010574                __aeabi_idiv0
                0x00010574                __aeabi_ldiv0
 .text          0x00010578      0x2ac c:/program files (x86)/cypress/psoc creator/3.3/psoc creator/import/gnu/arm/4.9.3/bin/../lib/gcc/arm-none-eabi/4.9.3/armv7-m\libgcc.a(_divdi3.o)
                0x00010578                __divdi3
 .text          0x00010824      0x270 c:/program files (x86)/cypress/psoc creator/3.3/psoc creator/import/gnu/arm/4.9.3/bin/../lib/gcc/arm-none-eabi/4.9.3/armv7-m\libgcc.a(_udivdi3.o)
                0x00010824                __udivdi3
 .text.__libc_init_array
                0x00010a94       0x4c c:/program files (x86)/cypress/psoc creator/3.3/psoc creator/import/gnu/arm/4.9.3/bin/../lib/gcc/arm-none-eabi/4.9.3/../../../../arm-none-eabi/lib/armv7-m\libg_nano.a(lib_a-init.o)
                0x00010a94                __libc_init_array
 .text.memcpy   0x00010ae0       0x16 c:/program files (x86)/cypress/psoc creator/3.3/psoc creator/import/gnu/arm/4.9.3/bin/../lib/gcc/arm-none-eabi/4.9.3/../../../../arm-none-eabi/lib/armv7-m\libg_nano.a(lib_a-memcpy.o)
                0x00010ae0                memcpy
 .text.memset   0x00010af6       0x10 c:/program files (x86)/cypress/psoc creator/3.3/psoc creator/import/gnu/arm/4.9.3/bin/../lib/gcc/arm-none-eabi/4.9.3/../../../../arm-none-eabi/lib/armv7-m\libg_nano.a(lib_a-memset.o)
                0x00010af6                memset
 *(.plt)
 *(.gnu.warning)
 *(.glue_7t)
 .glue_7t       0x00000000        0x0 linker stubs
 *(.glue_7)
 .glue_7        0x00000000        0x0 linker stubs
 *(.vfp11_veneer)
 .vfp11_veneer  0x00000000        0x0 linker stubs
 *(.bootloader)
 *(.ARM.extab* .gnu.linkonce.armextab.*)
 *(.gcc_except_table)

.v4_bx          0x00010b08        0x0
 .v4_bx         0x00000000        0x0 linker stubs

.iplt           0x00010b08        0x0
 .iplt          0x00000000        0x0 c:/program files (x86)/cypress/psoc creator/3.3/psoc creator/import/gnu/arm/4.9.3/bin/../lib/gcc/arm-none-eabi/4.9.3/armv7-m/crtbegin.o

.eh_frame_hdr
 *(.eh_frame_hdr)

.eh_frame       0x00010b08        0x4
 *(.eh_frame)
 .eh_frame      0x00010b08        0x0 c:/program files (x86)/cypress/psoc creator/3.3/psoc creator/import/gnu/arm/4.9.3/bin/../lib/gcc/arm-none-eabi/4.9.3/armv7-m/crtbegin.o
 .eh_frame      0x00010b08        0x4 c:/program files (x86)/cypress/psoc creator/3.3/psoc creator/import/gnu/arm/4.9.3/bin/../lib/gcc/arm-none-eabi/4.9.3/armv7-m/crtend.o
                0x00010b0c                PROVIDE (__exidx_start, .)

.ARM.exidx      0x00010b0c        0x8
 *(.ARM.exidx* .gnu.linkonce.armexidx.*)
 .ARM.exidx     0x00010b0c        0x8 c:/program files (x86)/cypress/psoc creator/3.3/psoc creator/import/gnu/arm/4.9.3/bin/../lib/gcc/arm-none-eabi/4.9.3/armv7-m\libgcc.a(_divdi3.o)
 .ARM.exidx     0x00010b14        0x0 c:/program files (x86)/cypress/psoc creator/3.3/psoc creator/import/gnu/arm/4.9.3/bin/../lib/gcc/arm-none-eabi/4.9.3/armv7-m\libgcc.a(_udivdi3.o)
                                  0x8 (size before relaxing)
                0x00010b14                __exidx_end = .

.rodata         0x00010b14      0x9dc
 *(.rodata .rodata.* .gnu.linkonce.r.*)
 .rodata        0x00010b14      0x400 .\ARM_GCC_493\Debug\mem1.o
 .rodata        0x00010f14        0x8 .\ARM_GCC_493\Debug\LINX.o
 .rodata        0x00010f1c       0x64 .\ARM_GCC_493\Debug\PSoC_2_Pi.a(cyfitter_cfg.o)
                0x00010f1c                CapSense_1_AMuxCH0__addrTable
                0x00010f48                CapSense_1_AMuxCH0__maskTable
 .rodata        0x00010f80       0x68 .\ARM_GCC_493\Debug\PSoC_2_Pi.a(CapSense_1.o)
                0x00010f80                CapSense_1_pcTable
                0x00010fa0                CapSense_1_portTable
                0x00010fa8                CapSense_1_maskTable
                0x00010fb0                CapSense_1_csTable
                0x00010fd0                CapSense_1_idacSettings
                0x00010fd8                CapSense_1_widgetResolution
                0x00010fe0                CapSense_1_widgetNumber
 .rodata        0x00010fe8       0x30 .\ARM_GCC_493\Debug\PSoC_2_Pi.a(CapSense_1_CSHL.o)
                0x00010fe8                CapSense_1_fingerThreshold
                0x00010ff0                CapSense_1_noiseThreshold
                0x00010ff8                CapSense_1_hysteresis
                0x00011000                CapSense_1_debounce
                0x00011008                CapSense_1_rawDataIndex
                0x00011010                CapSense_1_numberOfSensors
 .rodata        0x00011018       0x14 .\ARM_GCC_493\Debug\PSoC_2_Pi.a(USBUART_std.o)
 .rodata        0x0001102c       0xc8 .\ARM_GCC_493\Debug\PSoC_2_Pi.a(WaveDAC8_1.o)
                0x0001102c                WaveDAC8_1_wave1
                0x00011090                WaveDAC8_1_wave2
 .rodata        0x000110f4      0x1e0 .\ARM_GCC_493\Debug\PSoC_2_Pi.a(StripLights_fonts.o)
                0x000110f4                StripLights_Font5x7
 .rodata        0x000112d4      0x1e8 .\ARM_GCC_493\Debug\PSoC_2_Pi.a(USBUART_descr.o)
                0x000112d4                USBUART_DEVICE0_DESCR
                0x000112e8                USBUART_DEVICE0_CONFIGURATION0_DESCR
                0x0001132c                USBUART_STRING_DESCRIPTORS
                0x00011420                USBUART_SN_STRING_DESCRIPTOR
                0x00011424                USBUART_DEVICE0_CONFIGURATION0_EP_SETTINGS_TABLE
                0x0001143c                USBUART_DEVICE0_CONFIGURATION0_INTERFACE_CLASS
                0x00011440                USBUART_DEVICE0_CONFIGURATION0_TABLE
                0x00011468                USBUART_DEVICE0_TABLE
                0x00011478                USBUART_TABLE
                0x00011480                USBUART_MSOS_DESCRIPTOR
                0x00011494                USBUART_MSOS_CONFIGURATION_DESCR
                0x000114bc                . = ALIGN (0x4)
 *(.init)
 .init          0x000114bc        0x4 c:/program files (x86)/cypress/psoc creator/3.3/psoc creator/import/gnu/arm/4.9.3/bin/../lib/gcc/arm-none-eabi/4.9.3/armv7-m/crti.o
                0x000114bc                _init
 .init          0x000114c0        0x8 c:/program files (x86)/cypress/psoc creator/3.3/psoc creator/import/gnu/arm/4.9.3/bin/../lib/gcc/arm-none-eabi/4.9.3/armv7-m/crtn.o
                0x000114c8                . = ALIGN (0x4)
                0x000114c8                __preinit_array_start = .
 *(.preinit_array)
                0x000114c8                __preinit_array_end = .
                0x000114c8                . = ALIGN (0x4)
                0x000114c8                __init_array_start = .
 *(SORT(.init_array.*))
 *(.init_array)
 .init_array    0x000114c8        0x4 c:/program files (x86)/cypress/psoc creator/3.3/psoc creator/import/gnu/arm/4.9.3/bin/../lib/gcc/arm-none-eabi/4.9.3/armv7-m/crtbegin.o
 .init_array    0x000114cc        0x4 .\ARM_GCC_493\Debug\Cm3Start.o
                0x000114d0                __init_array_end = .
                0x000114d0                . = ALIGN (0x4)
 *(.fini)
 .fini          0x000114d0        0x4 c:/program files (x86)/cypress/psoc creator/3.3/psoc creator/import/gnu/arm/4.9.3/bin/../lib/gcc/arm-none-eabi/4.9.3/armv7-m/crti.o
                0x000114d0                _fini
 .fini          0x000114d4        0x8 c:/program files (x86)/cypress/psoc creator/3.3/psoc creator/import/gnu/arm/4.9.3/bin/../lib/gcc/arm-none-eabi/4.9.3/armv7-m/crtn.o
                0x000114dc                . = ALIGN (0x4)
                0x000114dc                __fini_array_start = .
 *(.fini_array)
 .fini_array    0x000114dc        0x4 c:/program files (x86)/cypress/psoc creator/3.3/psoc creator/import/gnu/arm/4.9.3/bin/../lib/gcc/arm-none-eabi/4.9.3/armv7-m/crtbegin.o
 *(SORT(.fini_array.*))
                0x000114e0                __fini_array_end = .
                0x000114e0                . = ALIGN (0x4)
 *crtbegin.o(.ctors)
 *(EXCLUDE_FILE(*crtend.o) .ctors)
 *(SORT(.ctors.*))
 *crtend.o(.ctors)
                0x000114e0                . = ALIGN (0x4)
 *crtbegin.o(.dtors)
 *(EXCLUDE_FILE(*crtend.o) .dtors)
 *(SORT(.dtors.*))
 *crtend.o(.dtors)
                0x000114e0                . = ALIGN (0x4)
                0x000114e0                __cy_regions = .
                0x000114e0        0x4 LONG 0x114f0 __cy_region_init_ram
                0x000114e4        0x4 LONG 0x1fff8108 __cy_region_start_data
                0x000114e8        0x4 LONG 0x38 __cy_region_init_size_ram
                0x000114ec        0x4 LONG 0x2f8 __cy_region_zero_size_ram
                0x000114f0                __cy_regions_end = .
                0x000114f0                . = ALIGN (0x8)
                0x000114f0                _etext = .

.ramvectors     0x1fff8000      0x100
                0x1fff8000                __cy_region_start_ram = .
 *(.ramvectors)
 .ramvectors    0x1fff8000      0x100 .\ARM_GCC_493\Debug\Cm3Start.o
                0x1fff8000                CyRamVectors

.noinit         0x1fff8100        0x5
 *(.noinit)
 .noinit        0x1fff8100        0x4 .\ARM_GCC_493\Debug\Cm3Start.o
 .noinit        0x1fff8104        0x1 .\ARM_GCC_493\Debug\PSoC_2_Pi.a(CyLib.o)
                0x1fff8104                CyResetStatus

.data           0x1fff8108       0x38 load address 0x000114f0
                0x1fff8108                __cy_region_start_data = .
 *(.jcr)
 .jcr           0x1fff8108        0x0 c:/program files (x86)/cypress/psoc creator/3.3/psoc creator/import/gnu/arm/4.9.3/bin/../lib/gcc/arm-none-eabi/4.9.3/armv7-m/crtbegin.o
 .jcr           0x1fff8108        0x4 c:/program files (x86)/cypress/psoc creator/3.3/psoc creator/import/gnu/arm/4.9.3/bin/../lib/gcc/arm-none-eabi/4.9.3/armv7-m/crtend.o
 *(.got.plt)
 *(.got)
 *(.shdata)
 *(.data .data.* .gnu.linkonce.d.*)
 .data          0x1fff810c        0xc .\ARM_GCC_493\Debug\PSoC_2_Pi.a(CapSense_1.o)
                0x1fff810c                CapSense_1_sensorEnableMask
                0x1fff8110                CapSense_1_analogSwitchDivider
 .data          0x1fff8118        0x8 .\ARM_GCC_493\Debug\PSoC_2_Pi.a(USBUART_cdc.o)
                0x1fff8118                USBUART_lineCoding
 .data          0x1fff8120        0x1 .\ARM_GCC_493\Debug\PSoC_2_Pi.a(WaveDAC8_1_Wave1_DMA_dma.o)
                0x1fff8120                WaveDAC8_1_Wave1_DMA_DmaHandle
 .data          0x1fff8121        0x1 .\ARM_GCC_493\Debug\PSoC_2_Pi.a(WaveDAC8_1_Wave2_DMA_dma.o)
                0x1fff8121                WaveDAC8_1_Wave2_DMA_DmaHandle
 .data          0x1fff8122        0x1 .\ARM_GCC_493\Debug\PSoC_2_Pi.a(ADC_SAR_Seq_1_TempBuf_dma.o)
                0x1fff8122                ADC_SAR_Seq_1_TempBuf_DmaHandle
 .data          0x1fff8123        0x1 .\ARM_GCC_493\Debug\PSoC_2_Pi.a(ADC_SAR_Seq_1_FinalBuf_dma.o)
                0x1fff8123                ADC_SAR_Seq_1_FinalBuf_DmaHandle
 .data          0x1fff8124        0x8 .\ARM_GCC_493\Debug\PSoC_2_Pi.a(CyDmac.o)
 .data          0x1fff812c       0x10 .\ARM_GCC_493\Debug\PSoC_2_Pi.a(CyLib.o)
                0x1fff812c                cydelay_freq_hz
                0x1fff8130                cydelay_freq_khz
                0x1fff8134                cydelay_freq_mhz
                0x1fff8138                cydelay_32k_ms
                0x1fff8140                . = ALIGN (0x8)
 *fill*         0x1fff813c        0x4 
 *(.ram)
                0x1fff8140                _edata = .

.igot.plt       0x1fff8140        0x0 load address 0x00011528
 .igot.plt      0x00000000        0x0 c:/program files (x86)/cypress/psoc creator/3.3/psoc creator/import/gnu/arm/4.9.3/bin/../lib/gcc/arm-none-eabi/4.9.3/armv7-m/crtbegin.o

.bss            0x1fff8140      0x2f8 load address 0x00011528
                0x1fff8140                PROVIDE (__bss_start__, .)
 *(.shbss)
 *(.bss .bss.* .gnu.linkonce.b.*)
 .bss           0x1fff8140       0x1c c:/program files (x86)/cypress/psoc creator/3.3/psoc creator/import/gnu/arm/4.9.3/bin/../lib/gcc/arm-none-eabi/4.9.3/armv7-m/crtbegin.o
 .bss           0x1fff815c        0x1 .\ARM_GCC_493\Debug\PSoC_2_Pi.a(PWM_1.o)
                0x1fff815c                PWM_1_initVar
 *fill*         0x1fff815d        0x3 
 .bss           0x1fff8160        0x8 .\ARM_GCC_493\Debug\PSoC_2_Pi.a(PWM_1_PM.o)
 .bss           0x1fff8168        0x1 .\ARM_GCC_493\Debug\PSoC_2_Pi.a(PWM_2.o)
                0x1fff8168                PWM_2_initVar
 *fill*         0x1fff8169        0x3 
 .bss           0x1fff816c        0x8 .\ARM_GCC_493\Debug\PSoC_2_Pi.a(PWM_2_PM.o)
 .bss           0x1fff8174        0x1 .\ARM_GCC_493\Debug\PSoC_2_Pi.a(IDAC8_1.o)
                0x1fff8174                IDAC8_1_initVar
 *fill*         0x1fff8175        0x3 
 .bss           0x1fff8178        0x4 .\ARM_GCC_493\Debug\PSoC_2_Pi.a(IDAC8_1_PM.o)
 .bss           0x1fff817c        0x1 .\ARM_GCC_493\Debug\PSoC_2_Pi.a(VDAC8_1.o)
                0x1fff817c                VDAC8_1_initVar
 *fill*         0x1fff817d        0x3 
 .bss           0x1fff8180        0x4 .\ARM_GCC_493\Debug\PSoC_2_Pi.a(VDAC8_1_PM.o)
 .bss           0x1fff8184        0x1 .\ARM_GCC_493\Debug\PSoC_2_Pi.a(CapSense_1.o)
 *fill*         0x1fff8185        0x3 
 .bss           0x1fff8188        0xc .\ARM_GCC_493\Debug\PSoC_2_Pi.a(CapSense_1_CSHL.o)
                0x1fff8188                CapSense_1_debounceCounter
 .bss           0x1fff8194        0x4 .\ARM_GCC_493\Debug\PSoC_2_Pi.a(CapSense_1_PM.o)
                0x1fff8194                CapSense_1_backup
 .bss           0x1fff8198        0x1 .\ARM_GCC_493\Debug\PSoC_2_Pi.a(PWM_7.o)
                0x1fff8198                PWM_7_initVar
 *fill*         0x1fff8199        0x3 
 .bss           0x1fff819c        0x8 .\ARM_GCC_493\Debug\PSoC_2_Pi.a(PWM_7_PM.o)
 .bss           0x1fff81a4        0x1 .\ARM_GCC_493\Debug\PSoC_2_Pi.a(USBUART.o)
                0x1fff81a4                USBUART_initVar
 *fill*         0x1fff81a5        0x3 
 .bss           0x1fff81a8        0x4 .\ARM_GCC_493\Debug\PSoC_2_Pi.a(USBUART_std.o)
 .bss           0x1fff81ac        0x5 .\ARM_GCC_493\Debug\PSoC_2_Pi.a(WaveDAC8_1.o)
                0x1fff81ac                WaveDAC8_1_initVar
 *fill*         0x1fff81b1        0x3 
 .bss           0x1fff81b4        0x4 .\ARM_GCC_493\Debug\PSoC_2_Pi.a(WaveDAC8_1_PM.o)
 .bss           0x1fff81b8        0x1 .\ARM_GCC_493\Debug\PSoC_2_Pi.a(PWM_3.o)
                0x1fff81b8                PWM_3_initVar
 *fill*         0x1fff81b9        0x3 
 .bss           0x1fff81bc        0x8 .\ARM_GCC_493\Debug\PSoC_2_Pi.a(PWM_3_PM.o)
 .bss           0x1fff81c4        0x1 .\ARM_GCC_493\Debug\PSoC_2_Pi.a(PWM_6.o)
                0x1fff81c4                PWM_6_initVar
 *fill*         0x1fff81c5        0x3 
 .bss           0x1fff81c8        0x8 .\ARM_GCC_493\Debug\PSoC_2_Pi.a(PWM_6_PM.o)
 .bss           0x1fff81d0        0x1 .\ARM_GCC_493\Debug\PSoC_2_Pi.a(PWM_5.o)
                0x1fff81d0                PWM_5_initVar
 *fill*         0x1fff81d1        0x3 
 .bss           0x1fff81d4        0x8 .\ARM_GCC_493\Debug\PSoC_2_Pi.a(PWM_5_PM.o)
 .bss           0x1fff81dc        0x1 .\ARM_GCC_493\Debug\PSoC_2_Pi.a(PWM_4.o)
                0x1fff81dc                PWM_4_initVar
 *fill*         0x1fff81dd        0x3 
 .bss           0x1fff81e0        0x8 .\ARM_GCC_493\Debug\PSoC_2_Pi.a(PWM_4_PM.o)
 .bss           0x1fff81e8       0x18 .\ARM_GCC_493\Debug\PSoC_2_Pi.a(StripLights.o)
                0x1fff81e8                StripLights_initvar
                0x1fff81ec                StripLights_ledIndex
                0x1fff81f0                StripLights_row
 .bss           0x1fff8200       0x18 .\ARM_GCC_493\Debug\PSoC_2_Pi.a(ADC_SAR_Seq_1.o)
                0x1fff8210                ADC_SAR_Seq_1_initVar
 .bss           0x1fff8218        0x1 .\ARM_GCC_493\Debug\PSoC_2_Pi.a(Timer.o)
                0x1fff8218                Timer_initVar
 .bss           0x1fff8219        0x1 .\ARM_GCC_493\Debug\PSoC_2_Pi.a(PWM_8.o)
                0x1fff8219                PWM_8_initVar
 *fill*         0x1fff821a        0x2 
 .bss           0x1fff821c        0x8 .\ARM_GCC_493\Debug\PSoC_2_Pi.a(PWM_8_PM.o)
 .bss           0x1fff8224        0x4 .\ARM_GCC_493\Debug\PSoC_2_Pi.a(WaveDAC8_1_VDAC8_PM.o)
 .bss           0x1fff8228        0x1 .\ARM_GCC_493\Debug\PSoC_2_Pi.a(ADC_SAR_Seq_1_SAR.o)
                0x1fff8228                ADC_SAR_Seq_1_SAR_initVar
 *fill*         0x1fff8229        0x3 
 .bss           0x1fff822c        0x8 .\ARM_GCC_493\Debug\PSoC_2_Pi.a(CySpc.o)
                0x1fff822c                SpcLockState
 *(COMMON)
 COMMON         0x1fff8234       0x10 .\ARM_GCC_493\Debug\main.o
                0x1fff8234                vessel
 COMMON         0x1fff8244       0x14 .\ARM_GCC_493\Debug\PSoC_2_Pi.a(CapSense_1.o)
                0x1fff8244                CapSense_1_sensorIndex
                0x1fff8245                CapSense_1_csv
                0x1fff8248                CapSense_1_sensorRaw
 COMMON         0x1fff8258       0x3c .\ARM_GCC_493\Debug\PSoC_2_Pi.a(CapSense_1_CSHL.o)
                0x1fff8258                CapSense_1_sensorSignal
                0x1fff8260                CapSense_1_sensorBaselineLow
                0x1fff8268                CapSense_1_rawFilterData1
                0x1fff8278                CapSense_1_sensorBaseline
                0x1fff8288                CapSense_1_sensorOnMask
                0x1fff828c                CapSense_1_lowBaselineResetCnt
 COMMON         0x1fff8294        0x5 .\ARM_GCC_493\Debug\PSoC_2_Pi.a(USBUART_cdc.o)
                0x1fff8294                USBUART_cdc_data_out_ep
                0x1fff8295                USBUART_cdc_data_in_ep
                0x1fff8296                USBUART_lineControlBitmap
                0x1fff8298                USBUART_lineChanged
 *fill*         0x1fff8299        0x3 
 COMMON         0x1fff829c       0x96 .\ARM_GCC_493\Debug\PSoC_2_Pi.a(USBUART_drv.o)
                0x1fff829c                USBUART_lastPacketSize
                0x1fff829d                USBUART_device
                0x1fff829e                USBUART_transferByteCount
                0x1fff82a0                USBUART_interfaceSetting_last
                0x1fff82a2                USBUART_transferState
                0x1fff82a4                USBUART_currentTD
                0x1fff82b0                USBUART_interfaceNumber
                0x1fff82b4                USBUART_interfaceClass
                0x1fff82b8                USBUART_configurationChanged
                0x1fff82b9                USBUART_ep0Mode
                0x1fff82ba                USBUART_deviceAddress
                0x1fff82bb                USBUART_configuration
                0x1fff82bc                USBUART_ep0Count
                0x1fff82bd                USBUART_deviceStatus
                0x1fff82c0                USBUART_EP
                0x1fff832c                USBUART_interfaceSetting
                0x1fff832e                USBUART_ep0Toggle
                0x1fff8330                USBUART_interfaceStatus
 *fill*         0x1fff8332        0x2 
 COMMON         0x1fff8334       0xac .\ARM_GCC_493\Debug\PSoC_2_Pi.a(StripLights.o)
                0x1fff8334                StripLights_ledArray
                0x1fff83d4                StripLights_DimMask
                0x1fff83d8                StripLights_DimShift
                0x1fff83dc                StripLights_refreshComplete
 COMMON         0x1fff83e0       0x10 .\ARM_GCC_493\Debug\PSoC_2_Pi.a(StripLights_fonts.o)
                0x1fff83e0                StripLights_fontX
                0x1fff83e4                StripLights_fontOffset
                0x1fff83e8                StripLights_fontPtr
                0x1fff83ec                StripLights_fontY
 COMMON         0x1fff83f0       0x10 .\ARM_GCC_493\Debug\PSoC_2_Pi.a(ADC_SAR_Seq_1.o)
                0x1fff83f0                ADC_SAR_Seq_1_finalArray
 COMMON         0x1fff8400        0xa .\ARM_GCC_493\Debug\PSoC_2_Pi.a(ADC_SAR_Seq_1_SAR.o)
                0x1fff8400                ADC_SAR_Seq_1_SAR_countsPerVolt
                0x1fff8402                ADC_SAR_Seq_1_SAR_offset
                0x1fff8404                ADC_SAR_Seq_1_SAR_countsPer10Volt
                0x1fff8408                ADC_SAR_Seq_1_SAR_shift
 *fill*         0x1fff840a        0x2 
 COMMON         0x1fff840c        0x2 .\ARM_GCC_493\Debug\PSoC_2_Pi.a(CyFlash.o)
                0x1fff840c                dieTemperature
 *fill*         0x1fff840e        0x2 
 COMMON         0x1fff8410       0x22 .\ARM_GCC_493\Debug\PSoC_2_Pi.a(USBUART_descr.o)
                0x1fff8410                USBUART_idSerialNumberStringDescriptor
                0x1fff8438                . = ALIGN (0x8)
 *fill*         0x1fff8432        0x6 
 *(.ram.b)
                0x1fff8438                _end = .
                0x1fff8438                __end = .
                0x1fff8438                PROVIDE (end, .)
                0x1fff8438                PROVIDE (__bss_end__, .)
                0x000114f0                __cy_region_init_ram = LOADADDR (.data)
                0x00000038                __cy_region_init_size_ram = (_edata - ADDR (.data))
                0x000002f8                __cy_region_zero_size_ram = (_end - _edata)

.heap           0x1fff8438     0x1000 load address 0x00011528
                0x1fff8438                . = _end
                0x1fff9438                . = (. + 0x1000)
 *fill*         0x1fff8438     0x1000 
                0x1fff9438                __cy_heap_limit = .

.stack          0x20004000     0x4000
                0x20004000                __cy_stack_limit = .
                0x20008000                . = (. + 0x4000)
 *fill*         0x20004000     0x4000 
                0x00000001                ASSERT ((__cy_stack_limit >= __cy_heap_limit), region RAM overflowed with stack)

.cyloadermeta   0xf0000000       0x40
 *(.cyloadermeta)
 .cyloadermeta  0xf0000000       0x40 .\ARM_GCC_493\Debug\cybootloader.o
                0xf0000000                cy_meta_loader

.cyloadablemeta
                0x0003ffc0       0x40
 *(.cyloadablemeta)
 .cyloadablemeta
                0x0003ffc0       0x40 .\ARM_GCC_493\Debug\cymetadata.o
                0x0003ffc0                cy_meta_loadable

.cyconfigecc    0x80000580     0x10ac
 *(.cyconfigecc)
 .cyconfigecc   0x80000580     0x10ac .\ARM_GCC_493\Debug\cymetadata.o
                0x80000580                cy_meta_configecc

.cycustnvl      0x90000000        0x4
 *(.cycustnvl)
 .cycustnvl     0x90000000        0x4 .\ARM_GCC_493\Debug\cybootloader.o
                0x90000000                cy_meta_custnvl

.cywolatch      0x90100000        0x4
 *(.cywolatch)
 .cywolatch     0x90100000        0x4 .\ARM_GCC_493\Debug\cybootloader.o
                0x90100000                cy_meta_wonvl

.cyeeprom       0x90200000        0x0
 *(.cyeeprom)
                0x00000001                ASSERT ((. <= ((0x90200000 + ee_offset) + ee_size)), .cyeeprom data will not fit in EEPROM)

.cyflashprotect
                0x90400000      0x100
 *(.cyflashprotect)
 .cyflashprotect
                0x90400000      0x100 .\ARM_GCC_493\Debug\cybootloader.o
                0x90400000                cy_meta_flashprotect

.cymeta         0x90500000        0xc
 *(.cymeta)
 .cymeta        0x90500000        0xc .\ARM_GCC_493\Debug\cybootloader.o
                0x90500000                cy_metadata

.rel.dyn        0x00040000        0x0 load address 0x9050000c
 .rel.iplt      0x00000000        0x0 c:/program files (x86)/cypress/psoc creator/3.3/psoc creator/import/gnu/arm/4.9.3/bin/../lib/gcc/arm-none-eabi/4.9.3/armv7-m/crtbegin.o

.stab
 *(.stab)

.stabstr
 *(.stabstr)

.debug
 *(.debug)

.line
 *(.line)

.debug_srcinfo
 *(.debug_srcinfo)

.debug_sfnames
 *(.debug_sfnames)

.debug_aranges  0x00000000     0x22d8
 *(.debug_aranges)
 .debug_aranges
                0x00000000       0x20 .\ARM_GCC_493\Debug\main.o
 .debug_aranges
                0x00000020       0xd8 .\ARM_GCC_493\Debug\mem1.o
 .debug_aranges
                0x000000f8       0x48 .\ARM_GCC_493\Debug\LINX.o
 .debug_aranges
                0x00000140       0x38 .\ARM_GCC_493\Debug\Python.o
 .debug_aranges
                0x00000178       0x18 .\ARM_GCC_493\Debug\cymetadata.o
 .debug_aranges
                0x00000190       0x48 .\ARM_GCC_493\Debug\Cm3Start.o
 .debug_aranges
                0x000001d8       0x18 .\ARM_GCC_493\Debug\cybootloader.o
 .debug_aranges
                0x000001f0       0x70 .\ARM_GCC_493\Debug\PSoC_2_Pi.a(cyfitter_cfg.o)
 .debug_aranges
                0x00000260       0x70 .\ARM_GCC_493\Debug\PSoC_2_Pi.a(PWM_CLK_1.o)
 .debug_aranges
                0x000002d0       0x98 .\ARM_GCC_493\Debug\PSoC_2_Pi.a(PWM_1.o)
 .debug_aranges
                0x00000368       0x38 .\ARM_GCC_493\Debug\PSoC_2_Pi.a(PWM_1_PM.o)
 .debug_aranges
                0x000003a0       0x98 .\ARM_GCC_493\Debug\PSoC_2_Pi.a(PWM_2.o)
 .debug_aranges
                0x00000438       0x38 .\ARM_GCC_493\Debug\PSoC_2_Pi.a(PWM_2_PM.o)
 .debug_aranges
                0x00000470       0x60 .\ARM_GCC_493\Debug\PSoC_2_Pi.a(IDAC8_1.o)
 .debug_aranges
                0x000004d0       0x38 .\ARM_GCC_493\Debug\PSoC_2_Pi.a(IDAC8_1_PM.o)
 .debug_aranges
                0x00000508       0x58 .\ARM_GCC_493\Debug\PSoC_2_Pi.a(VDAC8_1.o)
 .debug_aranges
                0x00000560       0x38 .\ARM_GCC_493\Debug\PSoC_2_Pi.a(VDAC8_1_PM.o)
 .debug_aranges
                0x00000598       0xb0 .\ARM_GCC_493\Debug\PSoC_2_Pi.a(CapSense_1.o)
 .debug_aranges
                0x00000648       0x78 .\ARM_GCC_493\Debug\PSoC_2_Pi.a(CapSense_1_CSHL.o)
 .debug_aranges
                0x000006c0       0x20 .\ARM_GCC_493\Debug\PSoC_2_Pi.a(CapSense_1_INT.o)
 .debug_aranges
                0x000006e0       0x38 .\ARM_GCC_493\Debug\PSoC_2_Pi.a(CapSense_1_PM.o)
 .debug_aranges
                0x00000718       0x98 .\ARM_GCC_493\Debug\PSoC_2_Pi.a(PWM_7.o)
 .debug_aranges
                0x000007b0       0x38 .\ARM_GCC_493\Debug\PSoC_2_Pi.a(PWM_7_PM.o)
 .debug_aranges
                0x000007e8       0x38 .\ARM_GCC_493\Debug\PSoC_2_Pi.a(GPIO_5_2.o)
 .debug_aranges
                0x00000820       0x38 .\ARM_GCC_493\Debug\PSoC_2_Pi.a(GPIO_5_3.o)
 .debug_aranges
                0x00000858       0x38 .\ARM_GCC_493\Debug\PSoC_2_Pi.a(GPIO_5_4.o)
 .debug_aranges
                0x00000890       0x38 .\ARM_GCC_493\Debug\PSoC_2_Pi.a(GPIO_5_5.o)
 .debug_aranges
                0x000008c8       0x38 .\ARM_GCC_493\Debug\PSoC_2_Pi.a(GPIO_5_1.o)
 .debug_aranges
                0x00000900       0x38 .\ARM_GCC_493\Debug\PSoC_2_Pi.a(GPIO_12_6.o)
 .debug_aranges
                0x00000938       0x38 .\ARM_GCC_493\Debug\PSoC_2_Pi.a(GPIO_12_7.o)
 .debug_aranges
                0x00000970       0x38 .\ARM_GCC_493\Debug\PSoC_2_Pi.a(GPIO_2_1.o)
 .debug_aranges
                0x000009a8       0x38 .\ARM_GCC_493\Debug\PSoC_2_Pi.a(GPIO_2_7.o)
 .debug_aranges
                0x000009e0       0x38 .\ARM_GCC_493\Debug\PSoC_2_Pi.a(GPIO_2_6.o)
 .debug_aranges
                0x00000a18       0x38 .\ARM_GCC_493\Debug\PSoC_2_Pi.a(GPIO_2_2.o)
 .debug_aranges
                0x00000a50       0x38 .\ARM_GCC_493\Debug\PSoC_2_Pi.a(GPIO_12_0.o)
 .debug_aranges
                0x00000a88       0x38 .\ARM_GCC_493\Debug\PSoC_2_Pi.a(GPIO_2_5.o)
 .debug_aranges
                0x00000ac0       0x38 .\ARM_GCC_493\Debug\PSoC_2_Pi.a(GPIO_12_2.o)
 .debug_aranges
                0x00000af8       0x38 .\ARM_GCC_493\Debug\PSoC_2_Pi.a(GPIO_2_0.o)
 .debug_aranges
                0x00000b30       0x38 .\ARM_GCC_493\Debug\PSoC_2_Pi.a(GPIO_2_4.o)
 .debug_aranges
                0x00000b68       0x38 .\ARM_GCC_493\Debug\PSoC_2_Pi.a(GPIO_2_3.o)
 .debug_aranges
                0x00000ba0       0x38 .\ARM_GCC_493\Debug\PSoC_2_Pi.a(GPIO_12_3.o)
 .debug_aranges
                0x00000bd8       0x38 .\ARM_GCC_493\Debug\PSoC_2_Pi.a(GPIO_12_4.o)
 .debug_aranges
                0x00000c10       0x38 .\ARM_GCC_493\Debug\PSoC_2_Pi.a(GPIO_5_0.o)
 .debug_aranges
                0x00000c48       0x38 .\ARM_GCC_493\Debug\PSoC_2_Pi.a(GPIO_12_5.o)
 .debug_aranges
                0x00000c80       0xb0 .\ARM_GCC_493\Debug\PSoC_2_Pi.a(USBUART.o)
 .debug_aranges
                0x00000d30       0xb0 .\ARM_GCC_493\Debug\PSoC_2_Pi.a(USBUART_cdc.o)
 .debug_aranges
                0x00000de0       0x98 .\ARM_GCC_493\Debug\PSoC_2_Pi.a(USBUART_drv.o)
 .debug_aranges
                0x00000e78       0x40 .\ARM_GCC_493\Debug\PSoC_2_Pi.a(USBUART_episr.o)
 .debug_aranges
                0x00000eb8       0x78 .\ARM_GCC_493\Debug\PSoC_2_Pi.a(USBUART_std.o)
 .debug_aranges
                0x00000f30       0x20 .\ARM_GCC_493\Debug\PSoC_2_Pi.a(USBUART_vnd.o)
 .debug_aranges
                0x00000f50       0x58 .\ARM_GCC_493\Debug\PSoC_2_Pi.a(EEPROM.o)
 .debug_aranges
                0x00000fa8       0x80 .\ARM_GCC_493\Debug\PSoC_2_Pi.a(WaveDAC_clk.o)
 .debug_aranges
                0x00001028       0x50 .\ARM_GCC_493\Debug\PSoC_2_Pi.a(WaveDAC8_1.o)
 .debug_aranges
                0x00001078       0x28 .\ARM_GCC_493\Debug\PSoC_2_Pi.a(WaveDAC8_1_PM.o)
 .debug_aranges
                0x000010a0       0x70 .\ARM_GCC_493\Debug\PSoC_2_Pi.a(PWM_CLK_4.o)
 .debug_aranges
                0x00001110       0x98 .\ARM_GCC_493\Debug\PSoC_2_Pi.a(PWM_3.o)
 .debug_aranges
                0x000011a8       0x38 .\ARM_GCC_493\Debug\PSoC_2_Pi.a(PWM_3_PM.o)
 .debug_aranges
                0x000011e0       0x70 .\ARM_GCC_493\Debug\PSoC_2_Pi.a(PWM_CLK_3.o)
 .debug_aranges
                0x00001250       0x98 .\ARM_GCC_493\Debug\PSoC_2_Pi.a(PWM_6.o)
 .debug_aranges
                0x000012e8       0x38 .\ARM_GCC_493\Debug\PSoC_2_Pi.a(PWM_6_PM.o)
 .debug_aranges
                0x00001320       0x98 .\ARM_GCC_493\Debug\PSoC_2_Pi.a(PWM_5.o)
 .debug_aranges
                0x000013b8       0x38 .\ARM_GCC_493\Debug\PSoC_2_Pi.a(PWM_5_PM.o)
 .debug_aranges
                0x000013f0       0x70 .\ARM_GCC_493\Debug\PSoC_2_Pi.a(PWM_CLK_2.o)
 .debug_aranges
                0x00001460       0x98 .\ARM_GCC_493\Debug\PSoC_2_Pi.a(PWM_4.o)
 .debug_aranges
                0x000014f8       0x38 .\ARM_GCC_493\Debug\PSoC_2_Pi.a(PWM_4_PM.o)
 .debug_aranges
                0x00001530       0x38 .\ARM_GCC_493\Debug\PSoC_2_Pi.a(GPIO_5_6.o)
 .debug_aranges
                0x00001568       0x38 .\ARM_GCC_493\Debug\PSoC_2_Pi.a(GPIO_5_7.o)
 .debug_aranges
                0x000015a0       0x88 .\ARM_GCC_493\Debug\PSoC_2_Pi.a(StripLights.o)
 .debug_aranges
                0x00001628       0x30 .\ARM_GCC_493\Debug\PSoC_2_Pi.a(StripLights_fonts.o)
 .debug_aranges
                0x00001658       0xc0 .\ARM_GCC_493\Debug\PSoC_2_Pi.a(ADC_SAR_Seq_1.o)
 .debug_aranges
                0x00001718       0x20 .\ARM_GCC_493\Debug\PSoC_2_Pi.a(ADC_SAR_Seq_1_INT.o)
 .debug_aranges
                0x00001738       0x88 .\ARM_GCC_493\Debug\PSoC_2_Pi.a(Timer.o)
 .debug_aranges
                0x000017c0       0x28 .\ARM_GCC_493\Debug\PSoC_2_Pi.a(TIMER_REG.o)
 .debug_aranges
                0x000017e8       0x38 .\ARM_GCC_493\Debug\PSoC_2_Pi.a(GPIO_12_1.o)
 .debug_aranges
                0x00001820       0x98 .\ARM_GCC_493\Debug\PSoC_2_Pi.a(PWM_8.o)
 .debug_aranges
                0x000018b8       0x38 .\ARM_GCC_493\Debug\PSoC_2_Pi.a(PWM_8_PM.o)
 .debug_aranges
                0x000018f0       0x70 .\ARM_GCC_493\Debug\PSoC_2_Pi.a(CapSense_1_CompCH0.o)
 .debug_aranges
                0x00001960       0x60 .\ARM_GCC_493\Debug\PSoC_2_Pi.a(CapSense_1_IdacCH0.o)
 .debug_aranges
                0x000019c0       0x48 .\ARM_GCC_493\Debug\PSoC_2_Pi.a(CapSense_1_AMuxCH0.o)
 .debug_aranges
                0x00001a08       0x70 .\ARM_GCC_493\Debug\PSoC_2_Pi.a(CapSense_1_IntClock.o)
 .debug_aranges
                0x00001a78       0x28 .\ARM_GCC_493\Debug\PSoC_2_Pi.a(WaveDAC8_1_Wave1_DMA_dma.o)
 .debug_aranges
                0x00001aa0       0x28 .\ARM_GCC_493\Debug\PSoC_2_Pi.a(WaveDAC8_1_Wave2_DMA_dma.o)
 .debug_aranges
                0x00001ac8       0x58 .\ARM_GCC_493\Debug\PSoC_2_Pi.a(WaveDAC8_1_VDAC8.o)
 .debug_aranges
                0x00001b20       0x38 .\ARM_GCC_493\Debug\PSoC_2_Pi.a(WaveDAC8_1_VDAC8_PM.o)
 .debug_aranges
                0x00001b58       0x40 .\ARM_GCC_493\Debug\PSoC_2_Pi.a(WaveDAC8_1_BuffAmp.o)
 .debug_aranges
                0x00001b98       0x80 .\ARM_GCC_493\Debug\PSoC_2_Pi.a(StripLights_isr.o)
 .debug_aranges
                0x00001c18       0xa8 .\ARM_GCC_493\Debug\PSoC_2_Pi.a(ADC_SAR_Seq_1_SAR.o)
 .debug_aranges
                0x00001cc0       0x28 .\ARM_GCC_493\Debug\PSoC_2_Pi.a(ADC_SAR_Seq_1_TempBuf_dma.o)
 .debug_aranges
                0x00001ce8       0x28 .\ARM_GCC_493\Debug\PSoC_2_Pi.a(ADC_SAR_Seq_1_FinalBuf_dma.o)
 .debug_aranges
                0x00001d10       0x80 .\ARM_GCC_493\Debug\PSoC_2_Pi.a(ADC_SAR_Seq_1_IRQ.o)
 .debug_aranges
                0x00001d90       0x20 .\ARM_GCC_493\Debug\PSoC_2_Pi.a(CyBootAsmGnu.o)
 .debug_aranges
                0x00001db0       0xd8 .\ARM_GCC_493\Debug\PSoC_2_Pi.a(CyDmac.o)
 .debug_aranges
                0x00001e88       0x80 .\ARM_GCC_493\Debug\PSoC_2_Pi.a(CyFlash.o)
 .debug_aranges
                0x00001f08      0x290 .\ARM_GCC_493\Debug\PSoC_2_Pi.a(CyLib.o)
 .debug_aranges
                0x00002198       0x90 .\ARM_GCC_493\Debug\PSoC_2_Pi.a(cyPm.o)
 .debug_aranges
                0x00002228       0x78 .\ARM_GCC_493\Debug\PSoC_2_Pi.a(CySpc.o)
 .debug_aranges
                0x000022a0       0x20 .\ARM_GCC_493\Debug\PSoC_2_Pi.a(USBUART_cls.o)
 .debug_aranges
                0x000022c0       0x18 .\ARM_GCC_493\Debug\PSoC_2_Pi.a(USBUART_descr.o)

.debug_pubnames
 *(.debug_pubnames)

.debug_info     0x00000000     0xeaae
 *(.debug_info .gnu.linkonce.wi.*)
 .debug_info    0x00000000      0x222 .\ARM_GCC_493\Debug\main.o
 .debug_info    0x00000222      0xbf2 .\ARM_GCC_493\Debug\mem1.o
 .debug_info    0x00000e14      0x5a5 .\ARM_GCC_493\Debug\LINX.o
 .debug_info    0x000013b9      0x34c .\ARM_GCC_493\Debug\Python.o
 .debug_info    0x00001705       0xd8 .\ARM_GCC_493\Debug\cymetadata.o
 .debug_info    0x000017dd      0x323 .\ARM_GCC_493\Debug\Cm3Start.o
 .debug_info    0x00001b00      0x164 .\ARM_GCC_493\Debug\cybootloader.o
 .debug_info    0x00001c64      0x45d .\ARM_GCC_493\Debug\PSoC_2_Pi.a(cyfitter_cfg.o)
 .debug_info    0x000020c1      0x25b .\ARM_GCC_493\Debug\PSoC_2_Pi.a(PWM_CLK_1.o)
 .debug_info    0x0000231c      0x29e .\ARM_GCC_493\Debug\PSoC_2_Pi.a(PWM_1.o)
 .debug_info    0x000025ba      0x154 .\ARM_GCC_493\Debug\PSoC_2_Pi.a(PWM_1_PM.o)
 .debug_info    0x0000270e      0x29e .\ARM_GCC_493\Debug\PSoC_2_Pi.a(PWM_2.o)
 .debug_info    0x000029ac      0x154 .\ARM_GCC_493\Debug\PSoC_2_Pi.a(PWM_2_PM.o)
 .debug_info    0x00002b00      0x1ac .\ARM_GCC_493\Debug\PSoC_2_Pi.a(IDAC8_1.o)
 .debug_info    0x00002cac      0x11e .\ARM_GCC_493\Debug\PSoC_2_Pi.a(IDAC8_1_PM.o)
 .debug_info    0x00002dca      0x184 .\ARM_GCC_493\Debug\PSoC_2_Pi.a(VDAC8_1.o)
 .debug_info    0x00002f4e      0x11e .\ARM_GCC_493\Debug\PSoC_2_Pi.a(VDAC8_1_PM.o)
 .debug_info    0x0000306c      0x519 .\ARM_GCC_493\Debug\PSoC_2_Pi.a(CapSense_1.o)
 .debug_info    0x00003585      0x5a7 .\ARM_GCC_493\Debug\PSoC_2_Pi.a(CapSense_1_CSHL.o)
 .debug_info    0x00003b2c       0xc1 .\ARM_GCC_493\Debug\PSoC_2_Pi.a(CapSense_1_INT.o)
 .debug_info    0x00003bed      0x141 .\ARM_GCC_493\Debug\PSoC_2_Pi.a(CapSense_1_PM.o)
 .debug_info    0x00003d2e      0x29e .\ARM_GCC_493\Debug\PSoC_2_Pi.a(PWM_7.o)
 .debug_info    0x00003fcc      0x154 .\ARM_GCC_493\Debug\PSoC_2_Pi.a(PWM_7_PM.o)
 .debug_info    0x00004120      0x11d .\ARM_GCC_493\Debug\PSoC_2_Pi.a(GPIO_5_2.o)
 .debug_info    0x0000423d      0x11d .\ARM_GCC_493\Debug\PSoC_2_Pi.a(GPIO_5_3.o)
 .debug_info    0x0000435a      0x11d .\ARM_GCC_493\Debug\PSoC_2_Pi.a(GPIO_5_4.o)
 .debug_info    0x00004477      0x11d .\ARM_GCC_493\Debug\PSoC_2_Pi.a(GPIO_5_5.o)
 .debug_info    0x00004594      0x11d .\ARM_GCC_493\Debug\PSoC_2_Pi.a(GPIO_5_1.o)
 .debug_info    0x000046b1      0x11d .\ARM_GCC_493\Debug\PSoC_2_Pi.a(GPIO_12_6.o)
 .debug_info    0x000047ce      0x11d .\ARM_GCC_493\Debug\PSoC_2_Pi.a(GPIO_12_7.o)
 .debug_info    0x000048eb      0x11d .\ARM_GCC_493\Debug\PSoC_2_Pi.a(GPIO_2_1.o)
 .debug_info    0x00004a08      0x11d .\ARM_GCC_493\Debug\PSoC_2_Pi.a(GPIO_2_7.o)
 .debug_info    0x00004b25      0x11d .\ARM_GCC_493\Debug\PSoC_2_Pi.a(GPIO_2_6.o)
 .debug_info    0x00004c42      0x11d .\ARM_GCC_493\Debug\PSoC_2_Pi.a(GPIO_2_2.o)
 .debug_info    0x00004d5f      0x11d .\ARM_GCC_493\Debug\PSoC_2_Pi.a(GPIO_12_0.o)
 .debug_info    0x00004e7c      0x11d .\ARM_GCC_493\Debug\PSoC_2_Pi.a(GPIO_2_5.o)
 .debug_info    0x00004f99      0x11d .\ARM_GCC_493\Debug\PSoC_2_Pi.a(GPIO_12_2.o)
 .debug_info    0x000050b6      0x11d .\ARM_GCC_493\Debug\PSoC_2_Pi.a(GPIO_2_0.o)
 .debug_info    0x000051d3      0x11d .\ARM_GCC_493\Debug\PSoC_2_Pi.a(GPIO_2_4.o)
 .debug_info    0x000052f0      0x11d .\ARM_GCC_493\Debug\PSoC_2_Pi.a(GPIO_2_3.o)
 .debug_info    0x0000540d      0x11d .\ARM_GCC_493\Debug\PSoC_2_Pi.a(GPIO_12_3.o)
 .debug_info    0x0000552a      0x11d .\ARM_GCC_493\Debug\PSoC_2_Pi.a(GPIO_12_4.o)
 .debug_info    0x00005647      0x11d .\ARM_GCC_493\Debug\PSoC_2_Pi.a(GPIO_5_0.o)
 .debug_info    0x00005764      0x11d .\ARM_GCC_493\Debug\PSoC_2_Pi.a(GPIO_12_5.o)
 .debug_info    0x00005881      0x5d1 .\ARM_GCC_493\Debug\PSoC_2_Pi.a(USBUART.o)
 .debug_info    0x00005e52      0x56f .\ARM_GCC_493\Debug\PSoC_2_Pi.a(USBUART_cdc.o)
 .debug_info    0x000063c1      0x4ed .\ARM_GCC_493\Debug\PSoC_2_Pi.a(USBUART_drv.o)
 .debug_info    0x000068ae      0x1a6 .\ARM_GCC_493\Debug\PSoC_2_Pi.a(USBUART_episr.o)
 .debug_info    0x00006a54      0x7bb .\ARM_GCC_493\Debug\PSoC_2_Pi.a(USBUART_std.o)
 .debug_info    0x0000720f      0x177 .\ARM_GCC_493\Debug\PSoC_2_Pi.a(USBUART_vnd.o)
 .debug_info    0x00007386      0x257 .\ARM_GCC_493\Debug\PSoC_2_Pi.a(EEPROM.o)
 .debug_info    0x000075dd      0x297 .\ARM_GCC_493\Debug\PSoC_2_Pi.a(WaveDAC_clk.o)
 .debug_info    0x00007874      0x23e .\ARM_GCC_493\Debug\PSoC_2_Pi.a(WaveDAC8_1.o)
 .debug_info    0x00007ab2       0xf7 .\ARM_GCC_493\Debug\PSoC_2_Pi.a(WaveDAC8_1_PM.o)
 .debug_info    0x00007ba9      0x25b .\ARM_GCC_493\Debug\PSoC_2_Pi.a(PWM_CLK_4.o)
 .debug_info    0x00007e04      0x29e .\ARM_GCC_493\Debug\PSoC_2_Pi.a(PWM_3.o)
 .debug_info    0x000080a2      0x154 .\ARM_GCC_493\Debug\PSoC_2_Pi.a(PWM_3_PM.o)
 .debug_info    0x000081f6      0x25b .\ARM_GCC_493\Debug\PSoC_2_Pi.a(PWM_CLK_3.o)
 .debug_info    0x00008451      0x29e .\ARM_GCC_493\Debug\PSoC_2_Pi.a(PWM_6.o)
 .debug_info    0x000086ef      0x154 .\ARM_GCC_493\Debug\PSoC_2_Pi.a(PWM_6_PM.o)
 .debug_info    0x00008843      0x29e .\ARM_GCC_493\Debug\PSoC_2_Pi.a(PWM_5.o)
 .debug_info    0x00008ae1      0x154 .\ARM_GCC_493\Debug\PSoC_2_Pi.a(PWM_5_PM.o)
 .debug_info    0x00008c35      0x25b .\ARM_GCC_493\Debug\PSoC_2_Pi.a(PWM_CLK_2.o)
 .debug_info    0x00008e90      0x29e .\ARM_GCC_493\Debug\PSoC_2_Pi.a(PWM_4.o)
 .debug_info    0x0000912e      0x154 .\ARM_GCC_493\Debug\PSoC_2_Pi.a(PWM_4_PM.o)
 .debug_info    0x00009282      0x11d .\ARM_GCC_493\Debug\PSoC_2_Pi.a(GPIO_5_6.o)
 .debug_info    0x0000939f      0x11d .\ARM_GCC_493\Debug\PSoC_2_Pi.a(GPIO_5_7.o)
 .debug_info    0x000094bc      0x5b2 .\ARM_GCC_493\Debug\PSoC_2_Pi.a(StripLights.o)
 .debug_info    0x00009a6e      0x2ab .\ARM_GCC_493\Debug\PSoC_2_Pi.a(StripLights_fonts.o)
 .debug_info    0x00009d19      0x466 .\ARM_GCC_493\Debug\PSoC_2_Pi.a(ADC_SAR_Seq_1.o)
 .debug_info    0x0000a17f       0x99 .\ARM_GCC_493\Debug\PSoC_2_Pi.a(ADC_SAR_Seq_1_INT.o)
 .debug_info    0x0000a218      0x23c .\ARM_GCC_493\Debug\PSoC_2_Pi.a(Timer.o)
 .debug_info    0x0000a454       0xd6 .\ARM_GCC_493\Debug\PSoC_2_Pi.a(TIMER_REG.o)
 .debug_info    0x0000a52a      0x11d .\ARM_GCC_493\Debug\PSoC_2_Pi.a(GPIO_12_1.o)
 .debug_info    0x0000a647      0x29e .\ARM_GCC_493\Debug\PSoC_2_Pi.a(PWM_8.o)
 .debug_info    0x0000a8e5      0x154 .\ARM_GCC_493\Debug\PSoC_2_Pi.a(PWM_8_PM.o)
 .debug_info    0x0000aa39      0x23c .\ARM_GCC_493\Debug\PSoC_2_Pi.a(CapSense_1_CompCH0.o)
 .debug_info    0x0000ac75      0x1ac .\ARM_GCC_493\Debug\PSoC_2_Pi.a(CapSense_1_IdacCH0.o)
 .debug_info    0x0000ae21      0x14d .\ARM_GCC_493\Debug\PSoC_2_Pi.a(CapSense_1_AMuxCH0.o)
 .debug_info    0x0000af6e      0x25b .\ARM_GCC_493\Debug\PSoC_2_Pi.a(CapSense_1_IntClock.o)
 .debug_info    0x0000b1c9      0x112 .\ARM_GCC_493\Debug\PSoC_2_Pi.a(WaveDAC8_1_Wave1_DMA_dma.o)
 .debug_info    0x0000b2db      0x112 .\ARM_GCC_493\Debug\PSoC_2_Pi.a(WaveDAC8_1_Wave2_DMA_dma.o)
 .debug_info    0x0000b3ed      0x184 .\ARM_GCC_493\Debug\PSoC_2_Pi.a(WaveDAC8_1_VDAC8.o)
 .debug_info    0x0000b571      0x11e .\ARM_GCC_493\Debug\PSoC_2_Pi.a(WaveDAC8_1_VDAC8_PM.o)
 .debug_info    0x0000b68f      0x11d .\ARM_GCC_493\Debug\PSoC_2_Pi.a(WaveDAC8_1_BuffAmp.o)
 .debug_info    0x0000b7ac      0x238 .\ARM_GCC_493\Debug\PSoC_2_Pi.a(StripLights_isr.o)
 .debug_info    0x0000b9e4      0x454 .\ARM_GCC_493\Debug\PSoC_2_Pi.a(ADC_SAR_Seq_1_SAR.o)
 .debug_info    0x0000be38      0x112 .\ARM_GCC_493\Debug\PSoC_2_Pi.a(ADC_SAR_Seq_1_TempBuf_dma.o)
 .debug_info    0x0000bf4a      0x112 .\ARM_GCC_493\Debug\PSoC_2_Pi.a(ADC_SAR_Seq_1_FinalBuf_dma.o)
 .debug_info    0x0000c05c      0x238 .\ARM_GCC_493\Debug\PSoC_2_Pi.a(ADC_SAR_Seq_1_IRQ.o)
 .debug_info    0x0000c294       0x87 .\ARM_GCC_493\Debug\PSoC_2_Pi.a(CyBootAsmGnu.o)
 .debug_info    0x0000c31b      0x8b1 .\ARM_GCC_493\Debug\PSoC_2_Pi.a(CyDmac.o)
 .debug_info    0x0000cbcc      0x36a .\ARM_GCC_493\Debug\PSoC_2_Pi.a(CyFlash.o)
 .debug_info    0x0000cf36      0xd85 .\ARM_GCC_493\Debug\PSoC_2_Pi.a(CyLib.o)
 .debug_info    0x0000dcbb      0x536 .\ARM_GCC_493\Debug\PSoC_2_Pi.a(cyPm.o)
 .debug_info    0x0000e1f1      0x456 .\ARM_GCC_493\Debug\PSoC_2_Pi.a(CySpc.o)
 .debug_info    0x0000e647      0x19b .\ARM_GCC_493\Debug\PSoC_2_Pi.a(USBUART_cls.o)
 .debug_info    0x0000e7e2      0x2cc .\ARM_GCC_493\Debug\PSoC_2_Pi.a(USBUART_descr.o)

.debug_abbrev   0x00000000     0x5ba5
 *(.debug_abbrev)
 .debug_abbrev  0x00000000       0xd4 .\ARM_GCC_493\Debug\main.o
 .debug_abbrev  0x000000d4      0x1aa .\ARM_GCC_493\Debug\mem1.o
 .debug_abbrev  0x0000027e      0x1d8 .\ARM_GCC_493\Debug\LINX.o
 .debug_abbrev  0x00000456      0x169 .\ARM_GCC_493\Debug\Python.o
 .debug_abbrev  0x000005bf       0x66 .\ARM_GCC_493\Debug\cymetadata.o
 .debug_abbrev  0x00000625      0x1c5 .\ARM_GCC_493\Debug\Cm3Start.o
 .debug_abbrev  0x000007ea       0x77 .\ARM_GCC_493\Debug\cybootloader.o
 .debug_abbrev  0x00000861      0x1c1 .\ARM_GCC_493\Debug\PSoC_2_Pi.a(cyfitter_cfg.o)
 .debug_abbrev  0x00000a22      0x12a .\ARM_GCC_493\Debug\PSoC_2_Pi.a(PWM_CLK_1.o)
 .debug_abbrev  0x00000b4c      0x13b .\ARM_GCC_493\Debug\PSoC_2_Pi.a(PWM_1.o)
 .debug_abbrev  0x00000c87       0x8e .\ARM_GCC_493\Debug\PSoC_2_Pi.a(PWM_1_PM.o)
 .debug_abbrev  0x00000d15      0x13b .\ARM_GCC_493\Debug\PSoC_2_Pi.a(PWM_2.o)
 .debug_abbrev  0x00000e50       0x8e .\ARM_GCC_493\Debug\PSoC_2_Pi.a(PWM_2_PM.o)
 .debug_abbrev  0x00000ede      0x121 .\ARM_GCC_493\Debug\PSoC_2_Pi.a(IDAC8_1.o)
 .debug_abbrev  0x00000fff       0xa6 .\ARM_GCC_493\Debug\PSoC_2_Pi.a(IDAC8_1_PM.o)
 .debug_abbrev  0x000010a5       0xf8 .\ARM_GCC_493\Debug\PSoC_2_Pi.a(VDAC8_1.o)
 .debug_abbrev  0x0000119d       0xa6 .\ARM_GCC_493\Debug\PSoC_2_Pi.a(VDAC8_1_PM.o)
 .debug_abbrev  0x00001243      0x165 .\ARM_GCC_493\Debug\PSoC_2_Pi.a(CapSense_1.o)
 .debug_abbrev  0x000013a8      0x16c .\ARM_GCC_493\Debug\PSoC_2_Pi.a(CapSense_1_CSHL.o)
 .debug_abbrev  0x00001514       0x67 .\ARM_GCC_493\Debug\PSoC_2_Pi.a(CapSense_1_INT.o)
 .debug_abbrev  0x0000157b       0xa8 .\ARM_GCC_493\Debug\PSoC_2_Pi.a(CapSense_1_PM.o)
 .debug_abbrev  0x00001623      0x13b .\ARM_GCC_493\Debug\PSoC_2_Pi.a(PWM_7.o)
 .debug_abbrev  0x0000175e       0x8e .\ARM_GCC_493\Debug\PSoC_2_Pi.a(PWM_7_PM.o)
 .debug_abbrev  0x000017ec       0x9d .\ARM_GCC_493\Debug\PSoC_2_Pi.a(GPIO_5_2.o)
 .debug_abbrev  0x00001889       0x9d .\ARM_GCC_493\Debug\PSoC_2_Pi.a(GPIO_5_3.o)
 .debug_abbrev  0x00001926       0x9d .\ARM_GCC_493\Debug\PSoC_2_Pi.a(GPIO_5_4.o)
 .debug_abbrev  0x000019c3       0x9d .\ARM_GCC_493\Debug\PSoC_2_Pi.a(GPIO_5_5.o)
 .debug_abbrev  0x00001a60       0x9d .\ARM_GCC_493\Debug\PSoC_2_Pi.a(GPIO_5_1.o)
 .debug_abbrev  0x00001afd       0x9d .\ARM_GCC_493\Debug\PSoC_2_Pi.a(GPIO_12_6.o)
 .debug_abbrev  0x00001b9a       0x9d .\ARM_GCC_493\Debug\PSoC_2_Pi.a(GPIO_12_7.o)
 .debug_abbrev  0x00001c37       0x9d .\ARM_GCC_493\Debug\PSoC_2_Pi.a(GPIO_2_1.o)
 .debug_abbrev  0x00001cd4       0x9d .\ARM_GCC_493\Debug\PSoC_2_Pi.a(GPIO_2_7.o)
 .debug_abbrev  0x00001d71       0x9d .\ARM_GCC_493\Debug\PSoC_2_Pi.a(GPIO_2_6.o)
 .debug_abbrev  0x00001e0e       0x9d .\ARM_GCC_493\Debug\PSoC_2_Pi.a(GPIO_2_2.o)
 .debug_abbrev  0x00001eab       0x9d .\ARM_GCC_493\Debug\PSoC_2_Pi.a(GPIO_12_0.o)
 .debug_abbrev  0x00001f48       0x9d .\ARM_GCC_493\Debug\PSoC_2_Pi.a(GPIO_2_5.o)
 .debug_abbrev  0x00001fe5       0x9d .\ARM_GCC_493\Debug\PSoC_2_Pi.a(GPIO_12_2.o)
 .debug_abbrev  0x00002082       0x9d .\ARM_GCC_493\Debug\PSoC_2_Pi.a(GPIO_2_0.o)
 .debug_abbrev  0x0000211f       0x9d .\ARM_GCC_493\Debug\PSoC_2_Pi.a(GPIO_2_4.o)
 .debug_abbrev  0x000021bc       0x9d .\ARM_GCC_493\Debug\PSoC_2_Pi.a(GPIO_2_3.o)
 .debug_abbrev  0x00002259       0x9d .\ARM_GCC_493\Debug\PSoC_2_Pi.a(GPIO_12_3.o)
 .debug_abbrev  0x000022f6       0x9d .\ARM_GCC_493\Debug\PSoC_2_Pi.a(GPIO_12_4.o)
 .debug_abbrev  0x00002393       0x9d .\ARM_GCC_493\Debug\PSoC_2_Pi.a(GPIO_5_0.o)
 .debug_abbrev  0x00002430       0x9d .\ARM_GCC_493\Debug\PSoC_2_Pi.a(GPIO_12_5.o)
 .debug_abbrev  0x000024cd      0x1bf .\ARM_GCC_493\Debug\PSoC_2_Pi.a(USBUART.o)
 .debug_abbrev  0x0000268c      0x1db .\ARM_GCC_493\Debug\PSoC_2_Pi.a(USBUART_cdc.o)
 .debug_abbrev  0x00002867      0x179 .\ARM_GCC_493\Debug\PSoC_2_Pi.a(USBUART_drv.o)
 .debug_abbrev  0x000029e0       0xd2 .\ARM_GCC_493\Debug\PSoC_2_Pi.a(USBUART_episr.o)
 .debug_abbrev  0x00002ab2      0x1ac .\ARM_GCC_493\Debug\PSoC_2_Pi.a(USBUART_std.o)
 .debug_abbrev  0x00002c5e       0xc5 .\ARM_GCC_493\Debug\PSoC_2_Pi.a(USBUART_vnd.o)
 .debug_abbrev  0x00002d23      0x10a .\ARM_GCC_493\Debug\PSoC_2_Pi.a(EEPROM.o)
 .debug_abbrev  0x00002e2d      0x12a .\ARM_GCC_493\Debug\PSoC_2_Pi.a(WaveDAC_clk.o)
 .debug_abbrev  0x00002f57       0xe3 .\ARM_GCC_493\Debug\PSoC_2_Pi.a(WaveDAC8_1.o)
 .debug_abbrev  0x0000303a       0x8e .\ARM_GCC_493\Debug\PSoC_2_Pi.a(WaveDAC8_1_PM.o)
 .debug_abbrev  0x000030c8      0x12a .\ARM_GCC_493\Debug\PSoC_2_Pi.a(PWM_CLK_4.o)
 .debug_abbrev  0x000031f2      0x13b .\ARM_GCC_493\Debug\PSoC_2_Pi.a(PWM_3.o)
 .debug_abbrev  0x0000332d       0x8e .\ARM_GCC_493\Debug\PSoC_2_Pi.a(PWM_3_PM.o)
 .debug_abbrev  0x000033bb      0x12a .\ARM_GCC_493\Debug\PSoC_2_Pi.a(PWM_CLK_3.o)
 .debug_abbrev  0x000034e5      0x13b .\ARM_GCC_493\Debug\PSoC_2_Pi.a(PWM_6.o)
 .debug_abbrev  0x00003620       0x8e .\ARM_GCC_493\Debug\PSoC_2_Pi.a(PWM_6_PM.o)
 .debug_abbrev  0x000036ae      0x13b .\ARM_GCC_493\Debug\PSoC_2_Pi.a(PWM_5.o)
 .debug_abbrev  0x000037e9       0x8e .\ARM_GCC_493\Debug\PSoC_2_Pi.a(PWM_5_PM.o)
 .debug_abbrev  0x00003877      0x12a .\ARM_GCC_493\Debug\PSoC_2_Pi.a(PWM_CLK_2.o)
 .debug_abbrev  0x000039a1      0x13b .\ARM_GCC_493\Debug\PSoC_2_Pi.a(PWM_4.o)
 .debug_abbrev  0x00003adc       0x8e .\ARM_GCC_493\Debug\PSoC_2_Pi.a(PWM_4_PM.o)
 .debug_abbrev  0x00003b6a       0x9d .\ARM_GCC_493\Debug\PSoC_2_Pi.a(GPIO_5_6.o)
 .debug_abbrev  0x00003c07       0x9d .\ARM_GCC_493\Debug\PSoC_2_Pi.a(GPIO_5_7.o)
 .debug_abbrev  0x00003ca4      0x1f1 .\ARM_GCC_493\Debug\PSoC_2_Pi.a(StripLights.o)
 .debug_abbrev  0x00003e95       0xf4 .\ARM_GCC_493\Debug\PSoC_2_Pi.a(StripLights_fonts.o)
 .debug_abbrev  0x00003f89      0x17e .\ARM_GCC_493\Debug\PSoC_2_Pi.a(ADC_SAR_Seq_1.o)
 .debug_abbrev  0x00004107       0x42 .\ARM_GCC_493\Debug\PSoC_2_Pi.a(ADC_SAR_Seq_1_INT.o)
 .debug_abbrev  0x00004149       0xf6 .\ARM_GCC_493\Debug\PSoC_2_Pi.a(Timer.o)
 .debug_abbrev  0x0000423f       0x8e .\ARM_GCC_493\Debug\PSoC_2_Pi.a(TIMER_REG.o)
 .debug_abbrev  0x000042cd       0x9d .\ARM_GCC_493\Debug\PSoC_2_Pi.a(GPIO_12_1.o)
 .debug_abbrev  0x0000436a      0x13b .\ARM_GCC_493\Debug\PSoC_2_Pi.a(PWM_8.o)
 .debug_abbrev  0x000044a5       0x8e .\ARM_GCC_493\Debug\PSoC_2_Pi.a(PWM_8_PM.o)
 .debug_abbrev  0x00004533      0x153 .\ARM_GCC_493\Debug\PSoC_2_Pi.a(CapSense_1_CompCH0.o)
 .debug_abbrev  0x00004686      0x121 .\ARM_GCC_493\Debug\PSoC_2_Pi.a(CapSense_1_IdacCH0.o)
 .debug_abbrev  0x000047a7       0x98 .\ARM_GCC_493\Debug\PSoC_2_Pi.a(CapSense_1_AMuxCH0.o)
 .debug_abbrev  0x0000483f      0x12a .\ARM_GCC_493\Debug\PSoC_2_Pi.a(CapSense_1_IntClock.o)
 .debug_abbrev  0x00004969       0x8b .\ARM_GCC_493\Debug\PSoC_2_Pi.a(WaveDAC8_1_Wave1_DMA_dma.o)
 .debug_abbrev  0x000049f4       0x8b .\ARM_GCC_493\Debug\PSoC_2_Pi.a(WaveDAC8_1_Wave2_DMA_dma.o)
 .debug_abbrev  0x00004a7f       0xf8 .\ARM_GCC_493\Debug\PSoC_2_Pi.a(WaveDAC8_1_VDAC8.o)
 .debug_abbrev  0x00004b77       0xa6 .\ARM_GCC_493\Debug\PSoC_2_Pi.a(WaveDAC8_1_VDAC8_PM.o)
 .debug_abbrev  0x00004c1d       0xb5 .\ARM_GCC_493\Debug\PSoC_2_Pi.a(WaveDAC8_1_BuffAmp.o)
 .debug_abbrev  0x00004cd2      0x17f .\ARM_GCC_493\Debug\PSoC_2_Pi.a(StripLights_isr.o)
 .debug_abbrev  0x00004e51      0x180 .\ARM_GCC_493\Debug\PSoC_2_Pi.a(ADC_SAR_Seq_1_SAR.o)
 .debug_abbrev  0x00004fd1       0x8b .\ARM_GCC_493\Debug\PSoC_2_Pi.a(ADC_SAR_Seq_1_TempBuf_dma.o)
 .debug_abbrev  0x0000505c       0x8b .\ARM_GCC_493\Debug\PSoC_2_Pi.a(ADC_SAR_Seq_1_FinalBuf_dma.o)
 .debug_abbrev  0x000050e7      0x17f .\ARM_GCC_493\Debug\PSoC_2_Pi.a(ADC_SAR_Seq_1_IRQ.o)
 .debug_abbrev  0x00005266       0x14 .\ARM_GCC_493\Debug\PSoC_2_Pi.a(CyBootAsmGnu.o)
 .debug_abbrev  0x0000527a      0x194 .\ARM_GCC_493\Debug\PSoC_2_Pi.a(CyDmac.o)
 .debug_abbrev  0x0000540e      0x12d .\ARM_GCC_493\Debug\PSoC_2_Pi.a(CyFlash.o)
 .debug_abbrev  0x0000553b      0x217 .\ARM_GCC_493\Debug\PSoC_2_Pi.a(CyLib.o)
 .debug_abbrev  0x00005752      0x16e .\ARM_GCC_493\Debug\PSoC_2_Pi.a(cyPm.o)
 .debug_abbrev  0x000058c0      0x179 .\ARM_GCC_493\Debug\PSoC_2_Pi.a(CySpc.o)
 .debug_abbrev  0x00005a39       0xc5 .\ARM_GCC_493\Debug\PSoC_2_Pi.a(USBUART_cls.o)
 .debug_abbrev  0x00005afe       0xa7 .\ARM_GCC_493\Debug\PSoC_2_Pi.a(USBUART_descr.o)

.debug_line     0x00000000     0x840c
 *(.debug_line)
 .debug_line    0x00000000      0x179 .\ARM_GCC_493\Debug\main.o
 .debug_line    0x00000179      0x998 .\ARM_GCC_493\Debug\mem1.o
 .debug_line    0x00000b11      0x47b .\ARM_GCC_493\Debug\LINX.o
 .debug_line    0x00000f8c      0x26f .\ARM_GCC_493\Debug\Python.o
 .debug_line    0x000011fb       0x53 .\ARM_GCC_493\Debug\cymetadata.o
 .debug_line    0x0000124e      0x1d3 .\ARM_GCC_493\Debug\Cm3Start.o
 .debug_line    0x00001421       0x55 .\ARM_GCC_493\Debug\cybootloader.o
 .debug_line    0x00001476      0x24c .\ARM_GCC_493\Debug\PSoC_2_Pi.a(cyfitter_cfg.o)
 .debug_line    0x000016c2      0x1bd .\ARM_GCC_493\Debug\PSoC_2_Pi.a(PWM_CLK_1.o)
 .debug_line    0x0000187f      0x18b .\ARM_GCC_493\Debug\PSoC_2_Pi.a(PWM_1.o)
 .debug_line    0x00001a0a       0xb3 .\ARM_GCC_493\Debug\PSoC_2_Pi.a(PWM_1_PM.o)
 .debug_line    0x00001abd      0x18b .\ARM_GCC_493\Debug\PSoC_2_Pi.a(PWM_2.o)
 .debug_line    0x00001c48       0xb3 .\ARM_GCC_493\Debug\PSoC_2_Pi.a(PWM_2_PM.o)
 .debug_line    0x00001cfb      0x109 .\ARM_GCC_493\Debug\PSoC_2_Pi.a(IDAC8_1.o)
 .debug_line    0x00001e04       0xb3 .\ARM_GCC_493\Debug\PSoC_2_Pi.a(IDAC8_1_PM.o)
 .debug_line    0x00001eb7       0xf2 .\ARM_GCC_493\Debug\PSoC_2_Pi.a(VDAC8_1.o)
 .debug_line    0x00001fa9       0xb3 .\ARM_GCC_493\Debug\PSoC_2_Pi.a(VDAC8_1_PM.o)
 .debug_line    0x0000205c      0x255 .\ARM_GCC_493\Debug\PSoC_2_Pi.a(CapSense_1.o)
 .debug_line    0x000022b1      0x263 .\ARM_GCC_493\Debug\PSoC_2_Pi.a(CapSense_1_CSHL.o)
 .debug_line    0x00002514       0x7e .\ARM_GCC_493\Debug\PSoC_2_Pi.a(CapSense_1_INT.o)
 .debug_line    0x00002592       0xbc .\ARM_GCC_493\Debug\PSoC_2_Pi.a(CapSense_1_PM.o)
 .debug_line    0x0000264e      0x18b .\ARM_GCC_493\Debug\PSoC_2_Pi.a(PWM_7.o)
 .debug_line    0x000027d9       0xb3 .\ARM_GCC_493\Debug\PSoC_2_Pi.a(PWM_7_PM.o)
 .debug_line    0x0000288c       0x99 .\ARM_GCC_493\Debug\PSoC_2_Pi.a(GPIO_5_2.o)
 .debug_line    0x00002925       0x99 .\ARM_GCC_493\Debug\PSoC_2_Pi.a(GPIO_5_3.o)
 .debug_line    0x000029be       0x99 .\ARM_GCC_493\Debug\PSoC_2_Pi.a(GPIO_5_4.o)
 .debug_line    0x00002a57       0x99 .\ARM_GCC_493\Debug\PSoC_2_Pi.a(GPIO_5_5.o)
 .debug_line    0x00002af0       0x99 .\ARM_GCC_493\Debug\PSoC_2_Pi.a(GPIO_5_1.o)
 .debug_line    0x00002b89       0x9a .\ARM_GCC_493\Debug\PSoC_2_Pi.a(GPIO_12_6.o)
 .debug_line    0x00002c23       0x9a .\ARM_GCC_493\Debug\PSoC_2_Pi.a(GPIO_12_7.o)
 .debug_line    0x00002cbd       0x99 .\ARM_GCC_493\Debug\PSoC_2_Pi.a(GPIO_2_1.o)
 .debug_line    0x00002d56       0x99 .\ARM_GCC_493\Debug\PSoC_2_Pi.a(GPIO_2_7.o)
 .debug_line    0x00002def       0x99 .\ARM_GCC_493\Debug\PSoC_2_Pi.a(GPIO_2_6.o)
 .debug_line    0x00002e88       0x99 .\ARM_GCC_493\Debug\PSoC_2_Pi.a(GPIO_2_2.o)
 .debug_line    0x00002f21       0x9a .\ARM_GCC_493\Debug\PSoC_2_Pi.a(GPIO_12_0.o)
 .debug_line    0x00002fbb       0x99 .\ARM_GCC_493\Debug\PSoC_2_Pi.a(GPIO_2_5.o)
 .debug_line    0x00003054       0x9a .\ARM_GCC_493\Debug\PSoC_2_Pi.a(GPIO_12_2.o)
 .debug_line    0x000030ee       0x99 .\ARM_GCC_493\Debug\PSoC_2_Pi.a(GPIO_2_0.o)
 .debug_line    0x00003187       0x99 .\ARM_GCC_493\Debug\PSoC_2_Pi.a(GPIO_2_4.o)
 .debug_line    0x00003220       0x99 .\ARM_GCC_493\Debug\PSoC_2_Pi.a(GPIO_2_3.o)
 .debug_line    0x000032b9       0x9a .\ARM_GCC_493\Debug\PSoC_2_Pi.a(GPIO_12_3.o)
 .debug_line    0x00003353       0x9a .\ARM_GCC_493\Debug\PSoC_2_Pi.a(GPIO_12_4.o)
 .debug_line    0x000033ed       0x99 .\ARM_GCC_493\Debug\PSoC_2_Pi.a(GPIO_5_0.o)
 .debug_line    0x00003486       0x9a .\ARM_GCC_493\Debug\PSoC_2_Pi.a(GPIO_12_5.o)
 .debug_line    0x00003520      0x2bc .\ARM_GCC_493\Debug\PSoC_2_Pi.a(USBUART.o)
 .debug_line    0x000037dc      0x23c .\ARM_GCC_493\Debug\PSoC_2_Pi.a(USBUART_cdc.o)
 .debug_line    0x00003a18      0x216 .\ARM_GCC_493\Debug\PSoC_2_Pi.a(USBUART_drv.o)
 .debug_line    0x00003c2e       0xe6 .\ARM_GCC_493\Debug\PSoC_2_Pi.a(USBUART_episr.o)
 .debug_line    0x00003d14      0x451 .\ARM_GCC_493\Debug\PSoC_2_Pi.a(USBUART_std.o)
 .debug_line    0x00004165       0x91 .\ARM_GCC_493\Debug\PSoC_2_Pi.a(USBUART_vnd.o)
 .debug_line    0x000041f6      0x1a0 .\ARM_GCC_493\Debug\PSoC_2_Pi.a(EEPROM.o)
 .debug_line    0x00004396      0x1e3 .\ARM_GCC_493\Debug\PSoC_2_Pi.a(WaveDAC_clk.o)
 .debug_line    0x00004579       0xf2 .\ARM_GCC_493\Debug\PSoC_2_Pi.a(WaveDAC8_1.o)
 .debug_line    0x0000466b       0x8e .\ARM_GCC_493\Debug\PSoC_2_Pi.a(WaveDAC8_1_PM.o)
 .debug_line    0x000046f9      0x1bd .\ARM_GCC_493\Debug\PSoC_2_Pi.a(PWM_CLK_4.o)
 .debug_line    0x000048b6      0x18b .\ARM_GCC_493\Debug\PSoC_2_Pi.a(PWM_3.o)
 .debug_line    0x00004a41       0xb3 .\ARM_GCC_493\Debug\PSoC_2_Pi.a(PWM_3_PM.o)
 .debug_line    0x00004af4      0x1bd .\ARM_GCC_493\Debug\PSoC_2_Pi.a(PWM_CLK_3.o)
 .debug_line    0x00004cb1      0x18b .\ARM_GCC_493\Debug\PSoC_2_Pi.a(PWM_6.o)
 .debug_line    0x00004e3c       0xb3 .\ARM_GCC_493\Debug\PSoC_2_Pi.a(PWM_6_PM.o)
 .debug_line    0x00004eef      0x18b .\ARM_GCC_493\Debug\PSoC_2_Pi.a(PWM_5.o)
 .debug_line    0x0000507a       0xb3 .\ARM_GCC_493\Debug\PSoC_2_Pi.a(PWM_5_PM.o)
 .debug_line    0x0000512d      0x1bd .\ARM_GCC_493\Debug\PSoC_2_Pi.a(PWM_CLK_2.o)
 .debug_line    0x000052ea      0x18b .\ARM_GCC_493\Debug\PSoC_2_Pi.a(PWM_4.o)
 .debug_line    0x00005475       0xb3 .\ARM_GCC_493\Debug\PSoC_2_Pi.a(PWM_4_PM.o)
 .debug_line    0x00005528       0x99 .\ARM_GCC_493\Debug\PSoC_2_Pi.a(GPIO_5_6.o)
 .debug_line    0x000055c1       0x99 .\ARM_GCC_493\Debug\PSoC_2_Pi.a(GPIO_5_7.o)
 .debug_line    0x0000565a      0x22a .\ARM_GCC_493\Debug\PSoC_2_Pi.a(StripLights.o)
 .debug_line    0x00005884      0x119 .\ARM_GCC_493\Debug\PSoC_2_Pi.a(StripLights_fonts.o)
 .debug_line    0x0000599d      0x260 .\ARM_GCC_493\Debug\PSoC_2_Pi.a(ADC_SAR_Seq_1.o)
 .debug_line    0x00005bfd       0x5f .\ARM_GCC_493\Debug\PSoC_2_Pi.a(ADC_SAR_Seq_1_INT.o)
 .debug_line    0x00005c5c      0x15f .\ARM_GCC_493\Debug\PSoC_2_Pi.a(Timer.o)
 .debug_line    0x00005dbb       0x74 .\ARM_GCC_493\Debug\PSoC_2_Pi.a(TIMER_REG.o)
 .debug_line    0x00005e2f       0x9a .\ARM_GCC_493\Debug\PSoC_2_Pi.a(GPIO_12_1.o)
 .debug_line    0x00005ec9      0x18b .\ARM_GCC_493\Debug\PSoC_2_Pi.a(PWM_8.o)
 .debug_line    0x00006054       0xb3 .\ARM_GCC_493\Debug\PSoC_2_Pi.a(PWM_8_PM.o)
 .debug_line    0x00006107      0x179 .\ARM_GCC_493\Debug\PSoC_2_Pi.a(CapSense_1_CompCH0.o)
 .debug_line    0x00006280      0x115 .\ARM_GCC_493\Debug\PSoC_2_Pi.a(CapSense_1_IdacCH0.o)
 .debug_line    0x00006395       0xde .\ARM_GCC_493\Debug\PSoC_2_Pi.a(CapSense_1_AMuxCH0.o)
 .debug_line    0x00006473      0x1c7 .\ARM_GCC_493\Debug\PSoC_2_Pi.a(CapSense_1_IntClock.o)
 .debug_line    0x0000663a       0xa0 .\ARM_GCC_493\Debug\PSoC_2_Pi.a(WaveDAC8_1_Wave1_DMA_dma.o)
 .debug_line    0x000066da       0xa0 .\ARM_GCC_493\Debug\PSoC_2_Pi.a(WaveDAC8_1_Wave2_DMA_dma.o)
 .debug_line    0x0000677a       0xfa .\ARM_GCC_493\Debug\PSoC_2_Pi.a(WaveDAC8_1_VDAC8.o)
 .debug_line    0x00006874       0xc5 .\ARM_GCC_493\Debug\PSoC_2_Pi.a(WaveDAC8_1_VDAC8_PM.o)
 .debug_line    0x00006939       0xbc .\ARM_GCC_493\Debug\PSoC_2_Pi.a(WaveDAC8_1_BuffAmp.o)
 .debug_line    0x000069f5      0x173 .\ARM_GCC_493\Debug\PSoC_2_Pi.a(StripLights_isr.o)
 .debug_line    0x00006b68      0x211 .\ARM_GCC_493\Debug\PSoC_2_Pi.a(ADC_SAR_Seq_1_SAR.o)
 .debug_line    0x00006d79       0xa1 .\ARM_GCC_493\Debug\PSoC_2_Pi.a(ADC_SAR_Seq_1_TempBuf_dma.o)
 .debug_line    0x00006e1a       0xa2 .\ARM_GCC_493\Debug\PSoC_2_Pi.a(ADC_SAR_Seq_1_FinalBuf_dma.o)
 .debug_line    0x00006ebc      0x165 .\ARM_GCC_493\Debug\PSoC_2_Pi.a(ADC_SAR_Seq_1_IRQ.o)
 .debug_line    0x00007021       0x68 .\ARM_GCC_493\Debug\PSoC_2_Pi.a(CyBootAsmGnu.o)
 .debug_line    0x00007089      0x2b7 .\ARM_GCC_493\Debug\PSoC_2_Pi.a(CyDmac.o)
 .debug_line    0x00007340      0x207 .\ARM_GCC_493\Debug\PSoC_2_Pi.a(CyFlash.o)
 .debug_line    0x00007547      0x841 .\ARM_GCC_493\Debug\PSoC_2_Pi.a(CyLib.o)
 .debug_line    0x00007d88      0x36f .\ARM_GCC_493\Debug\PSoC_2_Pi.a(cyPm.o)
 .debug_line    0x000080f7      0x217 .\ARM_GCC_493\Debug\PSoC_2_Pi.a(CySpc.o)
 .debug_line    0x0000830e       0x9b .\ARM_GCC_493\Debug\PSoC_2_Pi.a(USBUART_cls.o)
 .debug_line    0x000083a9       0x63 .\ARM_GCC_493\Debug\PSoC_2_Pi.a(USBUART_descr.o)

.debug_frame    0x00000000     0x7e18
 *(.debug_frame)
 .debug_frame   0x00000000       0x30 .\ARM_GCC_493\Debug\main.o
 .debug_frame   0x00000030      0x3f4 .\ARM_GCC_493\Debug\mem1.o
 .debug_frame   0x00000424      0x104 .\ARM_GCC_493\Debug\LINX.o
 .debug_frame   0x00000528       0xa4 .\ARM_GCC_493\Debug\Python.o
 .debug_frame   0x000005cc       0xd4 .\ARM_GCC_493\Debug\Cm3Start.o
 .debug_frame   0x000006a0      0x1bc .\ARM_GCC_493\Debug\PSoC_2_Pi.a(cyfitter_cfg.o)
 .debug_frame   0x0000085c      0x1b4 .\ARM_GCC_493\Debug\PSoC_2_Pi.a(PWM_CLK_1.o)
 .debug_frame   0x00000a10      0x25c .\ARM_GCC_493\Debug\PSoC_2_Pi.a(PWM_1.o)
 .debug_frame   0x00000c6c       0x80 .\ARM_GCC_493\Debug\PSoC_2_Pi.a(PWM_1_PM.o)
 .debug_frame   0x00000cec      0x25c .\ARM_GCC_493\Debug\PSoC_2_Pi.a(PWM_2.o)
 .debug_frame   0x00000f48       0x80 .\ARM_GCC_493\Debug\PSoC_2_Pi.a(PWM_2_PM.o)
 .debug_frame   0x00000fc8      0x158 .\ARM_GCC_493\Debug\PSoC_2_Pi.a(IDAC8_1.o)
 .debug_frame   0x00001120       0x90 .\ARM_GCC_493\Debug\PSoC_2_Pi.a(IDAC8_1_PM.o)
 .debug_frame   0x000011b0      0x130 .\ARM_GCC_493\Debug\PSoC_2_Pi.a(VDAC8_1.o)
 .debug_frame   0x000012e0       0x90 .\ARM_GCC_493\Debug\PSoC_2_Pi.a(VDAC8_1_PM.o)
 .debug_frame   0x00001370      0x2e0 .\ARM_GCC_493\Debug\PSoC_2_Pi.a(CapSense_1.o)
 .debug_frame   0x00001650      0x1f0 .\ARM_GCC_493\Debug\PSoC_2_Pi.a(CapSense_1_CSHL.o)
 .debug_frame   0x00001840       0x2c .\ARM_GCC_493\Debug\PSoC_2_Pi.a(CapSense_1_INT.o)
 .debug_frame   0x0000186c       0x88 .\ARM_GCC_493\Debug\PSoC_2_Pi.a(CapSense_1_PM.o)
 .debug_frame   0x000018f4      0x25c .\ARM_GCC_493\Debug\PSoC_2_Pi.a(PWM_7.o)
 .debug_frame   0x00001b50       0x80 .\ARM_GCC_493\Debug\PSoC_2_Pi.a(PWM_7_PM.o)
 .debug_frame   0x00001bd0       0xa8 .\ARM_GCC_493\Debug\PSoC_2_Pi.a(GPIO_5_2.o)
 .debug_frame   0x00001c78       0xa8 .\ARM_GCC_493\Debug\PSoC_2_Pi.a(GPIO_5_3.o)
 .debug_frame   0x00001d20       0xa8 .\ARM_GCC_493\Debug\PSoC_2_Pi.a(GPIO_5_4.o)
 .debug_frame   0x00001dc8       0xa8 .\ARM_GCC_493\Debug\PSoC_2_Pi.a(GPIO_5_5.o)
 .debug_frame   0x00001e70       0xa8 .\ARM_GCC_493\Debug\PSoC_2_Pi.a(GPIO_5_1.o)
 .debug_frame   0x00001f18       0xa8 .\ARM_GCC_493\Debug\PSoC_2_Pi.a(GPIO_12_6.o)
 .debug_frame   0x00001fc0       0xa8 .\ARM_GCC_493\Debug\PSoC_2_Pi.a(GPIO_12_7.o)
 .debug_frame   0x00002068       0xa8 .\ARM_GCC_493\Debug\PSoC_2_Pi.a(GPIO_2_1.o)
 .debug_frame   0x00002110       0xa8 .\ARM_GCC_493\Debug\PSoC_2_Pi.a(GPIO_2_7.o)
 .debug_frame   0x000021b8       0xa8 .\ARM_GCC_493\Debug\PSoC_2_Pi.a(GPIO_2_6.o)
 .debug_frame   0x00002260       0xa8 .\ARM_GCC_493\Debug\PSoC_2_Pi.a(GPIO_2_2.o)
 .debug_frame   0x00002308       0xa8 .\ARM_GCC_493\Debug\PSoC_2_Pi.a(GPIO_12_0.o)
 .debug_frame   0x000023b0       0xa8 .\ARM_GCC_493\Debug\PSoC_2_Pi.a(GPIO_2_5.o)
 .debug_frame   0x00002458       0xa8 .\ARM_GCC_493\Debug\PSoC_2_Pi.a(GPIO_12_2.o)
 .debug_frame   0x00002500       0xa8 .\ARM_GCC_493\Debug\PSoC_2_Pi.a(GPIO_2_0.o)
 .debug_frame   0x000025a8       0xa8 .\ARM_GCC_493\Debug\PSoC_2_Pi.a(GPIO_2_4.o)
 .debug_frame   0x00002650       0xa8 .\ARM_GCC_493\Debug\PSoC_2_Pi.a(GPIO_2_3.o)
 .debug_frame   0x000026f8       0xa8 .\ARM_GCC_493\Debug\PSoC_2_Pi.a(GPIO_12_3.o)
 .debug_frame   0x000027a0       0xa8 .\ARM_GCC_493\Debug\PSoC_2_Pi.a(GPIO_12_4.o)
 .debug_frame   0x00002848       0xa8 .\ARM_GCC_493\Debug\PSoC_2_Pi.a(GPIO_5_0.o)
 .debug_frame   0x000028f0       0xa8 .\ARM_GCC_493\Debug\PSoC_2_Pi.a(GPIO_12_5.o)
 .debug_frame   0x00002998      0x304 .\ARM_GCC_493\Debug\PSoC_2_Pi.a(USBUART.o)
 .debug_frame   0x00002c9c      0x2e4 .\ARM_GCC_493\Debug\PSoC_2_Pi.a(USBUART_cdc.o)
 .debug_frame   0x00002f80      0x23c .\ARM_GCC_493\Debug\PSoC_2_Pi.a(USBUART_drv.o)
 .debug_frame   0x000031bc       0xbc .\ARM_GCC_493\Debug\PSoC_2_Pi.a(USBUART_episr.o)
 .debug_frame   0x00003278      0x1f4 .\ARM_GCC_493\Debug\PSoC_2_Pi.a(USBUART_std.o)
 .debug_frame   0x0000346c       0x38 .\ARM_GCC_493\Debug\PSoC_2_Pi.a(USBUART_vnd.o)
 .debug_frame   0x000034a4      0x12c .\ARM_GCC_493\Debug\PSoC_2_Pi.a(EEPROM.o)
 .debug_frame   0x000035d0      0x200 .\ARM_GCC_493\Debug\PSoC_2_Pi.a(WaveDAC_clk.o)
 .debug_frame   0x000037d0       0xf8 .\ARM_GCC_493\Debug\PSoC_2_Pi.a(WaveDAC8_1.o)
 .debug_frame   0x000038c8       0x48 .\ARM_GCC_493\Debug\PSoC_2_Pi.a(WaveDAC8_1_PM.o)
 .debug_frame   0x00003910      0x1b4 .\ARM_GCC_493\Debug\PSoC_2_Pi.a(PWM_CLK_4.o)
 .debug_frame   0x00003ac4      0x25c .\ARM_GCC_493\Debug\PSoC_2_Pi.a(PWM_3.o)
 .debug_frame   0x00003d20       0x80 .\ARM_GCC_493\Debug\PSoC_2_Pi.a(PWM_3_PM.o)
 .debug_frame   0x00003da0      0x1b4 .\ARM_GCC_493\Debug\PSoC_2_Pi.a(PWM_CLK_3.o)
 .debug_frame   0x00003f54      0x25c .\ARM_GCC_493\Debug\PSoC_2_Pi.a(PWM_6.o)
 .debug_frame   0x000041b0       0x80 .\ARM_GCC_493\Debug\PSoC_2_Pi.a(PWM_6_PM.o)
 .debug_frame   0x00004230      0x25c .\ARM_GCC_493\Debug\PSoC_2_Pi.a(PWM_5.o)
 .debug_frame   0x0000448c       0x80 .\ARM_GCC_493\Debug\PSoC_2_Pi.a(PWM_5_PM.o)
 .debug_frame   0x0000450c      0x1b4 .\ARM_GCC_493\Debug\PSoC_2_Pi.a(PWM_CLK_2.o)
 .debug_frame   0x000046c0      0x25c .\ARM_GCC_493\Debug\PSoC_2_Pi.a(PWM_4.o)
 .debug_frame   0x0000491c       0x80 .\ARM_GCC_493\Debug\PSoC_2_Pi.a(PWM_4_PM.o)
 .debug_frame   0x0000499c       0xa8 .\ARM_GCC_493\Debug\PSoC_2_Pi.a(GPIO_5_6.o)
 .debug_frame   0x00004a44       0xa8 .\ARM_GCC_493\Debug\PSoC_2_Pi.a(GPIO_5_7.o)
 .debug_frame   0x00004aec      0x220 .\ARM_GCC_493\Debug\PSoC_2_Pi.a(StripLights.o)
 .debug_frame   0x00004d0c       0x90 .\ARM_GCC_493\Debug\PSoC_2_Pi.a(StripLights_fonts.o)
 .debug_frame   0x00004d9c      0x2e0 .\ARM_GCC_493\Debug\PSoC_2_Pi.a(ADC_SAR_Seq_1.o)
 .debug_frame   0x0000507c       0x34 .\ARM_GCC_493\Debug\PSoC_2_Pi.a(ADC_SAR_Seq_1_INT.o)
 .debug_frame   0x000050b0      0x208 .\ARM_GCC_493\Debug\PSoC_2_Pi.a(Timer.o)
 .debug_frame   0x000052b8       0x5c .\ARM_GCC_493\Debug\PSoC_2_Pi.a(TIMER_REG.o)
 .debug_frame   0x00005314       0xa8 .\ARM_GCC_493\Debug\PSoC_2_Pi.a(GPIO_12_1.o)
 .debug_frame   0x000053bc      0x25c .\ARM_GCC_493\Debug\PSoC_2_Pi.a(PWM_8.o)
 .debug_frame   0x00005618       0x80 .\ARM_GCC_493\Debug\PSoC_2_Pi.a(PWM_8_PM.o)
 .debug_frame   0x00005698      0x19c .\ARM_GCC_493\Debug\PSoC_2_Pi.a(CapSense_1_CompCH0.o)
 .debug_frame   0x00005834      0x158 .\ARM_GCC_493\Debug\PSoC_2_Pi.a(CapSense_1_IdacCH0.o)
 .debug_frame   0x0000598c       0xdc .\ARM_GCC_493\Debug\PSoC_2_Pi.a(CapSense_1_AMuxCH0.o)
 .debug_frame   0x00005a68      0x1b4 .\ARM_GCC_493\Debug\PSoC_2_Pi.a(CapSense_1_IntClock.o)
 .debug_frame   0x00005c1c       0x58 .\ARM_GCC_493\Debug\PSoC_2_Pi.a(WaveDAC8_1_Wave1_DMA_dma.o)
 .debug_frame   0x00005c74       0x58 .\ARM_GCC_493\Debug\PSoC_2_Pi.a(WaveDAC8_1_Wave2_DMA_dma.o)
 .debug_frame   0x00005ccc      0x130 .\ARM_GCC_493\Debug\PSoC_2_Pi.a(WaveDAC8_1_VDAC8.o)
 .debug_frame   0x00005dfc       0x90 .\ARM_GCC_493\Debug\PSoC_2_Pi.a(WaveDAC8_1_VDAC8_PM.o)
 .debug_frame   0x00005e8c       0xb8 .\ARM_GCC_493\Debug\PSoC_2_Pi.a(WaveDAC8_1_BuffAmp.o)
 .debug_frame   0x00005f44      0x1e8 .\ARM_GCC_493\Debug\PSoC_2_Pi.a(StripLights_isr.o)
 .debug_frame   0x0000612c      0x2c0 .\ARM_GCC_493\Debug\PSoC_2_Pi.a(ADC_SAR_Seq_1_SAR.o)
 .debug_frame   0x000063ec       0x58 .\ARM_GCC_493\Debug\PSoC_2_Pi.a(ADC_SAR_Seq_1_TempBuf_dma.o)
 .debug_frame   0x00006444       0x58 .\ARM_GCC_493\Debug\PSoC_2_Pi.a(ADC_SAR_Seq_1_FinalBuf_dma.o)
 .debug_frame   0x0000649c      0x1e8 .\ARM_GCC_493\Debug\PSoC_2_Pi.a(ADC_SAR_Seq_1_IRQ.o)
 .debug_frame   0x00006684      0x3d0 .\ARM_GCC_493\Debug\PSoC_2_Pi.a(CyDmac.o)
 .debug_frame   0x00006a54      0x210 .\ARM_GCC_493\Debug\PSoC_2_Pi.a(CyFlash.o)
 .debug_frame   0x00006c64      0xbcc .\ARM_GCC_493\Debug\PSoC_2_Pi.a(CyLib.o)
 .debug_frame   0x00007830      0x218 .\ARM_GCC_493\Debug\PSoC_2_Pi.a(cyPm.o)
 .debug_frame   0x00007a48      0x1f8 .\ARM_GCC_493\Debug\PSoC_2_Pi.a(CySpc.o)
 .debug_frame   0x00007c40       0x38 .\ARM_GCC_493\Debug\PSoC_2_Pi.a(USBUART_cls.o)
 .debug_frame   0x00007c78       0x28 c:/program files (x86)/cypress/psoc creator/3.3/psoc creator/import/gnu/arm/4.9.3/bin/../lib/gcc/arm-none-eabi/4.9.3/armv7-m\libgcc.a(_aeabi_ldivmod.o)
 .debug_frame   0x00007ca0       0x54 c:/program files (x86)/cypress/psoc creator/3.3/psoc creator/import/gnu/arm/4.9.3/bin/../lib/gcc/arm-none-eabi/4.9.3/armv7-m\libgcc.a(bpabi.o)
 .debug_frame   0x00007cf4       0x34 c:/program files (x86)/cypress/psoc creator/3.3/psoc creator/import/gnu/arm/4.9.3/bin/../lib/gcc/arm-none-eabi/4.9.3/armv7-m\libgcc.a(_divdi3.o)
 .debug_frame   0x00007d28       0x34 c:/program files (x86)/cypress/psoc creator/3.3/psoc creator/import/gnu/arm/4.9.3/bin/../lib/gcc/arm-none-eabi/4.9.3/armv7-m\libgcc.a(_udivdi3.o)
 .debug_frame   0x00007d5c       0x20 c:/program files (x86)/cypress/psoc creator/3.3/psoc creator/import/gnu/arm/4.9.3/bin/../lib/gcc/arm-none-eabi/4.9.3/../../../../arm-none-eabi/lib/armv7-m\libg_nano.a(lib_a-errno.o)
 .debug_frame   0x00007d7c       0x28 c:/program files (x86)/cypress/psoc creator/3.3/psoc creator/import/gnu/arm/4.9.3/bin/../lib/gcc/arm-none-eabi/4.9.3/../../../../arm-none-eabi/lib/armv7-m\libg_nano.a(lib_a-exit.o)
 .debug_frame   0x00007da4       0x2c c:/program files (x86)/cypress/psoc creator/3.3/psoc creator/import/gnu/arm/4.9.3/bin/../lib/gcc/arm-none-eabi/4.9.3/../../../../arm-none-eabi/lib/armv7-m\libg_nano.a(lib_a-init.o)
 .debug_frame   0x00007dd0       0x28 c:/program files (x86)/cypress/psoc creator/3.3/psoc creator/import/gnu/arm/4.9.3/bin/../lib/gcc/arm-none-eabi/4.9.3/../../../../arm-none-eabi/lib/armv7-m\libg_nano.a(lib_a-memcpy.o)
 .debug_frame   0x00007df8       0x20 c:/program files (x86)/cypress/psoc creator/3.3/psoc creator/import/gnu/arm/4.9.3/bin/../lib/gcc/arm-none-eabi/4.9.3/../../../../arm-none-eabi/lib/armv7-m\libg_nano.a(lib_a-memset.o)

.debug_str      0x00000000     0x6ddc
 *(.debug_str)
 .debug_str     0x00000000      0x1ff .\ARM_GCC_493\Debug\main.o
                                0x245 (size before relaxing)
 .debug_str     0x000001ff      0x229 .\ARM_GCC_493\Debug\mem1.o
                                0x44d (size before relaxing)
 .debug_str     0x00000428      0x12d .\ARM_GCC_493\Debug\LINX.o
                                0x369 (size before relaxing)
 .debug_str     0x00000555       0x8e .\ARM_GCC_493\Debug\Python.o
                                0x2ba (size before relaxing)
 .debug_str     0x000005e3       0x80 .\ARM_GCC_493\Debug\cymetadata.o
                                0x1b3 (size before relaxing)
 .debug_str     0x00000663      0x12c .\ARM_GCC_493\Debug\Cm3Start.o
                                0x2c2 (size before relaxing)
 .debug_str     0x0000078f       0x84 .\ARM_GCC_493\Debug\cybootloader.o
                                0x1ee (size before relaxing)
 .debug_str     0x00000813      0x1bc .\ARM_GCC_493\Debug\PSoC_2_Pi.a(cyfitter_cfg.o)
                                0x370 (size before relaxing)
 .debug_str     0x000009cf      0x182 .\ARM_GCC_493\Debug\PSoC_2_Pi.a(PWM_CLK_1.o)
                                0x2fd (size before relaxing)
 .debug_str     0x00000b51      0x199 .\ARM_GCC_493\Debug\PSoC_2_Pi.a(PWM_1.o)
                                0x31c (size before relaxing)
 .debug_str     0x00000cea       0xc8 .\ARM_GCC_493\Debug\PSoC_2_Pi.a(PWM_1_PM.o)
                                0x23e (size before relaxing)
 .debug_str     0x00000db2      0x167 .\ARM_GCC_493\Debug\PSoC_2_Pi.a(PWM_2.o)
                                0x31c (size before relaxing)
 .debug_str     0x00000f19       0x82 .\ARM_GCC_493\Debug\PSoC_2_Pi.a(PWM_2_PM.o)
                                0x23e (size before relaxing)
 .debug_str     0x00000f9b       0xd6 .\ARM_GCC_493\Debug\PSoC_2_Pi.a(IDAC8_1.o)
                                0x247 (size before relaxing)
 .debug_str     0x00001071       0xa7 .\ARM_GCC_493\Debug\PSoC_2_Pi.a(IDAC8_1_PM.o)
                                0x20d (size before relaxing)
 .debug_str     0x00001118       0xad .\ARM_GCC_493\Debug\PSoC_2_Pi.a(VDAC8_1.o)
                                0x258 (size before relaxing)
 .debug_str     0x000011c5       0x90 .\ARM_GCC_493\Debug\PSoC_2_Pi.a(VDAC8_1_PM.o)
                                0x23b (size before relaxing)
 .debug_str     0x00001255      0x34e .\ARM_GCC_493\Debug\PSoC_2_Pi.a(CapSense_1.o)
                                0x4dc (size before relaxing)
 .debug_str     0x000015a3      0x31c .\ARM_GCC_493\Debug\PSoC_2_Pi.a(CapSense_1_CSHL.o)
                                0x53b (size before relaxing)
 .debug_str     0x000018bf       0x40 .\ARM_GCC_493\Debug\PSoC_2_Pi.a(CapSense_1_INT.o)
                                0x1d0 (size before relaxing)
 .debug_str     0x000018ff       0xae .\ARM_GCC_493\Debug\PSoC_2_Pi.a(CapSense_1_PM.o)
                                0x236 (size before relaxing)
 .debug_str     0x000019ad      0x167 .\ARM_GCC_493\Debug\PSoC_2_Pi.a(PWM_7.o)
                                0x31c (size before relaxing)
 .debug_str     0x00001b14       0x82 .\ARM_GCC_493\Debug\PSoC_2_Pi.a(PWM_7_PM.o)
                                0x23e (size before relaxing)
 .debug_str     0x00001b96       0x77 .\ARM_GCC_493\Debug\PSoC_2_Pi.a(GPIO_5_2.o)
                                0x1e8 (size before relaxing)
 .debug_str     0x00001c0d       0x6c .\ARM_GCC_493\Debug\PSoC_2_Pi.a(GPIO_5_3.o)
                                0x1e8 (size before relaxing)
 .debug_str     0x00001c79       0x6c .\ARM_GCC_493\Debug\PSoC_2_Pi.a(GPIO_5_4.o)
                                0x1e8 (size before relaxing)
 .debug_str     0x00001ce5       0x6c .\ARM_GCC_493\Debug\PSoC_2_Pi.a(GPIO_5_5.o)
                                0x1e8 (size before relaxing)
 .debug_str     0x00001d51       0x6c .\ARM_GCC_493\Debug\PSoC_2_Pi.a(GPIO_5_1.o)
                                0x1e8 (size before relaxing)
 .debug_str     0x00001dbd       0x71 .\ARM_GCC_493\Debug\PSoC_2_Pi.a(GPIO_12_6.o)
                                0x1ed (size before relaxing)
 .debug_str     0x00001e2e       0x71 .\ARM_GCC_493\Debug\PSoC_2_Pi.a(GPIO_12_7.o)
                                0x1ed (size before relaxing)
 .debug_str     0x00001e9f       0x6c .\ARM_GCC_493\Debug\PSoC_2_Pi.a(GPIO_2_1.o)
                                0x1e8 (size before relaxing)
 .debug_str     0x00001f0b       0x6c .\ARM_GCC_493\Debug\PSoC_2_Pi.a(GPIO_2_7.o)
                                0x1e8 (size before relaxing)
 .debug_str     0x00001f77       0x6c .\ARM_GCC_493\Debug\PSoC_2_Pi.a(GPIO_2_6.o)
                                0x1e8 (size before relaxing)
 .debug_str     0x00001fe3       0x6c .\ARM_GCC_493\Debug\PSoC_2_Pi.a(GPIO_2_2.o)
                                0x1e8 (size before relaxing)
 .debug_str     0x0000204f       0x71 .\ARM_GCC_493\Debug\PSoC_2_Pi.a(GPIO_12_0.o)
                                0x1ed (size before relaxing)
 .debug_str     0x000020c0       0x6c .\ARM_GCC_493\Debug\PSoC_2_Pi.a(GPIO_2_5.o)
                                0x1e8 (size before relaxing)
 .debug_str     0x0000212c       0x71 .\ARM_GCC_493\Debug\PSoC_2_Pi.a(GPIO_12_2.o)
                                0x1ed (size before relaxing)
 .debug_str     0x0000219d       0x6c .\ARM_GCC_493\Debug\PSoC_2_Pi.a(GPIO_2_0.o)
                                0x1e8 (size before relaxing)
 .debug_str     0x00002209       0x6c .\ARM_GCC_493\Debug\PSoC_2_Pi.a(GPIO_2_4.o)
                                0x1e8 (size before relaxing)
 .debug_str     0x00002275       0x6c .\ARM_GCC_493\Debug\PSoC_2_Pi.a(GPIO_2_3.o)
                                0x1e8 (size before relaxing)
 .debug_str     0x000022e1       0x71 .\ARM_GCC_493\Debug\PSoC_2_Pi.a(GPIO_12_3.o)
                                0x1ed (size before relaxing)
 .debug_str     0x00002352       0x71 .\ARM_GCC_493\Debug\PSoC_2_Pi.a(GPIO_12_4.o)
                                0x1ed (size before relaxing)
 .debug_str     0x000023c3       0x6c .\ARM_GCC_493\Debug\PSoC_2_Pi.a(GPIO_5_0.o)
                                0x1e8 (size before relaxing)
 .debug_str     0x0000242f       0x71 .\ARM_GCC_493\Debug\PSoC_2_Pi.a(GPIO_12_5.o)
                                0x1ed (size before relaxing)
 .debug_str     0x000024a0      0x31f .\ARM_GCC_493\Debug\PSoC_2_Pi.a(USBUART.o)
                                0x4db (size before relaxing)
 .debug_str     0x000027bf      0x2b1 .\ARM_GCC_493\Debug\PSoC_2_Pi.a(USBUART_cdc.o)
                                0x4d7 (size before relaxing)
 .debug_str     0x00002a70      0x290 .\ARM_GCC_493\Debug\PSoC_2_Pi.a(USBUART_drv.o)
                                0x5c8 (size before relaxing)
 .debug_str     0x00002d00       0x82 .\ARM_GCC_493\Debug\PSoC_2_Pi.a(USBUART_episr.o)
                                0x26b (size before relaxing)
 .debug_str     0x00002d82      0x2c1 .\ARM_GCC_493\Debug\PSoC_2_Pi.a(USBUART_std.o)
                                0x651 (size before relaxing)
 .debug_str     0x00003043       0x61 .\ARM_GCC_493\Debug\PSoC_2_Pi.a(USBUART_vnd.o)
                                0x248 (size before relaxing)
 .debug_str     0x000030a4       0xbe .\ARM_GCC_493\Debug\PSoC_2_Pi.a(EEPROM.o)
                                0x266 (size before relaxing)
 .debug_str     0x00003162      0x18c .\ARM_GCC_493\Debug\PSoC_2_Pi.a(WaveDAC_clk.o)
                                0x358 (size before relaxing)
 .debug_str     0x000032ee      0x16a .\ARM_GCC_493\Debug\PSoC_2_Pi.a(WaveDAC8_1.o)
                                0x2e2 (size before relaxing)
 .debug_str     0x00003458       0x77 .\ARM_GCC_493\Debug\PSoC_2_Pi.a(WaveDAC8_1_PM.o)
                                0x1f2 (size before relaxing)
 .debug_str     0x000034cf      0x131 .\ARM_GCC_493\Debug\PSoC_2_Pi.a(PWM_CLK_4.o)
                                0x2fd (size before relaxing)
 .debug_str     0x00003600      0x167 .\ARM_GCC_493\Debug\PSoC_2_Pi.a(PWM_3.o)
                                0x31c (size before relaxing)
 .debug_str     0x00003767       0x82 .\ARM_GCC_493\Debug\PSoC_2_Pi.a(PWM_3_PM.o)
                                0x23e (size before relaxing)
 .debug_str     0x000037e9      0x131 .\ARM_GCC_493\Debug\PSoC_2_Pi.a(PWM_CLK_3.o)
                                0x2fd (size before relaxing)
 .debug_str     0x0000391a      0x167 .\ARM_GCC_493\Debug\PSoC_2_Pi.a(PWM_6.o)
                                0x31c (size before relaxing)
 .debug_str     0x00003a81       0x82 .\ARM_GCC_493\Debug\PSoC_2_Pi.a(PWM_6_PM.o)
                                0x23e (size before relaxing)
 .debug_str     0x00003b03      0x167 .\ARM_GCC_493\Debug\PSoC_2_Pi.a(PWM_5.o)
                                0x31c (size before relaxing)
 .debug_str     0x00003c6a       0x82 .\ARM_GCC_493\Debug\PSoC_2_Pi.a(PWM_5_PM.o)
                                0x23e (size before relaxing)
 .debug_str     0x00003cec      0x131 .\ARM_GCC_493\Debug\PSoC_2_Pi.a(PWM_CLK_2.o)
                                0x2fd (size before relaxing)
 .debug_str     0x00003e1d      0x167 .\ARM_GCC_493\Debug\PSoC_2_Pi.a(PWM_4.o)
                                0x31c (size before relaxing)
 .debug_str     0x00003f84       0x82 .\ARM_GCC_493\Debug\PSoC_2_Pi.a(PWM_4_PM.o)
                                0x23e (size before relaxing)
 .debug_str     0x00004006       0x6c .\ARM_GCC_493\Debug\PSoC_2_Pi.a(GPIO_5_6.o)
                                0x1e8 (size before relaxing)
 .debug_str     0x00004072       0x6c .\ARM_GCC_493\Debug\PSoC_2_Pi.a(GPIO_5_7.o)
                                0x1e8 (size before relaxing)
 .debug_str     0x000040de      0x249 .\ARM_GCC_493\Debug\PSoC_2_Pi.a(StripLights.o)
                                0x3d2 (size before relaxing)
 .debug_str     0x00004327      0x104 .\ARM_GCC_493\Debug\PSoC_2_Pi.a(StripLights_fonts.o)
                                0x295 (size before relaxing)
 .debug_str     0x0000442b      0x373 .\ARM_GCC_493\Debug\PSoC_2_Pi.a(ADC_SAR_Seq_1.o)
                                0x528 (size before relaxing)
 .debug_str     0x0000479e       0x3f .\ARM_GCC_493\Debug\PSoC_2_Pi.a(ADC_SAR_Seq_1_INT.o)
                                0x1a3 (size before relaxing)
 .debug_str     0x000047dd      0x13f .\ARM_GCC_493\Debug\PSoC_2_Pi.a(Timer.o)
                                0x2e0 (size before relaxing)
 .debug_str     0x0000491c       0x44 .\ARM_GCC_493\Debug\PSoC_2_Pi.a(TIMER_REG.o)
                                0x1b2 (size before relaxing)
 .debug_str     0x00004960       0x71 .\ARM_GCC_493\Debug\PSoC_2_Pi.a(GPIO_12_1.o)
                                0x1ed (size before relaxing)
 .debug_str     0x000049d1      0x167 .\ARM_GCC_493\Debug\PSoC_2_Pi.a(PWM_8.o)
                                0x31c (size before relaxing)
 .debug_str     0x00004b38       0x82 .\ARM_GCC_493\Debug\PSoC_2_Pi.a(PWM_8_PM.o)
                                0x23e (size before relaxing)
 .debug_str     0x00004bba      0x1d2 .\ARM_GCC_493\Debug\PSoC_2_Pi.a(CapSense_1_CompCH0.o)
                                0x355 (size before relaxing)
 .debug_str     0x00004d8c      0x13a .\ARM_GCC_493\Debug\PSoC_2_Pi.a(CapSense_1_IdacCH0.o)
                                0x2c0 (size before relaxing)
 .debug_str     0x00004ec6      0x10a .\ARM_GCC_493\Debug\PSoC_2_Pi.a(CapSense_1_AMuxCH0.o)
                                0x278 (size before relaxing)
 .debug_str     0x00004fd0      0x1a9 .\ARM_GCC_493\Debug\PSoC_2_Pi.a(CapSense_1_IntClock.o)
                                0x375 (size before relaxing)
 .debug_str     0x00005179       0xd1 .\ARM_GCC_493\Debug\PSoC_2_Pi.a(WaveDAC8_1_Wave1_DMA_dma.o)
                                0x242 (size before relaxing)
 .debug_str     0x0000524a       0x96 .\ARM_GCC_493\Debug\PSoC_2_Pi.a(WaveDAC8_1_Wave2_DMA_dma.o)
                                0x242 (size before relaxing)
 .debug_str     0x000052e0      0x107 .\ARM_GCC_493\Debug\PSoC_2_Pi.a(WaveDAC8_1_VDAC8.o)
                                0x284 (size before relaxing)
 .debug_str     0x000053e7       0xcf .\ARM_GCC_493\Debug\PSoC_2_Pi.a(WaveDAC8_1_VDAC8_PM.o)
                                0x24c (size before relaxing)
 .debug_str     0x000054b6       0xce .\ARM_GCC_493\Debug\PSoC_2_Pi.a(WaveDAC8_1_BuffAmp.o)
                                0x23d (size before relaxing)
 .debug_str     0x00005584      0x174 .\ARM_GCC_493\Debug\PSoC_2_Pi.a(StripLights_isr.o)
                                0x31d (size before relaxing)
 .debug_str     0x000056f8      0x2c6 .\ARM_GCC_493\Debug\PSoC_2_Pi.a(ADC_SAR_Seq_1_SAR.o)
                                0x4db (size before relaxing)
 .debug_str     0x000059be       0x9a .\ARM_GCC_493\Debug\PSoC_2_Pi.a(ADC_SAR_Seq_1_TempBuf_dma.o)
                                0x246 (size before relaxing)
 .debug_str     0x00005a58       0x9e .\ARM_GCC_493\Debug\PSoC_2_Pi.a(ADC_SAR_Seq_1_FinalBuf_dma.o)
                                0x24a (size before relaxing)
 .debug_str     0x00005af6      0x190 .\ARM_GCC_493\Debug\PSoC_2_Pi.a(ADC_SAR_Seq_1_IRQ.o)
                                0x339 (size before relaxing)
 .debug_str     0x00005c86      0x2fc .\ARM_GCC_493\Debug\PSoC_2_Pi.a(CyDmac.o)
                                0x508 (size before relaxing)
 .debug_str     0x00005f82      0x11f .\ARM_GCC_493\Debug\PSoC_2_Pi.a(CyFlash.o)
                                0x2e1 (size before relaxing)
 .debug_str     0x000060a1      0x76f .\ARM_GCC_493\Debug\PSoC_2_Pi.a(CyLib.o)
                                0x982 (size before relaxing)
 .debug_str     0x00006810      0x371 .\ARM_GCC_493\Debug\PSoC_2_Pi.a(cyPm.o)
                                0x512 (size before relaxing)
 .debug_str     0x00006b81      0x114 .\ARM_GCC_493\Debug\PSoC_2_Pi.a(CySpc.o)
                                0x2de (size before relaxing)
 .debug_str     0x00006c95       0x41 .\ARM_GCC_493\Debug\PSoC_2_Pi.a(USBUART_cls.o)
                                0x260 (size before relaxing)
 .debug_str     0x00006cd6      0x106 .\ARM_GCC_493\Debug\PSoC_2_Pi.a(USBUART_descr.o)
                                0x37d (size before relaxing)

.debug_loc
 *(.debug_loc)

.debug_macinfo
 *(.debug_macinfo)

.debug_ranges   0x00000000     0x1c90
 *(.debug_ranges)
 .debug_ranges  0x00000000       0x10 .\ARM_GCC_493\Debug\main.o
 .debug_ranges  0x00000010       0xc8 .\ARM_GCC_493\Debug\mem1.o
 .debug_ranges  0x000000d8       0x38 .\ARM_GCC_493\Debug\LINX.o
 .debug_ranges  0x00000110       0x28 .\ARM_GCC_493\Debug\Python.o
 .debug_ranges  0x00000138       0x38 .\ARM_GCC_493\Debug\Cm3Start.o
 .debug_ranges  0x00000170       0x60 .\ARM_GCC_493\Debug\PSoC_2_Pi.a(cyfitter_cfg.o)
 .debug_ranges  0x000001d0       0x60 .\ARM_GCC_493\Debug\PSoC_2_Pi.a(PWM_CLK_1.o)
 .debug_ranges  0x00000230       0x88 .\ARM_GCC_493\Debug\PSoC_2_Pi.a(PWM_1.o)
 .debug_ranges  0x000002b8       0x28 .\ARM_GCC_493\Debug\PSoC_2_Pi.a(PWM_1_PM.o)
 .debug_ranges  0x000002e0       0x88 .\ARM_GCC_493\Debug\PSoC_2_Pi.a(PWM_2.o)
 .debug_ranges  0x00000368       0x28 .\ARM_GCC_493\Debug\PSoC_2_Pi.a(PWM_2_PM.o)
 .debug_ranges  0x00000390       0x50 .\ARM_GCC_493\Debug\PSoC_2_Pi.a(IDAC8_1.o)
 .debug_ranges  0x000003e0       0x28 .\ARM_GCC_493\Debug\PSoC_2_Pi.a(IDAC8_1_PM.o)
 .debug_ranges  0x00000408       0x48 .\ARM_GCC_493\Debug\PSoC_2_Pi.a(VDAC8_1.o)
 .debug_ranges  0x00000450       0x28 .\ARM_GCC_493\Debug\PSoC_2_Pi.a(VDAC8_1_PM.o)
 .debug_ranges  0x00000478       0xa0 .\ARM_GCC_493\Debug\PSoC_2_Pi.a(CapSense_1.o)
 .debug_ranges  0x00000518       0x68 .\ARM_GCC_493\Debug\PSoC_2_Pi.a(CapSense_1_CSHL.o)
 .debug_ranges  0x00000580       0x10 .\ARM_GCC_493\Debug\PSoC_2_Pi.a(CapSense_1_INT.o)
 .debug_ranges  0x00000590       0x28 .\ARM_GCC_493\Debug\PSoC_2_Pi.a(CapSense_1_PM.o)
 .debug_ranges  0x000005b8       0x88 .\ARM_GCC_493\Debug\PSoC_2_Pi.a(PWM_7.o)
 .debug_ranges  0x00000640       0x28 .\ARM_GCC_493\Debug\PSoC_2_Pi.a(PWM_7_PM.o)
 .debug_ranges  0x00000668       0x28 .\ARM_GCC_493\Debug\PSoC_2_Pi.a(GPIO_5_2.o)
 .debug_ranges  0x00000690       0x28 .\ARM_GCC_493\Debug\PSoC_2_Pi.a(GPIO_5_3.o)
 .debug_ranges  0x000006b8       0x28 .\ARM_GCC_493\Debug\PSoC_2_Pi.a(GPIO_5_4.o)
 .debug_ranges  0x000006e0       0x28 .\ARM_GCC_493\Debug\PSoC_2_Pi.a(GPIO_5_5.o)
 .debug_ranges  0x00000708       0x28 .\ARM_GCC_493\Debug\PSoC_2_Pi.a(GPIO_5_1.o)
 .debug_ranges  0x00000730       0x28 .\ARM_GCC_493\Debug\PSoC_2_Pi.a(GPIO_12_6.o)
 .debug_ranges  0x00000758       0x28 .\ARM_GCC_493\Debug\PSoC_2_Pi.a(GPIO_12_7.o)
 .debug_ranges  0x00000780       0x28 .\ARM_GCC_493\Debug\PSoC_2_Pi.a(GPIO_2_1.o)
 .debug_ranges  0x000007a8       0x28 .\ARM_GCC_493\Debug\PSoC_2_Pi.a(GPIO_2_7.o)
 .debug_ranges  0x000007d0       0x28 .\ARM_GCC_493\Debug\PSoC_2_Pi.a(GPIO_2_6.o)
 .debug_ranges  0x000007f8       0x28 .\ARM_GCC_493\Debug\PSoC_2_Pi.a(GPIO_2_2.o)
 .debug_ranges  0x00000820       0x28 .\ARM_GCC_493\Debug\PSoC_2_Pi.a(GPIO_12_0.o)
 .debug_ranges  0x00000848       0x28 .\ARM_GCC_493\Debug\PSoC_2_Pi.a(GPIO_2_5.o)
 .debug_ranges  0x00000870       0x28 .\ARM_GCC_493\Debug\PSoC_2_Pi.a(GPIO_12_2.o)
 .debug_ranges  0x00000898       0x28 .\ARM_GCC_493\Debug\PSoC_2_Pi.a(GPIO_2_0.o)
 .debug_ranges  0x000008c0       0x28 .\ARM_GCC_493\Debug\PSoC_2_Pi.a(GPIO_2_4.o)
 .debug_ranges  0x000008e8       0x28 .\ARM_GCC_493\Debug\PSoC_2_Pi.a(GPIO_2_3.o)
 .debug_ranges  0x00000910       0x28 .\ARM_GCC_493\Debug\PSoC_2_Pi.a(GPIO_12_3.o)
 .debug_ranges  0x00000938       0x28 .\ARM_GCC_493\Debug\PSoC_2_Pi.a(GPIO_12_4.o)
 .debug_ranges  0x00000960       0x28 .\ARM_GCC_493\Debug\PSoC_2_Pi.a(GPIO_5_0.o)
 .debug_ranges  0x00000988       0x28 .\ARM_GCC_493\Debug\PSoC_2_Pi.a(GPIO_12_5.o)
 .debug_ranges  0x000009b0       0xa0 .\ARM_GCC_493\Debug\PSoC_2_Pi.a(USBUART.o)
 .debug_ranges  0x00000a50       0xa0 .\ARM_GCC_493\Debug\PSoC_2_Pi.a(USBUART_cdc.o)
 .debug_ranges  0x00000af0       0x88 .\ARM_GCC_493\Debug\PSoC_2_Pi.a(USBUART_drv.o)
 .debug_ranges  0x00000b78       0x30 .\ARM_GCC_493\Debug\PSoC_2_Pi.a(USBUART_episr.o)
 .debug_ranges  0x00000ba8       0x68 .\ARM_GCC_493\Debug\PSoC_2_Pi.a(USBUART_std.o)
 .debug_ranges  0x00000c10       0x10 .\ARM_GCC_493\Debug\PSoC_2_Pi.a(USBUART_vnd.o)
 .debug_ranges  0x00000c20       0x48 .\ARM_GCC_493\Debug\PSoC_2_Pi.a(EEPROM.o)
 .debug_ranges  0x00000c68       0x70 .\ARM_GCC_493\Debug\PSoC_2_Pi.a(WaveDAC_clk.o)
 .debug_ranges  0x00000cd8       0x40 .\ARM_GCC_493\Debug\PSoC_2_Pi.a(WaveDAC8_1.o)
 .debug_ranges  0x00000d18       0x18 .\ARM_GCC_493\Debug\PSoC_2_Pi.a(WaveDAC8_1_PM.o)
 .debug_ranges  0x00000d30       0x60 .\ARM_GCC_493\Debug\PSoC_2_Pi.a(PWM_CLK_4.o)
 .debug_ranges  0x00000d90       0x88 .\ARM_GCC_493\Debug\PSoC_2_Pi.a(PWM_3.o)
 .debug_ranges  0x00000e18       0x28 .\ARM_GCC_493\Debug\PSoC_2_Pi.a(PWM_3_PM.o)
 .debug_ranges  0x00000e40       0x60 .\ARM_GCC_493\Debug\PSoC_2_Pi.a(PWM_CLK_3.o)
 .debug_ranges  0x00000ea0       0x88 .\ARM_GCC_493\Debug\PSoC_2_Pi.a(PWM_6.o)
 .debug_ranges  0x00000f28       0x28 .\ARM_GCC_493\Debug\PSoC_2_Pi.a(PWM_6_PM.o)
 .debug_ranges  0x00000f50       0x88 .\ARM_GCC_493\Debug\PSoC_2_Pi.a(PWM_5.o)
 .debug_ranges  0x00000fd8       0x28 .\ARM_GCC_493\Debug\PSoC_2_Pi.a(PWM_5_PM.o)
 .debug_ranges  0x00001000       0x60 .\ARM_GCC_493\Debug\PSoC_2_Pi.a(PWM_CLK_2.o)
 .debug_ranges  0x00001060       0x88 .\ARM_GCC_493\Debug\PSoC_2_Pi.a(PWM_4.o)
 .debug_ranges  0x000010e8       0x28 .\ARM_GCC_493\Debug\PSoC_2_Pi.a(PWM_4_PM.o)
 .debug_ranges  0x00001110       0x28 .\ARM_GCC_493\Debug\PSoC_2_Pi.a(GPIO_5_6.o)
 .debug_ranges  0x00001138       0x28 .\ARM_GCC_493\Debug\PSoC_2_Pi.a(GPIO_5_7.o)
 .debug_ranges  0x00001160       0x78 .\ARM_GCC_493\Debug\PSoC_2_Pi.a(StripLights.o)
 .debug_ranges  0x000011d8       0x20 .\ARM_GCC_493\Debug\PSoC_2_Pi.a(StripLights_fonts.o)
 .debug_ranges  0x000011f8       0xb0 .\ARM_GCC_493\Debug\PSoC_2_Pi.a(ADC_SAR_Seq_1.o)
 .debug_ranges  0x000012a8       0x10 .\ARM_GCC_493\Debug\PSoC_2_Pi.a(ADC_SAR_Seq_1_INT.o)
 .debug_ranges  0x000012b8       0x78 .\ARM_GCC_493\Debug\PSoC_2_Pi.a(Timer.o)
 .debug_ranges  0x00001330       0x18 .\ARM_GCC_493\Debug\PSoC_2_Pi.a(TIMER_REG.o)
 .debug_ranges  0x00001348       0x28 .\ARM_GCC_493\Debug\PSoC_2_Pi.a(GPIO_12_1.o)
 .debug_ranges  0x00001370       0x88 .\ARM_GCC_493\Debug\PSoC_2_Pi.a(PWM_8.o)
 .debug_ranges  0x000013f8       0x28 .\ARM_GCC_493\Debug\PSoC_2_Pi.a(PWM_8_PM.o)
 .debug_ranges  0x00001420       0x60 .\ARM_GCC_493\Debug\PSoC_2_Pi.a(CapSense_1_CompCH0.o)
 .debug_ranges  0x00001480       0x50 .\ARM_GCC_493\Debug\PSoC_2_Pi.a(CapSense_1_IdacCH0.o)
 .debug_ranges  0x000014d0       0x38 .\ARM_GCC_493\Debug\PSoC_2_Pi.a(CapSense_1_AMuxCH0.o)
 .debug_ranges  0x00001508       0x60 .\ARM_GCC_493\Debug\PSoC_2_Pi.a(CapSense_1_IntClock.o)
 .debug_ranges  0x00001568       0x18 .\ARM_GCC_493\Debug\PSoC_2_Pi.a(WaveDAC8_1_Wave1_DMA_dma.o)
 .debug_ranges  0x00001580       0x18 .\ARM_GCC_493\Debug\PSoC_2_Pi.a(WaveDAC8_1_Wave2_DMA_dma.o)
 .debug_ranges  0x00001598       0x48 .\ARM_GCC_493\Debug\PSoC_2_Pi.a(WaveDAC8_1_VDAC8.o)
 .debug_ranges  0x000015e0       0x28 .\ARM_GCC_493\Debug\PSoC_2_Pi.a(WaveDAC8_1_VDAC8_PM.o)
 .debug_ranges  0x00001608       0x30 .\ARM_GCC_493\Debug\PSoC_2_Pi.a(WaveDAC8_1_BuffAmp.o)
 .debug_ranges  0x00001638       0x70 .\ARM_GCC_493\Debug\PSoC_2_Pi.a(StripLights_isr.o)
 .debug_ranges  0x000016a8       0x98 .\ARM_GCC_493\Debug\PSoC_2_Pi.a(ADC_SAR_Seq_1_SAR.o)
 .debug_ranges  0x00001740       0x18 .\ARM_GCC_493\Debug\PSoC_2_Pi.a(ADC_SAR_Seq_1_TempBuf_dma.o)
 .debug_ranges  0x00001758       0x18 .\ARM_GCC_493\Debug\PSoC_2_Pi.a(ADC_SAR_Seq_1_FinalBuf_dma.o)
 .debug_ranges  0x00001770       0x70 .\ARM_GCC_493\Debug\PSoC_2_Pi.a(ADC_SAR_Seq_1_IRQ.o)
 .debug_ranges  0x000017e0       0xc8 .\ARM_GCC_493\Debug\PSoC_2_Pi.a(CyDmac.o)
 .debug_ranges  0x000018a8       0x70 .\ARM_GCC_493\Debug\PSoC_2_Pi.a(CyFlash.o)
 .debug_ranges  0x00001918      0x280 .\ARM_GCC_493\Debug\PSoC_2_Pi.a(CyLib.o)
 .debug_ranges  0x00001b98       0x80 .\ARM_GCC_493\Debug\PSoC_2_Pi.a(cyPm.o)
 .debug_ranges  0x00001c18       0x68 .\ARM_GCC_493\Debug\PSoC_2_Pi.a(CySpc.o)
 .debug_ranges  0x00001c80       0x10 .\ARM_GCC_493\Debug\PSoC_2_Pi.a(USBUART_cls.o)

.comment        0x00000000       0x70
 .comment       0x00000000       0x70 .\ARM_GCC_493\Debug\main.o
                                 0x71 (size before relaxing)
 .comment       0x00000000       0x71 .\ARM_GCC_493\Debug\mem1.o
 .comment       0x00000000       0x71 .\ARM_GCC_493\Debug\LINX.o
 .comment       0x00000000       0x71 .\ARM_GCC_493\Debug\Python.o
 .comment       0x00000000       0x71 .\ARM_GCC_493\Debug\cymetadata.o
 .comment       0x00000000       0x71 .\ARM_GCC_493\Debug\Cm3Start.o
 .comment       0x00000000       0x71 .\ARM_GCC_493\Debug\cybootloader.o
 .comment       0x00000000       0x71 .\ARM_GCC_493\Debug\PSoC_2_Pi.a(cyfitter_cfg.o)
 .comment       0x00000000       0x71 .\ARM_GCC_493\Debug\PSoC_2_Pi.a(PWM_CLK_1.o)
 .comment       0x00000000       0x71 .\ARM_GCC_493\Debug\PSoC_2_Pi.a(PWM_1.o)
 .comment       0x00000000       0x71 .\ARM_GCC_493\Debug\PSoC_2_Pi.a(PWM_1_PM.o)
 .comment       0x00000000       0x71 .\ARM_GCC_493\Debug\PSoC_2_Pi.a(PWM_2.o)
 .comment       0x00000000       0x71 .\ARM_GCC_493\Debug\PSoC_2_Pi.a(PWM_2_PM.o)
 .comment       0x00000000       0x71 .\ARM_GCC_493\Debug\PSoC_2_Pi.a(IDAC8_1.o)
 .comment       0x00000000       0x71 .\ARM_GCC_493\Debug\PSoC_2_Pi.a(IDAC8_1_PM.o)
 .comment       0x00000000       0x71 .\ARM_GCC_493\Debug\PSoC_2_Pi.a(VDAC8_1.o)
 .comment       0x00000000       0x71 .\ARM_GCC_493\Debug\PSoC_2_Pi.a(VDAC8_1_PM.o)
 .comment       0x00000000       0x71 .\ARM_GCC_493\Debug\PSoC_2_Pi.a(CapSense_1.o)
 .comment       0x00000000       0x71 .\ARM_GCC_493\Debug\PSoC_2_Pi.a(CapSense_1_CSHL.o)
 .comment       0x00000000       0x71 .\ARM_GCC_493\Debug\PSoC_2_Pi.a(CapSense_1_INT.o)
 .comment       0x00000000       0x71 .\ARM_GCC_493\Debug\PSoC_2_Pi.a(CapSense_1_PM.o)
 .comment       0x00000000       0x71 .\ARM_GCC_493\Debug\PSoC_2_Pi.a(PWM_7.o)
 .comment       0x00000000       0x71 .\ARM_GCC_493\Debug\PSoC_2_Pi.a(PWM_7_PM.o)
 .comment       0x00000000       0x71 .\ARM_GCC_493\Debug\PSoC_2_Pi.a(GPIO_5_2.o)
 .comment       0x00000000       0x71 .\ARM_GCC_493\Debug\PSoC_2_Pi.a(GPIO_5_3.o)
 .comment       0x00000000       0x71 .\ARM_GCC_493\Debug\PSoC_2_Pi.a(GPIO_5_4.o)
 .comment       0x00000000       0x71 .\ARM_GCC_493\Debug\PSoC_2_Pi.a(GPIO_5_5.o)
 .comment       0x00000000       0x71 .\ARM_GCC_493\Debug\PSoC_2_Pi.a(GPIO_5_1.o)
 .comment       0x00000000       0x71 .\ARM_GCC_493\Debug\PSoC_2_Pi.a(GPIO_12_6.o)
 .comment       0x00000000       0x71 .\ARM_GCC_493\Debug\PSoC_2_Pi.a(GPIO_12_7.o)
 .comment       0x00000000       0x71 .\ARM_GCC_493\Debug\PSoC_2_Pi.a(GPIO_2_1.o)
 .comment       0x00000000       0x71 .\ARM_GCC_493\Debug\PSoC_2_Pi.a(GPIO_2_7.o)
 .comment       0x00000000       0x71 .\ARM_GCC_493\Debug\PSoC_2_Pi.a(GPIO_2_6.o)
 .comment       0x00000000       0x71 .\ARM_GCC_493\Debug\PSoC_2_Pi.a(GPIO_2_2.o)
 .comment       0x00000000       0x71 .\ARM_GCC_493\Debug\PSoC_2_Pi.a(GPIO_12_0.o)
 .comment       0x00000000       0x71 .\ARM_GCC_493\Debug\PSoC_2_Pi.a(GPIO_2_5.o)
 .comment       0x00000000       0x71 .\ARM_GCC_493\Debug\PSoC_2_Pi.a(GPIO_12_2.o)
 .comment       0x00000000       0x71 .\ARM_GCC_493\Debug\PSoC_2_Pi.a(GPIO_2_0.o)
 .comment       0x00000000       0x71 .\ARM_GCC_493\Debug\PSoC_2_Pi.a(GPIO_2_4.o)
 .comment       0x00000000       0x71 .\ARM_GCC_493\Debug\PSoC_2_Pi.a(GPIO_2_3.o)
 .comment       0x00000000       0x71 .\ARM_GCC_493\Debug\PSoC_2_Pi.a(GPIO_12_3.o)
 .comment       0x00000000       0x71 .\ARM_GCC_493\Debug\PSoC_2_Pi.a(GPIO_12_4.o)
 .comment       0x00000000       0x71 .\ARM_GCC_493\Debug\PSoC_2_Pi.a(GPIO_5_0.o)
 .comment       0x00000000       0x71 .\ARM_GCC_493\Debug\PSoC_2_Pi.a(GPIO_12_5.o)
 .comment       0x00000000       0x71 .\ARM_GCC_493\Debug\PSoC_2_Pi.a(USBUART.o)
 .comment       0x00000000       0x71 .\ARM_GCC_493\Debug\PSoC_2_Pi.a(USBUART_cdc.o)
 .comment       0x00000000       0x71 .\ARM_GCC_493\Debug\PSoC_2_Pi.a(USBUART_drv.o)
 .comment       0x00000000       0x71 .\ARM_GCC_493\Debug\PSoC_2_Pi.a(USBUART_episr.o)
 .comment       0x00000000       0x71 .\ARM_GCC_493\Debug\PSoC_2_Pi.a(USBUART_std.o)
 .comment       0x00000000       0x71 .\ARM_GCC_493\Debug\PSoC_2_Pi.a(USBUART_vnd.o)
 .comment       0x00000000       0x71 .\ARM_GCC_493\Debug\PSoC_2_Pi.a(EEPROM.o)
 .comment       0x00000000       0x71 .\ARM_GCC_493\Debug\PSoC_2_Pi.a(WaveDAC_clk.o)
 .comment       0x00000000       0x71 .\ARM_GCC_493\Debug\PSoC_2_Pi.a(WaveDAC8_1.o)
 .comment       0x00000000       0x71 .\ARM_GCC_493\Debug\PSoC_2_Pi.a(WaveDAC8_1_PM.o)
 .comment       0x00000000       0x71 .\ARM_GCC_493\Debug\PSoC_2_Pi.a(PWM_CLK_4.o)
 .comment       0x00000000       0x71 .\ARM_GCC_493\Debug\PSoC_2_Pi.a(PWM_3.o)
 .comment       0x00000000       0x71 .\ARM_GCC_493\Debug\PSoC_2_Pi.a(PWM_3_PM.o)
 .comment       0x00000000       0x71 .\ARM_GCC_493\Debug\PSoC_2_Pi.a(PWM_CLK_3.o)
 .comment       0x00000000       0x71 .\ARM_GCC_493\Debug\PSoC_2_Pi.a(PWM_6.o)
 .comment       0x00000000       0x71 .\ARM_GCC_493\Debug\PSoC_2_Pi.a(PWM_6_PM.o)
 .comment       0x00000000       0x71 .\ARM_GCC_493\Debug\PSoC_2_Pi.a(PWM_5.o)
 .comment       0x00000000       0x71 .\ARM_GCC_493\Debug\PSoC_2_Pi.a(PWM_5_PM.o)
 .comment       0x00000000       0x71 .\ARM_GCC_493\Debug\PSoC_2_Pi.a(PWM_CLK_2.o)
 .comment       0x00000000       0x71 .\ARM_GCC_493\Debug\PSoC_2_Pi.a(PWM_4.o)
 .comment       0x00000000       0x71 .\ARM_GCC_493\Debug\PSoC_2_Pi.a(PWM_4_PM.o)
 .comment       0x00000000       0x71 .\ARM_GCC_493\Debug\PSoC_2_Pi.a(GPIO_5_6.o)
 .comment       0x00000000       0x71 .\ARM_GCC_493\Debug\PSoC_2_Pi.a(GPIO_5_7.o)
 .comment       0x00000000       0x71 .\ARM_GCC_493\Debug\PSoC_2_Pi.a(StripLights.o)
 .comment       0x00000000       0x71 .\ARM_GCC_493\Debug\PSoC_2_Pi.a(StripLights_fonts.o)
 .comment       0x00000000       0x71 .\ARM_GCC_493\Debug\PSoC_2_Pi.a(ADC_SAR_Seq_1.o)
 .comment       0x00000000       0x71 .\ARM_GCC_493\Debug\PSoC_2_Pi.a(ADC_SAR_Seq_1_INT.o)
 .comment       0x00000000       0x71 .\ARM_GCC_493\Debug\PSoC_2_Pi.a(Timer.o)
 .comment       0x00000000       0x71 .\ARM_GCC_493\Debug\PSoC_2_Pi.a(TIMER_REG.o)
 .comment       0x00000000       0x71 .\ARM_GCC_493\Debug\PSoC_2_Pi.a(GPIO_12_1.o)
 .comment       0x00000000       0x71 .\ARM_GCC_493\Debug\PSoC_2_Pi.a(PWM_8.o)
 .comment       0x00000000       0x71 .\ARM_GCC_493\Debug\PSoC_2_Pi.a(PWM_8_PM.o)
 .comment       0x00000000       0x71 .\ARM_GCC_493\Debug\PSoC_2_Pi.a(CapSense_1_CompCH0.o)
 .comment       0x00000000       0x71 .\ARM_GCC_493\Debug\PSoC_2_Pi.a(CapSense_1_IdacCH0.o)
 .comment       0x00000000       0x71 .\ARM_GCC_493\Debug\PSoC_2_Pi.a(CapSense_1_AMuxCH0.o)
 .comment       0x00000000       0x71 .\ARM_GCC_493\Debug\PSoC_2_Pi.a(CapSense_1_IntClock.o)
 .comment       0x00000000       0x71 .\ARM_GCC_493\Debug\PSoC_2_Pi.a(WaveDAC8_1_Wave1_DMA_dma.o)
 .comment       0x00000000       0x71 .\ARM_GCC_493\Debug\PSoC_2_Pi.a(WaveDAC8_1_Wave2_DMA_dma.o)
 .comment       0x00000000       0x71 .\ARM_GCC_493\Debug\PSoC_2_Pi.a(WaveDAC8_1_VDAC8.o)
 .comment       0x00000000       0x71 .\ARM_GCC_493\Debug\PSoC_2_Pi.a(WaveDAC8_1_VDAC8_PM.o)
 .comment       0x00000000       0x71 .\ARM_GCC_493\Debug\PSoC_2_Pi.a(WaveDAC8_1_BuffAmp.o)
 .comment       0x00000000       0x71 .\ARM_GCC_493\Debug\PSoC_2_Pi.a(StripLights_isr.o)
 .comment       0x00000000       0x71 .\ARM_GCC_493\Debug\PSoC_2_Pi.a(ADC_SAR_Seq_1_SAR.o)
 .comment       0x00000000       0x71 .\ARM_GCC_493\Debug\PSoC_2_Pi.a(ADC_SAR_Seq_1_TempBuf_dma.o)
 .comment       0x00000000       0x71 .\ARM_GCC_493\Debug\PSoC_2_Pi.a(ADC_SAR_Seq_1_FinalBuf_dma.o)
 .comment       0x00000000       0x71 .\ARM_GCC_493\Debug\PSoC_2_Pi.a(ADC_SAR_Seq_1_IRQ.o)
 .comment       0x00000000       0x71 .\ARM_GCC_493\Debug\PSoC_2_Pi.a(CyDmac.o)
 .comment       0x00000000       0x71 .\ARM_GCC_493\Debug\PSoC_2_Pi.a(CyFlash.o)
 .comment       0x00000000       0x71 .\ARM_GCC_493\Debug\PSoC_2_Pi.a(CyLib.o)
 .comment       0x00000000       0x71 .\ARM_GCC_493\Debug\PSoC_2_Pi.a(cyPm.o)
 .comment       0x00000000       0x71 .\ARM_GCC_493\Debug\PSoC_2_Pi.a(CySpc.o)
 .comment       0x00000000       0x71 .\ARM_GCC_493\Debug\PSoC_2_Pi.a(USBUART_cls.o)
 .comment       0x00000000       0x71 .\ARM_GCC_493\Debug\PSoC_2_Pi.a(USBUART_descr.o)

.debug_weaknames
 *(.debug_weaknames)

.debug_funcnames
 *(.debug_funcnames)

.debug_typenames
 *(.debug_typenames)

.debug_varnames
 *(.debug_varnames)

.note.gnu.arm.ident
 *(.note.gnu.arm.ident)

.ARM.attributes
                0x00000000       0x29
 *(.ARM.attributes)
 .ARM.attributes
                0x00000000       0x1d c:/program files (x86)/cypress/psoc creator/3.3/psoc creator/import/gnu/arm/4.9.3/bin/../lib/gcc/arm-none-eabi/4.9.3/armv7-m/crti.o
 .ARM.attributes
                0x0000001d       0x2d c:/program files (x86)/cypress/psoc creator/3.3/psoc creator/import/gnu/arm/4.9.3/bin/../lib/gcc/arm-none-eabi/4.9.3/armv7-m/crtbegin.o
 .ARM.attributes
                0x0000004a       0x1b c:/program files (x86)/cypress/psoc creator/3.3/psoc creator/import/gnu/arm/4.9.3/bin/../lib/gcc/arm-none-eabi/4.9.3/../../../../arm-none-eabi/lib/armv7-m/crt0.o
 .ARM.attributes
                0x00000065       0x33 .\ARM_GCC_493\Debug\main.o
 .ARM.attributes
                0x00000098       0x33 .\ARM_GCC_493\Debug\mem1.o
 .ARM.attributes
                0x000000cb       0x33 .\ARM_GCC_493\Debug\LINX.o
 .ARM.attributes
                0x000000fe       0x33 .\ARM_GCC_493\Debug\Python.o
 .ARM.attributes
                0x00000131       0x33 .\ARM_GCC_493\Debug\cymetadata.o
 .ARM.attributes
                0x00000164       0x33 .\ARM_GCC_493\Debug\Cm3Start.o
 .ARM.attributes
                0x00000197       0x33 .\ARM_GCC_493\Debug\cybootloader.o
 .ARM.attributes
                0x000001ca       0x33 .\ARM_GCC_493\Debug\PSoC_2_Pi.a(cyfitter_cfg.o)
 .ARM.attributes
                0x000001fd       0x33 .\ARM_GCC_493\Debug\PSoC_2_Pi.a(PWM_CLK_1.o)
 .ARM.attributes
                0x00000230       0x33 .\ARM_GCC_493\Debug\PSoC_2_Pi.a(PWM_1.o)
 .ARM.attributes
                0x00000263       0x33 .\ARM_GCC_493\Debug\PSoC_2_Pi.a(PWM_1_PM.o)
 .ARM.attributes
                0x00000296       0x33 .\ARM_GCC_493\Debug\PSoC_2_Pi.a(PWM_2.o)
 .ARM.attributes
                0x000002c9       0x33 .\ARM_GCC_493\Debug\PSoC_2_Pi.a(PWM_2_PM.o)
 .ARM.attributes
                0x000002fc       0x33 .\ARM_GCC_493\Debug\PSoC_2_Pi.a(IDAC8_1.o)
 .ARM.attributes
                0x0000032f       0x33 .\ARM_GCC_493\Debug\PSoC_2_Pi.a(IDAC8_1_PM.o)
 .ARM.attributes
                0x00000362       0x33 .\ARM_GCC_493\Debug\PSoC_2_Pi.a(VDAC8_1.o)
 .ARM.attributes
                0x00000395       0x33 .\ARM_GCC_493\Debug\PSoC_2_Pi.a(VDAC8_1_PM.o)
 .ARM.attributes
                0x000003c8       0x33 .\ARM_GCC_493\Debug\PSoC_2_Pi.a(CapSense_1.o)
 .ARM.attributes
                0x000003fb       0x33 .\ARM_GCC_493\Debug\PSoC_2_Pi.a(CapSense_1_CSHL.o)
 .ARM.attributes
                0x0000042e       0x33 .\ARM_GCC_493\Debug\PSoC_2_Pi.a(CapSense_1_INT.o)
 .ARM.attributes
                0x00000461       0x33 .\ARM_GCC_493\Debug\PSoC_2_Pi.a(CapSense_1_PM.o)
 .ARM.attributes
                0x00000494       0x33 .\ARM_GCC_493\Debug\PSoC_2_Pi.a(PWM_7.o)
 .ARM.attributes
                0x000004c7       0x33 .\ARM_GCC_493\Debug\PSoC_2_Pi.a(PWM_7_PM.o)
 .ARM.attributes
                0x000004fa       0x33 .\ARM_GCC_493\Debug\PSoC_2_Pi.a(GPIO_5_2.o)
 .ARM.attributes
                0x0000052d       0x33 .\ARM_GCC_493\Debug\PSoC_2_Pi.a(GPIO_5_3.o)
 .ARM.attributes
                0x00000560       0x33 .\ARM_GCC_493\Debug\PSoC_2_Pi.a(GPIO_5_4.o)
 .ARM.attributes
                0x00000593       0x33 .\ARM_GCC_493\Debug\PSoC_2_Pi.a(GPIO_5_5.o)
 .ARM.attributes
                0x000005c6       0x33 .\ARM_GCC_493\Debug\PSoC_2_Pi.a(GPIO_5_1.o)
 .ARM.attributes
                0x000005f9       0x33 .\ARM_GCC_493\Debug\PSoC_2_Pi.a(GPIO_12_6.o)
 .ARM.attributes
                0x0000062c       0x33 .\ARM_GCC_493\Debug\PSoC_2_Pi.a(GPIO_12_7.o)
 .ARM.attributes
                0x0000065f       0x33 .\ARM_GCC_493\Debug\PSoC_2_Pi.a(GPIO_2_1.o)
 .ARM.attributes
                0x00000692       0x33 .\ARM_GCC_493\Debug\PSoC_2_Pi.a(GPIO_2_7.o)
 .ARM.attributes
                0x000006c5       0x33 .\ARM_GCC_493\Debug\PSoC_2_Pi.a(GPIO_2_6.o)
 .ARM.attributes
                0x000006f8       0x33 .\ARM_GCC_493\Debug\PSoC_2_Pi.a(GPIO_2_2.o)
 .ARM.attributes
                0x0000072b       0x33 .\ARM_GCC_493\Debug\PSoC_2_Pi.a(GPIO_12_0.o)
 .ARM.attributes
                0x0000075e       0x33 .\ARM_GCC_493\Debug\PSoC_2_Pi.a(GPIO_2_5.o)
 .ARM.attributes
                0x00000791       0x33 .\ARM_GCC_493\Debug\PSoC_2_Pi.a(GPIO_12_2.o)
 .ARM.attributes
                0x000007c4       0x33 .\ARM_GCC_493\Debug\PSoC_2_Pi.a(GPIO_2_0.o)
 .ARM.attributes
                0x000007f7       0x33 .\ARM_GCC_493\Debug\PSoC_2_Pi.a(GPIO_2_4.o)
 .ARM.attributes
                0x0000082a       0x33 .\ARM_GCC_493\Debug\PSoC_2_Pi.a(GPIO_2_3.o)
 .ARM.attributes
                0x0000085d       0x33 .\ARM_GCC_493\Debug\PSoC_2_Pi.a(GPIO_12_3.o)
 .ARM.attributes
                0x00000890       0x33 .\ARM_GCC_493\Debug\PSoC_2_Pi.a(GPIO_12_4.o)
 .ARM.attributes
                0x000008c3       0x33 .\ARM_GCC_493\Debug\PSoC_2_Pi.a(GPIO_5_0.o)
 .ARM.attributes
                0x000008f6       0x33 .\ARM_GCC_493\Debug\PSoC_2_Pi.a(GPIO_12_5.o)
 .ARM.attributes
                0x00000929       0x33 .\ARM_GCC_493\Debug\PSoC_2_Pi.a(USBUART.o)
 .ARM.attributes
                0x0000095c       0x33 .\ARM_GCC_493\Debug\PSoC_2_Pi.a(USBUART_cdc.o)
 .ARM.attributes
                0x0000098f       0x33 .\ARM_GCC_493\Debug\PSoC_2_Pi.a(USBUART_drv.o)
 .ARM.attributes
                0x000009c2       0x33 .\ARM_GCC_493\Debug\PSoC_2_Pi.a(USBUART_episr.o)
 .ARM.attributes
                0x000009f5       0x33 .\ARM_GCC_493\Debug\PSoC_2_Pi.a(USBUART_std.o)
 .ARM.attributes
                0x00000a28       0x33 .\ARM_GCC_493\Debug\PSoC_2_Pi.a(USBUART_vnd.o)
 .ARM.attributes
                0x00000a5b       0x33 .\ARM_GCC_493\Debug\PSoC_2_Pi.a(EEPROM.o)
 .ARM.attributes
                0x00000a8e       0x33 .\ARM_GCC_493\Debug\PSoC_2_Pi.a(WaveDAC_clk.o)
 .ARM.attributes
                0x00000ac1       0x33 .\ARM_GCC_493\Debug\PSoC_2_Pi.a(WaveDAC8_1.o)
 .ARM.attributes
                0x00000af4       0x33 .\ARM_GCC_493\Debug\PSoC_2_Pi.a(WaveDAC8_1_PM.o)
 .ARM.attributes
                0x00000b27       0x33 .\ARM_GCC_493\Debug\PSoC_2_Pi.a(PWM_CLK_4.o)
 .ARM.attributes
                0x00000b5a       0x33 .\ARM_GCC_493\Debug\PSoC_2_Pi.a(PWM_3.o)
 .ARM.attributes
                0x00000b8d       0x33 .\ARM_GCC_493\Debug\PSoC_2_Pi.a(PWM_3_PM.o)
 .ARM.attributes
                0x00000bc0       0x33 .\ARM_GCC_493\Debug\PSoC_2_Pi.a(PWM_CLK_3.o)
 .ARM.attributes
                0x00000bf3       0x33 .\ARM_GCC_493\Debug\PSoC_2_Pi.a(PWM_6.o)
 .ARM.attributes
                0x00000c26       0x33 .\ARM_GCC_493\Debug\PSoC_2_Pi.a(PWM_6_PM.o)
 .ARM.attributes
                0x00000c59       0x33 .\ARM_GCC_493\Debug\PSoC_2_Pi.a(PWM_5.o)
 .ARM.attributes
                0x00000c8c       0x33 .\ARM_GCC_493\Debug\PSoC_2_Pi.a(PWM_5_PM.o)
 .ARM.attributes
                0x00000cbf       0x33 .\ARM_GCC_493\Debug\PSoC_2_Pi.a(PWM_CLK_2.o)
 .ARM.attributes
                0x00000cf2       0x33 .\ARM_GCC_493\Debug\PSoC_2_Pi.a(PWM_4.o)
 .ARM.attributes
                0x00000d25       0x33 .\ARM_GCC_493\Debug\PSoC_2_Pi.a(PWM_4_PM.o)
 .ARM.attributes
                0x00000d58       0x33 .\ARM_GCC_493\Debug\PSoC_2_Pi.a(GPIO_5_6.o)
 .ARM.attributes
                0x00000d8b       0x33 .\ARM_GCC_493\Debug\PSoC_2_Pi.a(GPIO_5_7.o)
 .ARM.attributes
                0x00000dbe       0x33 .\ARM_GCC_493\Debug\PSoC_2_Pi.a(StripLights.o)
 .ARM.attributes
                0x00000df1       0x33 .\ARM_GCC_493\Debug\PSoC_2_Pi.a(StripLights_fonts.o)
 .ARM.attributes
                0x00000e24       0x33 .\ARM_GCC_493\Debug\PSoC_2_Pi.a(ADC_SAR_Seq_1.o)
 .ARM.attributes
                0x00000e57       0x33 .\ARM_GCC_493\Debug\PSoC_2_Pi.a(ADC_SAR_Seq_1_INT.o)
 .ARM.attributes
                0x00000e8a       0x33 .\ARM_GCC_493\Debug\PSoC_2_Pi.a(Timer.o)
 .ARM.attributes
                0x00000ebd       0x33 .\ARM_GCC_493\Debug\PSoC_2_Pi.a(TIMER_REG.o)
 .ARM.attributes
                0x00000ef0       0x33 .\ARM_GCC_493\Debug\PSoC_2_Pi.a(GPIO_12_1.o)
 .ARM.attributes
                0x00000f23       0x33 .\ARM_GCC_493\Debug\PSoC_2_Pi.a(PWM_8.o)
 .ARM.attributes
                0x00000f56       0x33 .\ARM_GCC_493\Debug\PSoC_2_Pi.a(PWM_8_PM.o)
 .ARM.attributes
                0x00000f89       0x33 .\ARM_GCC_493\Debug\PSoC_2_Pi.a(CapSense_1_CompCH0.o)
 .ARM.attributes
                0x00000fbc       0x33 .\ARM_GCC_493\Debug\PSoC_2_Pi.a(CapSense_1_IdacCH0.o)
 .ARM.attributes
                0x00000fef       0x33 .\ARM_GCC_493\Debug\PSoC_2_Pi.a(CapSense_1_AMuxCH0.o)
 .ARM.attributes
                0x00001022       0x33 .\ARM_GCC_493\Debug\PSoC_2_Pi.a(CapSense_1_IntClock.o)
 .ARM.attributes
                0x00001055       0x33 .\ARM_GCC_493\Debug\PSoC_2_Pi.a(WaveDAC8_1_Wave1_DMA_dma.o)
 .ARM.attributes
                0x00001088       0x33 .\ARM_GCC_493\Debug\PSoC_2_Pi.a(WaveDAC8_1_Wave2_DMA_dma.o)
 .ARM.attributes
                0x000010bb       0x33 .\ARM_GCC_493\Debug\PSoC_2_Pi.a(WaveDAC8_1_VDAC8.o)
 .ARM.attributes
                0x000010ee       0x33 .\ARM_GCC_493\Debug\PSoC_2_Pi.a(WaveDAC8_1_VDAC8_PM.o)
 .ARM.attributes
                0x00001121       0x33 .\ARM_GCC_493\Debug\PSoC_2_Pi.a(WaveDAC8_1_BuffAmp.o)
 .ARM.attributes
                0x00001154       0x33 .\ARM_GCC_493\Debug\PSoC_2_Pi.a(StripLights_isr.o)
 .ARM.attributes
                0x00001187       0x33 .\ARM_GCC_493\Debug\PSoC_2_Pi.a(ADC_SAR_Seq_1_SAR.o)
 .ARM.attributes
                0x000011ba       0x33 .\ARM_GCC_493\Debug\PSoC_2_Pi.a(ADC_SAR_Seq_1_TempBuf_dma.o)
 .ARM.attributes
                0x000011ed       0x33 .\ARM_GCC_493\Debug\PSoC_2_Pi.a(ADC_SAR_Seq_1_FinalBuf_dma.o)
 .ARM.attributes
                0x00001220       0x33 .\ARM_GCC_493\Debug\PSoC_2_Pi.a(ADC_SAR_Seq_1_IRQ.o)
 .ARM.attributes
                0x00001253       0x21 .\ARM_GCC_493\Debug\PSoC_2_Pi.a(CyBootAsmGnu.o)
 .ARM.attributes
                0x00001274       0x33 .\ARM_GCC_493\Debug\PSoC_2_Pi.a(CyDmac.o)
 .ARM.attributes
                0x000012a7       0x33 .\ARM_GCC_493\Debug\PSoC_2_Pi.a(CyFlash.o)
 .ARM.attributes
                0x000012da       0x33 .\ARM_GCC_493\Debug\PSoC_2_Pi.a(CyLib.o)
 .ARM.attributes
                0x0000130d       0x33 .\ARM_GCC_493\Debug\PSoC_2_Pi.a(cyPm.o)
 .ARM.attributes
                0x00001340       0x33 .\ARM_GCC_493\Debug\PSoC_2_Pi.a(CySpc.o)
 .ARM.attributes
                0x00001373       0x33 .\ARM_GCC_493\Debug\PSoC_2_Pi.a(USBUART_cls.o)
 .ARM.attributes
                0x000013a6       0x33 .\ARM_GCC_493\Debug\PSoC_2_Pi.a(USBUART_descr.o)
 .ARM.attributes
                0x000013d9       0x1d c:/program files (x86)/cypress/psoc creator/3.3/psoc creator/import/gnu/arm/4.9.3/bin/../lib/gcc/arm-none-eabi/4.9.3/armv7-m\libgcc.a(_arm_addsubdf3.o)
 .ARM.attributes
                0x000013f6       0x1d c:/program files (x86)/cypress/psoc creator/3.3/psoc creator/import/gnu/arm/4.9.3/bin/../lib/gcc/arm-none-eabi/4.9.3/armv7-m\libgcc.a(_arm_muldivdf3.o)
 .ARM.attributes
                0x00001413       0x1d c:/program files (x86)/cypress/psoc creator/3.3/psoc creator/import/gnu/arm/4.9.3/bin/../lib/gcc/arm-none-eabi/4.9.3/armv7-m\libgcc.a(_arm_cmpdf2.o)
 .ARM.attributes
                0x00001430       0x1d c:/program files (x86)/cypress/psoc creator/3.3/psoc creator/import/gnu/arm/4.9.3/bin/../lib/gcc/arm-none-eabi/4.9.3/armv7-m\libgcc.a(_arm_fixunsdfsi.o)
 .ARM.attributes
                0x0000144d       0x1d c:/program files (x86)/cypress/psoc creator/3.3/psoc creator/import/gnu/arm/4.9.3/bin/../lib/gcc/arm-none-eabi/4.9.3/armv7-m\libgcc.a(_arm_addsubsf3.o)
 .ARM.attributes
                0x0000146a       0x1d c:/program files (x86)/cypress/psoc creator/3.3/psoc creator/import/gnu/arm/4.9.3/bin/../lib/gcc/arm-none-eabi/4.9.3/armv7-m\libgcc.a(_arm_muldivsf3.o)
 .ARM.attributes
                0x00001487       0x1d c:/program files (x86)/cypress/psoc creator/3.3/psoc creator/import/gnu/arm/4.9.3/bin/../lib/gcc/arm-none-eabi/4.9.3/armv7-m\libgcc.a(_aeabi_ldivmod.o)
 .ARM.attributes
                0x000014a4       0x2d c:/program files (x86)/cypress/psoc creator/3.3/psoc creator/import/gnu/arm/4.9.3/bin/../lib/gcc/arm-none-eabi/4.9.3/armv7-m\libgcc.a(bpabi.o)
 .ARM.attributes
                0x000014d1       0x1d c:/program files (x86)/cypress/psoc creator/3.3/psoc creator/import/gnu/arm/4.9.3/bin/../lib/gcc/arm-none-eabi/4.9.3/armv7-m\libgcc.a(_dvmd_tls.o)
 .ARM.attributes
                0x000014ee       0x2d c:/program files (x86)/cypress/psoc creator/3.3/psoc creator/import/gnu/arm/4.9.3/bin/../lib/gcc/arm-none-eabi/4.9.3/armv7-m\libgcc.a(_divdi3.o)
 .ARM.attributes
                0x0000151b       0x2d c:/program files (x86)/cypress/psoc creator/3.3/psoc creator/import/gnu/arm/4.9.3/bin/../lib/gcc/arm-none-eabi/4.9.3/armv7-m\libgcc.a(_udivdi3.o)
 .ARM.attributes
                0x00001548       0x2d c:/program files (x86)/cypress/psoc creator/3.3/psoc creator/import/gnu/arm/4.9.3/bin/../lib/gcc/arm-none-eabi/4.9.3/../../../../arm-none-eabi/lib/armv7-m\libg_nano.a(lib_a-errno.o)
 .ARM.attributes
                0x00001575       0x2d c:/program files (x86)/cypress/psoc creator/3.3/psoc creator/import/gnu/arm/4.9.3/bin/../lib/gcc/arm-none-eabi/4.9.3/../../../../arm-none-eabi/lib/armv7-m\libg_nano.a(lib_a-exit.o)
 .ARM.attributes
                0x000015a2       0x2d c:/program files (x86)/cypress/psoc creator/3.3/psoc creator/import/gnu/arm/4.9.3/bin/../lib/gcc/arm-none-eabi/4.9.3/../../../../arm-none-eabi/lib/armv7-m\libg_nano.a(lib_a-impure.o)
 .ARM.attributes
                0x000015cf       0x2d c:/program files (x86)/cypress/psoc creator/3.3/psoc creator/import/gnu/arm/4.9.3/bin/../lib/gcc/arm-none-eabi/4.9.3/../../../../arm-none-eabi/lib/armv7-m\libg_nano.a(lib_a-init.o)
 .ARM.attributes
                0x000015fc       0x2d c:/program files (x86)/cypress/psoc creator/3.3/psoc creator/import/gnu/arm/4.9.3/bin/../lib/gcc/arm-none-eabi/4.9.3/../../../../arm-none-eabi/lib/armv7-m\libg_nano.a(lib_a-memcpy.o)
 .ARM.attributes
                0x00001629       0x2d c:/program files (x86)/cypress/psoc creator/3.3/psoc creator/import/gnu/arm/4.9.3/bin/../lib/gcc/arm-none-eabi/4.9.3/../../../../arm-none-eabi/lib/armv7-m\libg_nano.a(lib_a-memset.o)
 .ARM.attributes
                0x00001656       0x2d c:/program files (x86)/cypress/psoc creator/3.3/psoc creator/import/gnu/arm/4.9.3/bin/../lib/gcc/arm-none-eabi/4.9.3/armv7-m/crtend.o
 .ARM.attributes
                0x00001683       0x1d c:/program files (x86)/cypress/psoc creator/3.3/psoc creator/import/gnu/arm/4.9.3/bin/../lib/gcc/arm-none-eabi/4.9.3/armv7-m/crtn.o

/DISCARD/
 *(.note.GNU-stack)
OUTPUT(.\ARM_GCC_493\Debug\PSoC_2_Pi.elf elf32-littlearm)
