ARM GAS  C:\Users\Robert\AppData\Local\Temp\ccCF9Xjo.s 			page 1


   1              		.syntax unified
   2              		.cpu cortex-m3
   3              		.fpu softvfp
   4              		.eabi_attribute 20, 1
   5              		.eabi_attribute 21, 1
   6              		.eabi_attribute 23, 3
   7              		.eabi_attribute 24, 1
   8              		.eabi_attribute 25, 1
   9              		.eabi_attribute 26, 1
  10              		.eabi_attribute 30, 6
  11              		.eabi_attribute 34, 1
  12              		.eabi_attribute 18, 4
  13              		.thumb
  14              		.file	"PWM_3.c"
  15              		.text
  16              	.Ltext0:
  17              		.cfi_sections	.debug_frame
  18              		.global	PWM_3_initVar
  19              		.bss
  20              		.type	PWM_3_initVar, %object
  21              		.size	PWM_3_initVar, 1
  22              	PWM_3_initVar:
  23 0000 00       		.space	1
  24              		.section	.text.PWM_3_Start,"ax",%progbits
  25              		.align	2
  26              		.global	PWM_3_Start
  27              		.thumb
  28              		.thumb_func
  29              		.type	PWM_3_Start, %function
  30              	PWM_3_Start:
  31              	.LFB0:
  32              		.file 1 ".\\Generated_Source\\PSoC5\\PWM_3.c"
   1:.\Generated_Source\PSoC5/PWM_3.c **** /*******************************************************************************
   2:.\Generated_Source\PSoC5/PWM_3.c **** * File Name: PWM_3.c
   3:.\Generated_Source\PSoC5/PWM_3.c **** * Version 3.10
   4:.\Generated_Source\PSoC5/PWM_3.c **** *
   5:.\Generated_Source\PSoC5/PWM_3.c **** * Description:
   6:.\Generated_Source\PSoC5/PWM_3.c **** *  The PWM User Module consist of an 8 or 16-bit counter with two 8 or 16-bit
   7:.\Generated_Source\PSoC5/PWM_3.c **** *  comparitors. Each instance of this user module is capable of generating
   8:.\Generated_Source\PSoC5/PWM_3.c **** *  two PWM outputs with the same period. The pulse width is selectable between
   9:.\Generated_Source\PSoC5/PWM_3.c **** *  1 and 255/65535. The period is selectable between 2 and 255/65536 clocks.
  10:.\Generated_Source\PSoC5/PWM_3.c **** *  The compare value output may be configured to be active when the present
  11:.\Generated_Source\PSoC5/PWM_3.c **** *  counter is less than or less than/equal to the compare value.
  12:.\Generated_Source\PSoC5/PWM_3.c **** *  A terminal count output is also provided. It generates a pulse one clock
  13:.\Generated_Source\PSoC5/PWM_3.c **** *  width wide when the counter is equal to zero.
  14:.\Generated_Source\PSoC5/PWM_3.c **** *
  15:.\Generated_Source\PSoC5/PWM_3.c **** * Note:
  16:.\Generated_Source\PSoC5/PWM_3.c **** *
  17:.\Generated_Source\PSoC5/PWM_3.c **** *******************************************************************************
  18:.\Generated_Source\PSoC5/PWM_3.c **** * Copyright 2008-2014, Cypress Semiconductor Corporation.  All rights reserved.
  19:.\Generated_Source\PSoC5/PWM_3.c **** * You may use this file only in accordance with the license, terms, conditions,
  20:.\Generated_Source\PSoC5/PWM_3.c **** * disclaimers, and limitations in the end user license agreement accompanying
  21:.\Generated_Source\PSoC5/PWM_3.c **** * the software package with which this file was provided.
  22:.\Generated_Source\PSoC5/PWM_3.c **** ********************************************************************************/
  23:.\Generated_Source\PSoC5/PWM_3.c **** 
  24:.\Generated_Source\PSoC5/PWM_3.c **** #include "PWM_3.h"
  25:.\Generated_Source\PSoC5/PWM_3.c **** 
ARM GAS  C:\Users\Robert\AppData\Local\Temp\ccCF9Xjo.s 			page 2


  26:.\Generated_Source\PSoC5/PWM_3.c **** /* Error message for removed <resource> through optimization */
  27:.\Generated_Source\PSoC5/PWM_3.c **** #ifdef PWM_3_PWMUDB_genblk1_ctrlreg__REMOVED
  28:.\Generated_Source\PSoC5/PWM_3.c ****     #error PWM_v3_10 detected with a constant 0 for the enable or \
  29:.\Generated_Source\PSoC5/PWM_3.c ****          constant 1 for reset. This will prevent the component from operating.
  30:.\Generated_Source\PSoC5/PWM_3.c **** #endif /* PWM_3_PWMUDB_genblk1_ctrlreg__REMOVED */
  31:.\Generated_Source\PSoC5/PWM_3.c **** 
  32:.\Generated_Source\PSoC5/PWM_3.c **** uint8 PWM_3_initVar = 0u;
  33:.\Generated_Source\PSoC5/PWM_3.c **** 
  34:.\Generated_Source\PSoC5/PWM_3.c **** 
  35:.\Generated_Source\PSoC5/PWM_3.c **** /*******************************************************************************
  36:.\Generated_Source\PSoC5/PWM_3.c **** * Function Name: PWM_3_Start
  37:.\Generated_Source\PSoC5/PWM_3.c **** ********************************************************************************
  38:.\Generated_Source\PSoC5/PWM_3.c **** *
  39:.\Generated_Source\PSoC5/PWM_3.c **** * Summary:
  40:.\Generated_Source\PSoC5/PWM_3.c **** *  The start function initializes the pwm with the default values, the
  41:.\Generated_Source\PSoC5/PWM_3.c **** *  enables the counter to begin counting.  It does not enable interrupts,
  42:.\Generated_Source\PSoC5/PWM_3.c **** *  the EnableInt command should be called if interrupt generation is required.
  43:.\Generated_Source\PSoC5/PWM_3.c **** *
  44:.\Generated_Source\PSoC5/PWM_3.c **** * Parameters:
  45:.\Generated_Source\PSoC5/PWM_3.c **** *  None
  46:.\Generated_Source\PSoC5/PWM_3.c **** *
  47:.\Generated_Source\PSoC5/PWM_3.c **** * Return:
  48:.\Generated_Source\PSoC5/PWM_3.c **** *  None
  49:.\Generated_Source\PSoC5/PWM_3.c **** *
  50:.\Generated_Source\PSoC5/PWM_3.c **** * Global variables:
  51:.\Generated_Source\PSoC5/PWM_3.c **** *  PWM_3_initVar: Is modified when this function is called for the
  52:.\Generated_Source\PSoC5/PWM_3.c **** *   first time. Is used to ensure that initialization happens only once.
  53:.\Generated_Source\PSoC5/PWM_3.c **** *
  54:.\Generated_Source\PSoC5/PWM_3.c **** *******************************************************************************/
  55:.\Generated_Source\PSoC5/PWM_3.c **** void PWM_3_Start(void) 
  56:.\Generated_Source\PSoC5/PWM_3.c **** {
  33              		.loc 1 56 0
  34              		.cfi_startproc
  35              		@ args = 0, pretend = 0, frame = 0
  36              		@ frame_needed = 1, uses_anonymous_args = 0
  37 0000 80B5     		push	{r7, lr}
  38              		.cfi_def_cfa_offset 8
  39              		.cfi_offset 7, -8
  40              		.cfi_offset 14, -4
  41 0002 00AF     		add	r7, sp, #0
  42              		.cfi_def_cfa_register 7
  57:.\Generated_Source\PSoC5/PWM_3.c ****     /* If not Initialized then initialize all required hardware and software */
  58:.\Generated_Source\PSoC5/PWM_3.c ****     if(PWM_3_initVar == 0u)
  43              		.loc 1 58 0
  44 0004 054B     		ldr	r3, .L3
  45 0006 1B78     		ldrb	r3, [r3]	@ zero_extendqisi2
  46 0008 002B     		cmp	r3, #0
  47 000a 04D1     		bne	.L2
  59:.\Generated_Source\PSoC5/PWM_3.c ****     {
  60:.\Generated_Source\PSoC5/PWM_3.c ****         PWM_3_Init();
  48              		.loc 1 60 0
  49 000c FFF7FEFF 		bl	PWM_3_Init
  61:.\Generated_Source\PSoC5/PWM_3.c ****         PWM_3_initVar = 1u;
  50              		.loc 1 61 0
  51 0010 024B     		ldr	r3, .L3
  52 0012 0122     		movs	r2, #1
  53 0014 1A70     		strb	r2, [r3]
ARM GAS  C:\Users\Robert\AppData\Local\Temp\ccCF9Xjo.s 			page 3


  54              	.L2:
  62:.\Generated_Source\PSoC5/PWM_3.c ****     }
  63:.\Generated_Source\PSoC5/PWM_3.c ****     PWM_3_Enable();
  55              		.loc 1 63 0
  56 0016 FFF7FEFF 		bl	PWM_3_Enable
  64:.\Generated_Source\PSoC5/PWM_3.c **** 
  65:.\Generated_Source\PSoC5/PWM_3.c **** }
  57              		.loc 1 65 0
  58 001a 80BD     		pop	{r7, pc}
  59              	.L4:
  60              		.align	2
  61              	.L3:
  62 001c 00000000 		.word	PWM_3_initVar
  63              		.cfi_endproc
  64              	.LFE0:
  65              		.size	PWM_3_Start, .-PWM_3_Start
  66              		.section	.text.PWM_3_Init,"ax",%progbits
  67              		.align	2
  68              		.global	PWM_3_Init
  69              		.thumb
  70              		.thumb_func
  71              		.type	PWM_3_Init, %function
  72              	PWM_3_Init:
  73              	.LFB1:
  66:.\Generated_Source\PSoC5/PWM_3.c **** 
  67:.\Generated_Source\PSoC5/PWM_3.c **** 
  68:.\Generated_Source\PSoC5/PWM_3.c **** /*******************************************************************************
  69:.\Generated_Source\PSoC5/PWM_3.c **** * Function Name: PWM_3_Init
  70:.\Generated_Source\PSoC5/PWM_3.c **** ********************************************************************************
  71:.\Generated_Source\PSoC5/PWM_3.c **** *
  72:.\Generated_Source\PSoC5/PWM_3.c **** * Summary:
  73:.\Generated_Source\PSoC5/PWM_3.c **** *  Initialize component's parameters to the parameters set by user in the
  74:.\Generated_Source\PSoC5/PWM_3.c **** *  customizer of the component placed onto schematic. Usually called in
  75:.\Generated_Source\PSoC5/PWM_3.c **** *  PWM_3_Start().
  76:.\Generated_Source\PSoC5/PWM_3.c **** *
  77:.\Generated_Source\PSoC5/PWM_3.c **** * Parameters:
  78:.\Generated_Source\PSoC5/PWM_3.c **** *  None
  79:.\Generated_Source\PSoC5/PWM_3.c **** *
  80:.\Generated_Source\PSoC5/PWM_3.c **** * Return:
  81:.\Generated_Source\PSoC5/PWM_3.c **** *  None
  82:.\Generated_Source\PSoC5/PWM_3.c **** *
  83:.\Generated_Source\PSoC5/PWM_3.c **** *******************************************************************************/
  84:.\Generated_Source\PSoC5/PWM_3.c **** void PWM_3_Init(void) 
  85:.\Generated_Source\PSoC5/PWM_3.c **** {
  74              		.loc 1 85 0
  75              		.cfi_startproc
  76              		@ args = 0, pretend = 0, frame = 8
  77              		@ frame_needed = 1, uses_anonymous_args = 0
  78 0000 80B5     		push	{r7, lr}
  79              		.cfi_def_cfa_offset 8
  80              		.cfi_offset 7, -8
  81              		.cfi_offset 14, -4
  82 0002 82B0     		sub	sp, sp, #8
  83              		.cfi_def_cfa_offset 16
  84 0004 00AF     		add	r7, sp, #0
  85              		.cfi_def_cfa_register 7
  86:.\Generated_Source\PSoC5/PWM_3.c ****     #if (PWM_3_UsingFixedFunction || PWM_3_UseControl)
ARM GAS  C:\Users\Robert\AppData\Local\Temp\ccCF9Xjo.s 			page 4


  87:.\Generated_Source\PSoC5/PWM_3.c ****         uint8 ctrl;
  88:.\Generated_Source\PSoC5/PWM_3.c ****     #endif /* (PWM_3_UsingFixedFunction || PWM_3_UseControl) */
  89:.\Generated_Source\PSoC5/PWM_3.c **** 
  90:.\Generated_Source\PSoC5/PWM_3.c ****     #if(!PWM_3_UsingFixedFunction)
  91:.\Generated_Source\PSoC5/PWM_3.c ****         #if(PWM_3_UseStatus)
  92:.\Generated_Source\PSoC5/PWM_3.c ****             /* Interrupt State Backup for Critical Region*/
  93:.\Generated_Source\PSoC5/PWM_3.c ****             uint8 PWM_3_interruptState;
  94:.\Generated_Source\PSoC5/PWM_3.c ****         #endif /* (PWM_3_UseStatus) */
  95:.\Generated_Source\PSoC5/PWM_3.c ****     #endif /* (!PWM_3_UsingFixedFunction) */
  96:.\Generated_Source\PSoC5/PWM_3.c **** 
  97:.\Generated_Source\PSoC5/PWM_3.c ****     #if (PWM_3_UsingFixedFunction)
  98:.\Generated_Source\PSoC5/PWM_3.c ****         /* You are allowed to write the compare value (FF only) */
  99:.\Generated_Source\PSoC5/PWM_3.c ****         PWM_3_CONTROL |= PWM_3_CFG0_MODE;
 100:.\Generated_Source\PSoC5/PWM_3.c ****         #if (PWM_3_DeadBand2_4)
 101:.\Generated_Source\PSoC5/PWM_3.c ****             PWM_3_CONTROL |= PWM_3_CFG0_DB;
 102:.\Generated_Source\PSoC5/PWM_3.c ****         #endif /* (PWM_3_DeadBand2_4) */
 103:.\Generated_Source\PSoC5/PWM_3.c **** 
 104:.\Generated_Source\PSoC5/PWM_3.c ****         ctrl = PWM_3_CONTROL3 & ((uint8 )(~PWM_3_CTRL_CMPMODE1_MASK));
 105:.\Generated_Source\PSoC5/PWM_3.c ****         PWM_3_CONTROL3 = ctrl | PWM_3_DEFAULT_COMPARE1_MODE;
 106:.\Generated_Source\PSoC5/PWM_3.c **** 
 107:.\Generated_Source\PSoC5/PWM_3.c ****          /* Clear and Set SYNCTC and SYNCCMP bits of RT1 register */
 108:.\Generated_Source\PSoC5/PWM_3.c ****         PWM_3_RT1 &= ((uint8)(~PWM_3_RT1_MASK));
 109:.\Generated_Source\PSoC5/PWM_3.c ****         PWM_3_RT1 |= PWM_3_SYNC;
 110:.\Generated_Source\PSoC5/PWM_3.c **** 
 111:.\Generated_Source\PSoC5/PWM_3.c ****         /*Enable DSI Sync all all inputs of the PWM*/
 112:.\Generated_Source\PSoC5/PWM_3.c ****         PWM_3_RT1 &= ((uint8)(~PWM_3_SYNCDSI_MASK));
 113:.\Generated_Source\PSoC5/PWM_3.c ****         PWM_3_RT1 |= PWM_3_SYNCDSI_EN;
 114:.\Generated_Source\PSoC5/PWM_3.c **** 
 115:.\Generated_Source\PSoC5/PWM_3.c ****     #elif (PWM_3_UseControl)
 116:.\Generated_Source\PSoC5/PWM_3.c ****         /* Set the default compare mode defined in the parameter */
 117:.\Generated_Source\PSoC5/PWM_3.c ****         ctrl = PWM_3_CONTROL & ((uint8)(~PWM_3_CTRL_CMPMODE2_MASK)) &
  86              		.loc 1 117 0
  87 0006 204B     		ldr	r3, .L6
  88 0008 1B78     		ldrb	r3, [r3]
  89 000a DBB2     		uxtb	r3, r3
  90 000c 23F03F03 		bic	r3, r3, #63
  91 0010 FB71     		strb	r3, [r7, #7]
 118:.\Generated_Source\PSoC5/PWM_3.c ****                 ((uint8)(~PWM_3_CTRL_CMPMODE1_MASK));
 119:.\Generated_Source\PSoC5/PWM_3.c ****         PWM_3_CONTROL = ctrl | PWM_3_DEFAULT_COMPARE2_MODE |
  92              		.loc 1 119 0
  93 0012 1D4A     		ldr	r2, .L6
  94 0014 FB79     		ldrb	r3, [r7, #7]
  95 0016 43F00903 		orr	r3, r3, #9
  96 001a DBB2     		uxtb	r3, r3
  97 001c 1370     		strb	r3, [r2]
 120:.\Generated_Source\PSoC5/PWM_3.c ****                                    PWM_3_DEFAULT_COMPARE1_MODE;
 121:.\Generated_Source\PSoC5/PWM_3.c ****     #endif /* (PWM_3_UsingFixedFunction) */
 122:.\Generated_Source\PSoC5/PWM_3.c **** 
 123:.\Generated_Source\PSoC5/PWM_3.c ****     #if (!PWM_3_UsingFixedFunction)
 124:.\Generated_Source\PSoC5/PWM_3.c ****         #if (PWM_3_Resolution == 8)
 125:.\Generated_Source\PSoC5/PWM_3.c ****             /* Set FIFO 0 to 1 byte register for period*/
 126:.\Generated_Source\PSoC5/PWM_3.c ****             PWM_3_AUX_CONTROLDP0 |= (PWM_3_AUX_CTRL_FIFO0_CLR);
 127:.\Generated_Source\PSoC5/PWM_3.c ****         #else /* (PWM_3_Resolution == 16)*/
 128:.\Generated_Source\PSoC5/PWM_3.c ****             /* Set FIFO 0 to 1 byte register for period */
 129:.\Generated_Source\PSoC5/PWM_3.c ****             PWM_3_AUX_CONTROLDP0 |= (PWM_3_AUX_CTRL_FIFO0_CLR);
  98              		.loc 1 129 0
  99 001e 1B4A     		ldr	r2, .L6+4
ARM GAS  C:\Users\Robert\AppData\Local\Temp\ccCF9Xjo.s 			page 5


 100 0020 1A4B     		ldr	r3, .L6+4
 101 0022 1B78     		ldrb	r3, [r3]
 102 0024 DBB2     		uxtb	r3, r3
 103 0026 43F00103 		orr	r3, r3, #1
 104 002a DBB2     		uxtb	r3, r3
 105 002c 1370     		strb	r3, [r2]
 130:.\Generated_Source\PSoC5/PWM_3.c ****             PWM_3_AUX_CONTROLDP1 |= (PWM_3_AUX_CTRL_FIFO0_CLR);
 106              		.loc 1 130 0
 107 002e 184A     		ldr	r2, .L6+8
 108 0030 174B     		ldr	r3, .L6+8
 109 0032 1B78     		ldrb	r3, [r3]
 110 0034 DBB2     		uxtb	r3, r3
 111 0036 43F00103 		orr	r3, r3, #1
 112 003a DBB2     		uxtb	r3, r3
 113 003c 1370     		strb	r3, [r2]
 131:.\Generated_Source\PSoC5/PWM_3.c ****         #endif /* (PWM_3_Resolution == 8) */
 132:.\Generated_Source\PSoC5/PWM_3.c **** 
 133:.\Generated_Source\PSoC5/PWM_3.c ****         PWM_3_WriteCounter(PWM_3_INIT_PERIOD_VALUE);
 114              		.loc 1 133 0
 115 003e 4EF66020 		movw	r0, #60000
 116 0042 FFF7FEFF 		bl	PWM_3_WriteCounter
 134:.\Generated_Source\PSoC5/PWM_3.c ****     #endif /* (!PWM_3_UsingFixedFunction) */
 135:.\Generated_Source\PSoC5/PWM_3.c **** 
 136:.\Generated_Source\PSoC5/PWM_3.c ****     PWM_3_WritePeriod(PWM_3_INIT_PERIOD_VALUE);
 117              		.loc 1 136 0
 118 0046 4EF66020 		movw	r0, #60000
 119 004a FFF7FEFF 		bl	PWM_3_WritePeriod
 137:.\Generated_Source\PSoC5/PWM_3.c **** 
 138:.\Generated_Source\PSoC5/PWM_3.c ****         #if (PWM_3_UseOneCompareMode)
 139:.\Generated_Source\PSoC5/PWM_3.c ****             PWM_3_WriteCompare(PWM_3_INIT_COMPARE_VALUE1);
 120              		.loc 1 139 0
 121 004e 41F29410 		movw	r0, #4500
 122 0052 FFF7FEFF 		bl	PWM_3_WriteCompare
 140:.\Generated_Source\PSoC5/PWM_3.c ****         #else
 141:.\Generated_Source\PSoC5/PWM_3.c ****             PWM_3_WriteCompare1(PWM_3_INIT_COMPARE_VALUE1);
 142:.\Generated_Source\PSoC5/PWM_3.c ****             PWM_3_WriteCompare2(PWM_3_INIT_COMPARE_VALUE2);
 143:.\Generated_Source\PSoC5/PWM_3.c ****         #endif /* (PWM_3_UseOneCompareMode) */
 144:.\Generated_Source\PSoC5/PWM_3.c **** 
 145:.\Generated_Source\PSoC5/PWM_3.c ****         #if (PWM_3_KillModeMinTime)
 146:.\Generated_Source\PSoC5/PWM_3.c ****             PWM_3_WriteKillTime(PWM_3_MinimumKillTime);
 147:.\Generated_Source\PSoC5/PWM_3.c ****         #endif /* (PWM_3_KillModeMinTime) */
 148:.\Generated_Source\PSoC5/PWM_3.c **** 
 149:.\Generated_Source\PSoC5/PWM_3.c ****         #if (PWM_3_DeadBandUsed)
 150:.\Generated_Source\PSoC5/PWM_3.c ****             PWM_3_WriteDeadTime(PWM_3_INIT_DEAD_TIME);
 151:.\Generated_Source\PSoC5/PWM_3.c ****         #endif /* (PWM_3_DeadBandUsed) */
 152:.\Generated_Source\PSoC5/PWM_3.c **** 
 153:.\Generated_Source\PSoC5/PWM_3.c ****     #if (PWM_3_UseStatus || PWM_3_UsingFixedFunction)
 154:.\Generated_Source\PSoC5/PWM_3.c ****         PWM_3_SetInterruptMode(PWM_3_INIT_INTERRUPTS_MODE);
 123              		.loc 1 154 0
 124 0056 0020     		movs	r0, #0
 125 0058 FFF7FEFF 		bl	PWM_3_SetInterruptMode
 155:.\Generated_Source\PSoC5/PWM_3.c ****     #endif /* (PWM_3_UseStatus || PWM_3_UsingFixedFunction) */
 156:.\Generated_Source\PSoC5/PWM_3.c **** 
 157:.\Generated_Source\PSoC5/PWM_3.c ****     #if (PWM_3_UsingFixedFunction)
 158:.\Generated_Source\PSoC5/PWM_3.c ****         /* Globally Enable the Fixed Function Block chosen */
 159:.\Generated_Source\PSoC5/PWM_3.c ****         PWM_3_GLOBAL_ENABLE |= PWM_3_BLOCK_EN_MASK;
 160:.\Generated_Source\PSoC5/PWM_3.c ****         /* Set the Interrupt source to come from the status register */
ARM GAS  C:\Users\Robert\AppData\Local\Temp\ccCF9Xjo.s 			page 6


 161:.\Generated_Source\PSoC5/PWM_3.c ****         PWM_3_CONTROL2 |= PWM_3_CTRL2_IRQ_SEL;
 162:.\Generated_Source\PSoC5/PWM_3.c ****     #else
 163:.\Generated_Source\PSoC5/PWM_3.c ****         #if(PWM_3_UseStatus)
 164:.\Generated_Source\PSoC5/PWM_3.c **** 
 165:.\Generated_Source\PSoC5/PWM_3.c ****             /* CyEnterCriticalRegion and CyExitCriticalRegion are used to mark following region cri
 166:.\Generated_Source\PSoC5/PWM_3.c ****             /* Enter Critical Region*/
 167:.\Generated_Source\PSoC5/PWM_3.c ****             PWM_3_interruptState = CyEnterCriticalSection();
 126              		.loc 1 167 0
 127 005c FFF7FEFF 		bl	CyEnterCriticalSection
 128 0060 0346     		mov	r3, r0
 129 0062 BB71     		strb	r3, [r7, #6]
 168:.\Generated_Source\PSoC5/PWM_3.c ****             /* Use the interrupt output of the status register for IRQ output */
 169:.\Generated_Source\PSoC5/PWM_3.c ****             PWM_3_STATUS_AUX_CTRL |= PWM_3_STATUS_ACTL_INT_EN_MASK;
 130              		.loc 1 169 0
 131 0064 0B4A     		ldr	r2, .L6+12
 132 0066 0B4B     		ldr	r3, .L6+12
 133 0068 1B78     		ldrb	r3, [r3]
 134 006a DBB2     		uxtb	r3, r3
 135 006c 43F01003 		orr	r3, r3, #16
 136 0070 DBB2     		uxtb	r3, r3
 137 0072 1370     		strb	r3, [r2]
 170:.\Generated_Source\PSoC5/PWM_3.c **** 
 171:.\Generated_Source\PSoC5/PWM_3.c ****              /* Exit Critical Region*/
 172:.\Generated_Source\PSoC5/PWM_3.c ****             CyExitCriticalSection(PWM_3_interruptState);
 138              		.loc 1 172 0
 139 0074 BB79     		ldrb	r3, [r7, #6]	@ zero_extendqisi2
 140 0076 1846     		mov	r0, r3
 141 0078 FFF7FEFF 		bl	CyExitCriticalSection
 173:.\Generated_Source\PSoC5/PWM_3.c **** 
 174:.\Generated_Source\PSoC5/PWM_3.c ****             /* Clear the FIFO to enable the PWM_3_STATUS_FIFOFULL
 175:.\Generated_Source\PSoC5/PWM_3.c ****                    bit to be set on FIFO full. */
 176:.\Generated_Source\PSoC5/PWM_3.c ****             PWM_3_ClearFIFO();
 142              		.loc 1 176 0
 143 007c FFF7FEFF 		bl	PWM_3_ClearFIFO
 177:.\Generated_Source\PSoC5/PWM_3.c ****         #endif /* (PWM_3_UseStatus) */
 178:.\Generated_Source\PSoC5/PWM_3.c ****     #endif /* (PWM_3_UsingFixedFunction) */
 179:.\Generated_Source\PSoC5/PWM_3.c **** }
 144              		.loc 1 179 0
 145 0080 0837     		adds	r7, r7, #8
 146              		.cfi_def_cfa_offset 8
 147 0082 BD46     		mov	sp, r7
 148              		.cfi_def_cfa_register 13
 149              		@ sp needed
 150 0084 80BD     		pop	{r7, pc}
 151              	.L7:
 152 0086 00BF     		.align	2
 153              	.L6:
 154 0088 79650040 		.word	1073767801
 155 008c 9A650040 		.word	1073767834
 156 0090 9B650040 		.word	1073767835
 157 0094 99650040 		.word	1073767833
 158              		.cfi_endproc
 159              	.LFE1:
 160              		.size	PWM_3_Init, .-PWM_3_Init
 161              		.section	.text.PWM_3_Enable,"ax",%progbits
 162              		.align	2
 163              		.global	PWM_3_Enable
ARM GAS  C:\Users\Robert\AppData\Local\Temp\ccCF9Xjo.s 			page 7


 164              		.thumb
 165              		.thumb_func
 166              		.type	PWM_3_Enable, %function
 167              	PWM_3_Enable:
 168              	.LFB2:
 180:.\Generated_Source\PSoC5/PWM_3.c **** 
 181:.\Generated_Source\PSoC5/PWM_3.c **** 
 182:.\Generated_Source\PSoC5/PWM_3.c **** /*******************************************************************************
 183:.\Generated_Source\PSoC5/PWM_3.c **** * Function Name: PWM_3_Enable
 184:.\Generated_Source\PSoC5/PWM_3.c **** ********************************************************************************
 185:.\Generated_Source\PSoC5/PWM_3.c **** *
 186:.\Generated_Source\PSoC5/PWM_3.c **** * Summary:
 187:.\Generated_Source\PSoC5/PWM_3.c **** *  Enables the PWM block operation
 188:.\Generated_Source\PSoC5/PWM_3.c **** *
 189:.\Generated_Source\PSoC5/PWM_3.c **** * Parameters:
 190:.\Generated_Source\PSoC5/PWM_3.c **** *  None
 191:.\Generated_Source\PSoC5/PWM_3.c **** *
 192:.\Generated_Source\PSoC5/PWM_3.c **** * Return:
 193:.\Generated_Source\PSoC5/PWM_3.c **** *  None
 194:.\Generated_Source\PSoC5/PWM_3.c **** *
 195:.\Generated_Source\PSoC5/PWM_3.c **** * Side Effects:
 196:.\Generated_Source\PSoC5/PWM_3.c **** *  This works only if software enable mode is chosen
 197:.\Generated_Source\PSoC5/PWM_3.c **** *
 198:.\Generated_Source\PSoC5/PWM_3.c **** *******************************************************************************/
 199:.\Generated_Source\PSoC5/PWM_3.c **** void PWM_3_Enable(void) 
 200:.\Generated_Source\PSoC5/PWM_3.c **** {
 169              		.loc 1 200 0
 170              		.cfi_startproc
 171              		@ args = 0, pretend = 0, frame = 0
 172              		@ frame_needed = 1, uses_anonymous_args = 0
 173              		@ link register save eliminated.
 174 0000 80B4     		push	{r7}
 175              		.cfi_def_cfa_offset 4
 176              		.cfi_offset 7, -4
 177 0002 00AF     		add	r7, sp, #0
 178              		.cfi_def_cfa_register 7
 201:.\Generated_Source\PSoC5/PWM_3.c ****     /* Globally Enable the Fixed Function Block chosen */
 202:.\Generated_Source\PSoC5/PWM_3.c ****     #if (PWM_3_UsingFixedFunction)
 203:.\Generated_Source\PSoC5/PWM_3.c ****         PWM_3_GLOBAL_ENABLE |= PWM_3_BLOCK_EN_MASK;
 204:.\Generated_Source\PSoC5/PWM_3.c ****         PWM_3_GLOBAL_STBY_ENABLE |= PWM_3_BLOCK_STBY_EN_MASK;
 205:.\Generated_Source\PSoC5/PWM_3.c ****     #endif /* (PWM_3_UsingFixedFunction) */
 206:.\Generated_Source\PSoC5/PWM_3.c **** 
 207:.\Generated_Source\PSoC5/PWM_3.c ****     /* Enable the PWM from the control register  */
 208:.\Generated_Source\PSoC5/PWM_3.c ****     #if (PWM_3_UseControl || PWM_3_UsingFixedFunction)
 209:.\Generated_Source\PSoC5/PWM_3.c ****         PWM_3_CONTROL |= PWM_3_CTRL_ENABLE;
 179              		.loc 1 209 0
 180 0004 054A     		ldr	r2, .L9
 181 0006 054B     		ldr	r3, .L9
 182 0008 1B78     		ldrb	r3, [r3]
 183 000a DBB2     		uxtb	r3, r3
 184 000c 63F07F03 		orn	r3, r3, #127
 185 0010 DBB2     		uxtb	r3, r3
 186 0012 1370     		strb	r3, [r2]
 210:.\Generated_Source\PSoC5/PWM_3.c ****     #endif /* (PWM_3_UseControl || PWM_3_UsingFixedFunction) */
 211:.\Generated_Source\PSoC5/PWM_3.c **** }
 187              		.loc 1 211 0
 188 0014 BD46     		mov	sp, r7
ARM GAS  C:\Users\Robert\AppData\Local\Temp\ccCF9Xjo.s 			page 8


 189              		.cfi_def_cfa_register 13
 190              		@ sp needed
 191 0016 5DF8047B 		ldr	r7, [sp], #4
 192              		.cfi_restore 7
 193              		.cfi_def_cfa_offset 0
 194 001a 7047     		bx	lr
 195              	.L10:
 196              		.align	2
 197              	.L9:
 198 001c 79650040 		.word	1073767801
 199              		.cfi_endproc
 200              	.LFE2:
 201              		.size	PWM_3_Enable, .-PWM_3_Enable
 202              		.section	.text.PWM_3_Stop,"ax",%progbits
 203              		.align	2
 204              		.global	PWM_3_Stop
 205              		.thumb
 206              		.thumb_func
 207              		.type	PWM_3_Stop, %function
 208              	PWM_3_Stop:
 209              	.LFB3:
 212:.\Generated_Source\PSoC5/PWM_3.c **** 
 213:.\Generated_Source\PSoC5/PWM_3.c **** 
 214:.\Generated_Source\PSoC5/PWM_3.c **** /*******************************************************************************
 215:.\Generated_Source\PSoC5/PWM_3.c **** * Function Name: PWM_3_Stop
 216:.\Generated_Source\PSoC5/PWM_3.c **** ********************************************************************************
 217:.\Generated_Source\PSoC5/PWM_3.c **** *
 218:.\Generated_Source\PSoC5/PWM_3.c **** * Summary:
 219:.\Generated_Source\PSoC5/PWM_3.c **** *  The stop function halts the PWM, but does not change any modes or disable
 220:.\Generated_Source\PSoC5/PWM_3.c **** *  interrupts.
 221:.\Generated_Source\PSoC5/PWM_3.c **** *
 222:.\Generated_Source\PSoC5/PWM_3.c **** * Parameters:
 223:.\Generated_Source\PSoC5/PWM_3.c **** *  None
 224:.\Generated_Source\PSoC5/PWM_3.c **** *
 225:.\Generated_Source\PSoC5/PWM_3.c **** * Return:
 226:.\Generated_Source\PSoC5/PWM_3.c **** *  None
 227:.\Generated_Source\PSoC5/PWM_3.c **** *
 228:.\Generated_Source\PSoC5/PWM_3.c **** * Side Effects:
 229:.\Generated_Source\PSoC5/PWM_3.c **** *  If the Enable mode is set to Hardware only then this function
 230:.\Generated_Source\PSoC5/PWM_3.c **** *  has no effect on the operation of the PWM
 231:.\Generated_Source\PSoC5/PWM_3.c **** *
 232:.\Generated_Source\PSoC5/PWM_3.c **** *******************************************************************************/
 233:.\Generated_Source\PSoC5/PWM_3.c **** void PWM_3_Stop(void) 
 234:.\Generated_Source\PSoC5/PWM_3.c **** {
 210              		.loc 1 234 0
 211              		.cfi_startproc
 212              		@ args = 0, pretend = 0, frame = 0
 213              		@ frame_needed = 1, uses_anonymous_args = 0
 214              		@ link register save eliminated.
 215 0000 80B4     		push	{r7}
 216              		.cfi_def_cfa_offset 4
 217              		.cfi_offset 7, -4
 218 0002 00AF     		add	r7, sp, #0
 219              		.cfi_def_cfa_register 7
 235:.\Generated_Source\PSoC5/PWM_3.c ****     #if (PWM_3_UseControl || PWM_3_UsingFixedFunction)
 236:.\Generated_Source\PSoC5/PWM_3.c ****         PWM_3_CONTROL &= ((uint8)(~PWM_3_CTRL_ENABLE));
 220              		.loc 1 236 0
ARM GAS  C:\Users\Robert\AppData\Local\Temp\ccCF9Xjo.s 			page 9


 221 0004 054A     		ldr	r2, .L12
 222 0006 054B     		ldr	r3, .L12
 223 0008 1B78     		ldrb	r3, [r3]
 224 000a DBB2     		uxtb	r3, r3
 225 000c 03F07F03 		and	r3, r3, #127
 226 0010 DBB2     		uxtb	r3, r3
 227 0012 1370     		strb	r3, [r2]
 237:.\Generated_Source\PSoC5/PWM_3.c ****     #endif /* (PWM_3_UseControl || PWM_3_UsingFixedFunction) */
 238:.\Generated_Source\PSoC5/PWM_3.c **** 
 239:.\Generated_Source\PSoC5/PWM_3.c ****     /* Globally disable the Fixed Function Block chosen */
 240:.\Generated_Source\PSoC5/PWM_3.c ****     #if (PWM_3_UsingFixedFunction)
 241:.\Generated_Source\PSoC5/PWM_3.c ****         PWM_3_GLOBAL_ENABLE &= ((uint8)(~PWM_3_BLOCK_EN_MASK));
 242:.\Generated_Source\PSoC5/PWM_3.c ****         PWM_3_GLOBAL_STBY_ENABLE &= ((uint8)(~PWM_3_BLOCK_STBY_EN_MASK));
 243:.\Generated_Source\PSoC5/PWM_3.c ****     #endif /* (PWM_3_UsingFixedFunction) */
 244:.\Generated_Source\PSoC5/PWM_3.c **** }
 228              		.loc 1 244 0
 229 0014 BD46     		mov	sp, r7
 230              		.cfi_def_cfa_register 13
 231              		@ sp needed
 232 0016 5DF8047B 		ldr	r7, [sp], #4
 233              		.cfi_restore 7
 234              		.cfi_def_cfa_offset 0
 235 001a 7047     		bx	lr
 236              	.L13:
 237              		.align	2
 238              	.L12:
 239 001c 79650040 		.word	1073767801
 240              		.cfi_endproc
 241              	.LFE3:
 242              		.size	PWM_3_Stop, .-PWM_3_Stop
 243              		.section	.text.PWM_3_WriteCounter,"ax",%progbits
 244              		.align	2
 245              		.global	PWM_3_WriteCounter
 246              		.thumb
 247              		.thumb_func
 248              		.type	PWM_3_WriteCounter, %function
 249              	PWM_3_WriteCounter:
 250              	.LFB4:
 245:.\Generated_Source\PSoC5/PWM_3.c **** 
 246:.\Generated_Source\PSoC5/PWM_3.c **** #if (PWM_3_UseOneCompareMode)
 247:.\Generated_Source\PSoC5/PWM_3.c ****     #if (PWM_3_CompareMode1SW)
 248:.\Generated_Source\PSoC5/PWM_3.c **** 
 249:.\Generated_Source\PSoC5/PWM_3.c **** 
 250:.\Generated_Source\PSoC5/PWM_3.c ****         /*******************************************************************************
 251:.\Generated_Source\PSoC5/PWM_3.c ****         * Function Name: PWM_3_SetCompareMode
 252:.\Generated_Source\PSoC5/PWM_3.c ****         ********************************************************************************
 253:.\Generated_Source\PSoC5/PWM_3.c ****         *
 254:.\Generated_Source\PSoC5/PWM_3.c ****         * Summary:
 255:.\Generated_Source\PSoC5/PWM_3.c ****         *  This function writes the Compare Mode for the pwm output when in Dither mode,
 256:.\Generated_Source\PSoC5/PWM_3.c ****         *  Center Align Mode or One Output Mode.
 257:.\Generated_Source\PSoC5/PWM_3.c ****         *
 258:.\Generated_Source\PSoC5/PWM_3.c ****         * Parameters:
 259:.\Generated_Source\PSoC5/PWM_3.c ****         *  comparemode:  The new compare mode for the PWM output. Use the compare types
 260:.\Generated_Source\PSoC5/PWM_3.c ****         *                defined in the H file as input arguments.
 261:.\Generated_Source\PSoC5/PWM_3.c ****         *
 262:.\Generated_Source\PSoC5/PWM_3.c ****         * Return:
 263:.\Generated_Source\PSoC5/PWM_3.c ****         *  None
ARM GAS  C:\Users\Robert\AppData\Local\Temp\ccCF9Xjo.s 			page 10


 264:.\Generated_Source\PSoC5/PWM_3.c ****         *
 265:.\Generated_Source\PSoC5/PWM_3.c ****         *******************************************************************************/
 266:.\Generated_Source\PSoC5/PWM_3.c ****         void PWM_3_SetCompareMode(uint8 comparemode) 
 267:.\Generated_Source\PSoC5/PWM_3.c ****         {
 268:.\Generated_Source\PSoC5/PWM_3.c ****             #if(PWM_3_UsingFixedFunction)
 269:.\Generated_Source\PSoC5/PWM_3.c **** 
 270:.\Generated_Source\PSoC5/PWM_3.c ****                 #if(0 != PWM_3_CTRL_CMPMODE1_SHIFT)
 271:.\Generated_Source\PSoC5/PWM_3.c ****                     uint8 comparemodemasked = ((uint8)((uint8)comparemode << PWM_3_CTRL_CMPMODE1_SH
 272:.\Generated_Source\PSoC5/PWM_3.c ****                 #else
 273:.\Generated_Source\PSoC5/PWM_3.c ****                     uint8 comparemodemasked = comparemode;
 274:.\Generated_Source\PSoC5/PWM_3.c ****                 #endif /* (0 != PWM_3_CTRL_CMPMODE1_SHIFT) */
 275:.\Generated_Source\PSoC5/PWM_3.c **** 
 276:.\Generated_Source\PSoC5/PWM_3.c ****                 PWM_3_CONTROL3 &= ((uint8)(~PWM_3_CTRL_CMPMODE1_MASK)); /*Clear Existing Data */
 277:.\Generated_Source\PSoC5/PWM_3.c ****                 PWM_3_CONTROL3 |= comparemodemasked;
 278:.\Generated_Source\PSoC5/PWM_3.c **** 
 279:.\Generated_Source\PSoC5/PWM_3.c ****             #elif (PWM_3_UseControl)
 280:.\Generated_Source\PSoC5/PWM_3.c **** 
 281:.\Generated_Source\PSoC5/PWM_3.c ****                 #if(0 != PWM_3_CTRL_CMPMODE1_SHIFT)
 282:.\Generated_Source\PSoC5/PWM_3.c ****                     uint8 comparemode1masked = ((uint8)((uint8)comparemode << PWM_3_CTRL_CMPMODE1_S
 283:.\Generated_Source\PSoC5/PWM_3.c ****                                                 PWM_3_CTRL_CMPMODE1_MASK;
 284:.\Generated_Source\PSoC5/PWM_3.c ****                 #else
 285:.\Generated_Source\PSoC5/PWM_3.c ****                     uint8 comparemode1masked = comparemode & PWM_3_CTRL_CMPMODE1_MASK;
 286:.\Generated_Source\PSoC5/PWM_3.c ****                 #endif /* (0 != PWM_3_CTRL_CMPMODE1_SHIFT) */
 287:.\Generated_Source\PSoC5/PWM_3.c **** 
 288:.\Generated_Source\PSoC5/PWM_3.c ****                 #if(0 != PWM_3_CTRL_CMPMODE2_SHIFT)
 289:.\Generated_Source\PSoC5/PWM_3.c ****                     uint8 comparemode2masked = ((uint8)((uint8)comparemode << PWM_3_CTRL_CMPMODE2_S
 290:.\Generated_Source\PSoC5/PWM_3.c ****                                                PWM_3_CTRL_CMPMODE2_MASK;
 291:.\Generated_Source\PSoC5/PWM_3.c ****                 #else
 292:.\Generated_Source\PSoC5/PWM_3.c ****                     uint8 comparemode2masked = comparemode & PWM_3_CTRL_CMPMODE2_MASK;
 293:.\Generated_Source\PSoC5/PWM_3.c ****                 #endif /* (0 != PWM_3_CTRL_CMPMODE2_SHIFT) */
 294:.\Generated_Source\PSoC5/PWM_3.c **** 
 295:.\Generated_Source\PSoC5/PWM_3.c ****                 /*Clear existing mode */
 296:.\Generated_Source\PSoC5/PWM_3.c ****                 PWM_3_CONTROL &= ((uint8)(~(PWM_3_CTRL_CMPMODE1_MASK |
 297:.\Generated_Source\PSoC5/PWM_3.c ****                                             PWM_3_CTRL_CMPMODE2_MASK)));
 298:.\Generated_Source\PSoC5/PWM_3.c ****                 PWM_3_CONTROL |= (comparemode1masked | comparemode2masked);
 299:.\Generated_Source\PSoC5/PWM_3.c **** 
 300:.\Generated_Source\PSoC5/PWM_3.c ****             #else
 301:.\Generated_Source\PSoC5/PWM_3.c ****                 uint8 temp = comparemode;
 302:.\Generated_Source\PSoC5/PWM_3.c ****             #endif /* (PWM_3_UsingFixedFunction) */
 303:.\Generated_Source\PSoC5/PWM_3.c ****         }
 304:.\Generated_Source\PSoC5/PWM_3.c ****     #endif /* PWM_3_CompareMode1SW */
 305:.\Generated_Source\PSoC5/PWM_3.c **** 
 306:.\Generated_Source\PSoC5/PWM_3.c **** #else /* UseOneCompareMode */
 307:.\Generated_Source\PSoC5/PWM_3.c **** 
 308:.\Generated_Source\PSoC5/PWM_3.c ****     #if (PWM_3_CompareMode1SW)
 309:.\Generated_Source\PSoC5/PWM_3.c **** 
 310:.\Generated_Source\PSoC5/PWM_3.c **** 
 311:.\Generated_Source\PSoC5/PWM_3.c ****         /*******************************************************************************
 312:.\Generated_Source\PSoC5/PWM_3.c ****         * Function Name: PWM_3_SetCompareMode1
 313:.\Generated_Source\PSoC5/PWM_3.c ****         ********************************************************************************
 314:.\Generated_Source\PSoC5/PWM_3.c ****         *
 315:.\Generated_Source\PSoC5/PWM_3.c ****         * Summary:
 316:.\Generated_Source\PSoC5/PWM_3.c ****         *  This function writes the Compare Mode for the pwm or pwm1 output
 317:.\Generated_Source\PSoC5/PWM_3.c ****         *
 318:.\Generated_Source\PSoC5/PWM_3.c ****         * Parameters:
 319:.\Generated_Source\PSoC5/PWM_3.c ****         *  comparemode:  The new compare mode for the PWM output. Use the compare types
 320:.\Generated_Source\PSoC5/PWM_3.c ****         *                defined in the H file as input arguments.
ARM GAS  C:\Users\Robert\AppData\Local\Temp\ccCF9Xjo.s 			page 11


 321:.\Generated_Source\PSoC5/PWM_3.c ****         *
 322:.\Generated_Source\PSoC5/PWM_3.c ****         * Return:
 323:.\Generated_Source\PSoC5/PWM_3.c ****         *  None
 324:.\Generated_Source\PSoC5/PWM_3.c ****         *
 325:.\Generated_Source\PSoC5/PWM_3.c ****         *******************************************************************************/
 326:.\Generated_Source\PSoC5/PWM_3.c ****         void PWM_3_SetCompareMode1(uint8 comparemode) 
 327:.\Generated_Source\PSoC5/PWM_3.c ****         {
 328:.\Generated_Source\PSoC5/PWM_3.c ****             #if(0 != PWM_3_CTRL_CMPMODE1_SHIFT)
 329:.\Generated_Source\PSoC5/PWM_3.c ****                 uint8 comparemodemasked = ((uint8)((uint8)comparemode << PWM_3_CTRL_CMPMODE1_SHIFT)
 330:.\Generated_Source\PSoC5/PWM_3.c ****                                            PWM_3_CTRL_CMPMODE1_MASK;
 331:.\Generated_Source\PSoC5/PWM_3.c ****             #else
 332:.\Generated_Source\PSoC5/PWM_3.c ****                 uint8 comparemodemasked = comparemode & PWM_3_CTRL_CMPMODE1_MASK;
 333:.\Generated_Source\PSoC5/PWM_3.c ****             #endif /* (0 != PWM_3_CTRL_CMPMODE1_SHIFT) */
 334:.\Generated_Source\PSoC5/PWM_3.c **** 
 335:.\Generated_Source\PSoC5/PWM_3.c ****             #if (PWM_3_UseControl)
 336:.\Generated_Source\PSoC5/PWM_3.c ****                 PWM_3_CONTROL &= ((uint8)(~PWM_3_CTRL_CMPMODE1_MASK)); /*Clear existing mode */
 337:.\Generated_Source\PSoC5/PWM_3.c ****                 PWM_3_CONTROL |= comparemodemasked;
 338:.\Generated_Source\PSoC5/PWM_3.c ****             #endif /* (PWM_3_UseControl) */
 339:.\Generated_Source\PSoC5/PWM_3.c ****         }
 340:.\Generated_Source\PSoC5/PWM_3.c ****     #endif /* PWM_3_CompareMode1SW */
 341:.\Generated_Source\PSoC5/PWM_3.c **** 
 342:.\Generated_Source\PSoC5/PWM_3.c **** #if (PWM_3_CompareMode2SW)
 343:.\Generated_Source\PSoC5/PWM_3.c **** 
 344:.\Generated_Source\PSoC5/PWM_3.c **** 
 345:.\Generated_Source\PSoC5/PWM_3.c ****     /*******************************************************************************
 346:.\Generated_Source\PSoC5/PWM_3.c ****     * Function Name: PWM_3_SetCompareMode2
 347:.\Generated_Source\PSoC5/PWM_3.c ****     ********************************************************************************
 348:.\Generated_Source\PSoC5/PWM_3.c ****     *
 349:.\Generated_Source\PSoC5/PWM_3.c ****     * Summary:
 350:.\Generated_Source\PSoC5/PWM_3.c ****     *  This function writes the Compare Mode for the pwm or pwm2 output
 351:.\Generated_Source\PSoC5/PWM_3.c ****     *
 352:.\Generated_Source\PSoC5/PWM_3.c ****     * Parameters:
 353:.\Generated_Source\PSoC5/PWM_3.c ****     *  comparemode:  The new compare mode for the PWM output. Use the compare types
 354:.\Generated_Source\PSoC5/PWM_3.c ****     *                defined in the H file as input arguments.
 355:.\Generated_Source\PSoC5/PWM_3.c ****     *
 356:.\Generated_Source\PSoC5/PWM_3.c ****     * Return:
 357:.\Generated_Source\PSoC5/PWM_3.c ****     *  None
 358:.\Generated_Source\PSoC5/PWM_3.c ****     *
 359:.\Generated_Source\PSoC5/PWM_3.c ****     *******************************************************************************/
 360:.\Generated_Source\PSoC5/PWM_3.c ****     void PWM_3_SetCompareMode2(uint8 comparemode) 
 361:.\Generated_Source\PSoC5/PWM_3.c ****     {
 362:.\Generated_Source\PSoC5/PWM_3.c **** 
 363:.\Generated_Source\PSoC5/PWM_3.c ****         #if(0 != PWM_3_CTRL_CMPMODE2_SHIFT)
 364:.\Generated_Source\PSoC5/PWM_3.c ****             uint8 comparemodemasked = ((uint8)((uint8)comparemode << PWM_3_CTRL_CMPMODE2_SHIFT)) &
 365:.\Generated_Source\PSoC5/PWM_3.c ****                                                  PWM_3_CTRL_CMPMODE2_MASK;
 366:.\Generated_Source\PSoC5/PWM_3.c ****         #else
 367:.\Generated_Source\PSoC5/PWM_3.c ****             uint8 comparemodemasked = comparemode & PWM_3_CTRL_CMPMODE2_MASK;
 368:.\Generated_Source\PSoC5/PWM_3.c ****         #endif /* (0 != PWM_3_CTRL_CMPMODE2_SHIFT) */
 369:.\Generated_Source\PSoC5/PWM_3.c **** 
 370:.\Generated_Source\PSoC5/PWM_3.c ****         #if (PWM_3_UseControl)
 371:.\Generated_Source\PSoC5/PWM_3.c ****             PWM_3_CONTROL &= ((uint8)(~PWM_3_CTRL_CMPMODE2_MASK)); /*Clear existing mode */
 372:.\Generated_Source\PSoC5/PWM_3.c ****             PWM_3_CONTROL |= comparemodemasked;
 373:.\Generated_Source\PSoC5/PWM_3.c ****         #endif /* (PWM_3_UseControl) */
 374:.\Generated_Source\PSoC5/PWM_3.c ****     }
 375:.\Generated_Source\PSoC5/PWM_3.c ****     #endif /*PWM_3_CompareMode2SW */
 376:.\Generated_Source\PSoC5/PWM_3.c **** 
 377:.\Generated_Source\PSoC5/PWM_3.c **** #endif /* UseOneCompareMode */
ARM GAS  C:\Users\Robert\AppData\Local\Temp\ccCF9Xjo.s 			page 12


 378:.\Generated_Source\PSoC5/PWM_3.c **** 
 379:.\Generated_Source\PSoC5/PWM_3.c **** 
 380:.\Generated_Source\PSoC5/PWM_3.c **** #if (!PWM_3_UsingFixedFunction)
 381:.\Generated_Source\PSoC5/PWM_3.c **** 
 382:.\Generated_Source\PSoC5/PWM_3.c **** 
 383:.\Generated_Source\PSoC5/PWM_3.c ****     /*******************************************************************************
 384:.\Generated_Source\PSoC5/PWM_3.c ****     * Function Name: PWM_3_WriteCounter
 385:.\Generated_Source\PSoC5/PWM_3.c ****     ********************************************************************************
 386:.\Generated_Source\PSoC5/PWM_3.c ****     *
 387:.\Generated_Source\PSoC5/PWM_3.c ****     * Summary:
 388:.\Generated_Source\PSoC5/PWM_3.c ****     *  Writes a new counter value directly to the counter register. This will be
 389:.\Generated_Source\PSoC5/PWM_3.c ****     *  implemented for that currently running period and only that period. This API
 390:.\Generated_Source\PSoC5/PWM_3.c ****     *  is valid only for UDB implementation and not available for fixed function
 391:.\Generated_Source\PSoC5/PWM_3.c ****     *  PWM implementation.
 392:.\Generated_Source\PSoC5/PWM_3.c ****     *
 393:.\Generated_Source\PSoC5/PWM_3.c ****     * Parameters:
 394:.\Generated_Source\PSoC5/PWM_3.c ****     *  counter:  The period new period counter value.
 395:.\Generated_Source\PSoC5/PWM_3.c ****     *
 396:.\Generated_Source\PSoC5/PWM_3.c ****     * Return:
 397:.\Generated_Source\PSoC5/PWM_3.c ****     *  None
 398:.\Generated_Source\PSoC5/PWM_3.c ****     *
 399:.\Generated_Source\PSoC5/PWM_3.c ****     * Side Effects:
 400:.\Generated_Source\PSoC5/PWM_3.c ****     *  The PWM Period will be reloaded when a counter value will be a zero
 401:.\Generated_Source\PSoC5/PWM_3.c ****     *
 402:.\Generated_Source\PSoC5/PWM_3.c ****     *******************************************************************************/
 403:.\Generated_Source\PSoC5/PWM_3.c ****     void PWM_3_WriteCounter(uint16 counter) \
 404:.\Generated_Source\PSoC5/PWM_3.c ****                                        
 405:.\Generated_Source\PSoC5/PWM_3.c ****     {
 251              		.loc 1 405 0
 252              		.cfi_startproc
 253              		@ args = 0, pretend = 0, frame = 8
 254              		@ frame_needed = 1, uses_anonymous_args = 0
 255              		@ link register save eliminated.
 256 0000 80B4     		push	{r7}
 257              		.cfi_def_cfa_offset 4
 258              		.cfi_offset 7, -4
 259 0002 83B0     		sub	sp, sp, #12
 260              		.cfi_def_cfa_offset 16
 261 0004 00AF     		add	r7, sp, #0
 262              		.cfi_def_cfa_register 7
 263 0006 0346     		mov	r3, r0
 264 0008 FB80     		strh	r3, [r7, #6]	@ movhi
 406:.\Generated_Source\PSoC5/PWM_3.c ****         CY_SET_REG16(PWM_3_COUNTER_LSB_PTR, counter);
 265              		.loc 1 406 0
 266 000a 044A     		ldr	r2, .L15
 267 000c FB88     		ldrh	r3, [r7, #6]	@ movhi
 268 000e 1380     		strh	r3, [r2]	@ movhi
 407:.\Generated_Source\PSoC5/PWM_3.c ****     }
 269              		.loc 1 407 0
 270 0010 0C37     		adds	r7, r7, #12
 271              		.cfi_def_cfa_offset 4
 272 0012 BD46     		mov	sp, r7
 273              		.cfi_def_cfa_register 13
 274              		@ sp needed
 275 0014 5DF8047B 		ldr	r7, [sp], #4
 276              		.cfi_restore 7
 277              		.cfi_def_cfa_offset 0
ARM GAS  C:\Users\Robert\AppData\Local\Temp\ccCF9Xjo.s 			page 13


 278 0018 7047     		bx	lr
 279              	.L16:
 280 001a 00BF     		.align	2
 281              	.L15:
 282 001c 146A0040 		.word	1073768980
 283              		.cfi_endproc
 284              	.LFE4:
 285              		.size	PWM_3_WriteCounter, .-PWM_3_WriteCounter
 286              		.section	.text.PWM_3_ReadCounter,"ax",%progbits
 287              		.align	2
 288              		.global	PWM_3_ReadCounter
 289              		.thumb
 290              		.thumb_func
 291              		.type	PWM_3_ReadCounter, %function
 292              	PWM_3_ReadCounter:
 293              	.LFB5:
 408:.\Generated_Source\PSoC5/PWM_3.c **** 
 409:.\Generated_Source\PSoC5/PWM_3.c **** 
 410:.\Generated_Source\PSoC5/PWM_3.c ****     /*******************************************************************************
 411:.\Generated_Source\PSoC5/PWM_3.c ****     * Function Name: PWM_3_ReadCounter
 412:.\Generated_Source\PSoC5/PWM_3.c ****     ********************************************************************************
 413:.\Generated_Source\PSoC5/PWM_3.c ****     *
 414:.\Generated_Source\PSoC5/PWM_3.c ****     * Summary:
 415:.\Generated_Source\PSoC5/PWM_3.c ****     *  This function returns the current value of the counter.  It doesn't matter
 416:.\Generated_Source\PSoC5/PWM_3.c ****     *  if the counter is enabled or running.
 417:.\Generated_Source\PSoC5/PWM_3.c ****     *
 418:.\Generated_Source\PSoC5/PWM_3.c ****     * Parameters:
 419:.\Generated_Source\PSoC5/PWM_3.c ****     *  None
 420:.\Generated_Source\PSoC5/PWM_3.c ****     *
 421:.\Generated_Source\PSoC5/PWM_3.c ****     * Return:
 422:.\Generated_Source\PSoC5/PWM_3.c ****     *  The current value of the counter.
 423:.\Generated_Source\PSoC5/PWM_3.c ****     *
 424:.\Generated_Source\PSoC5/PWM_3.c ****     *******************************************************************************/
 425:.\Generated_Source\PSoC5/PWM_3.c ****     uint16 PWM_3_ReadCounter(void) 
 426:.\Generated_Source\PSoC5/PWM_3.c ****     {
 294              		.loc 1 426 0
 295              		.cfi_startproc
 296              		@ args = 0, pretend = 0, frame = 0
 297              		@ frame_needed = 1, uses_anonymous_args = 0
 298              		@ link register save eliminated.
 299 0000 80B4     		push	{r7}
 300              		.cfi_def_cfa_offset 4
 301              		.cfi_offset 7, -4
 302 0002 00AF     		add	r7, sp, #0
 303              		.cfi_def_cfa_register 7
 427:.\Generated_Source\PSoC5/PWM_3.c ****         /* Force capture by reading Accumulator */
 428:.\Generated_Source\PSoC5/PWM_3.c ****         /* Must first do a software capture to be able to read the counter */
 429:.\Generated_Source\PSoC5/PWM_3.c ****         /* It is up to the user code to make sure there isn't already captured data in the FIFO */
 430:.\Generated_Source\PSoC5/PWM_3.c ****           (void)CY_GET_REG8(PWM_3_COUNTERCAP_LSB_PTR_8BIT);
 304              		.loc 1 430 0
 305 0004 044B     		ldr	r3, .L19
 306 0006 1B78     		ldrb	r3, [r3]
 431:.\Generated_Source\PSoC5/PWM_3.c **** 
 432:.\Generated_Source\PSoC5/PWM_3.c ****         /* Read the data from the FIFO */
 433:.\Generated_Source\PSoC5/PWM_3.c ****         return (CY_GET_REG16(PWM_3_CAPTURE_LSB_PTR));
 307              		.loc 1 433 0
 308 0008 044B     		ldr	r3, .L19+4
ARM GAS  C:\Users\Robert\AppData\Local\Temp\ccCF9Xjo.s 			page 14


 309 000a 1B88     		ldrh	r3, [r3]	@ movhi
 310 000c 9BB2     		uxth	r3, r3
 434:.\Generated_Source\PSoC5/PWM_3.c ****     }
 311              		.loc 1 434 0
 312 000e 1846     		mov	r0, r3
 313 0010 BD46     		mov	sp, r7
 314              		.cfi_def_cfa_register 13
 315              		@ sp needed
 316 0012 5DF8047B 		ldr	r7, [sp], #4
 317              		.cfi_restore 7
 318              		.cfi_def_cfa_offset 0
 319 0016 7047     		bx	lr
 320              	.L20:
 321              		.align	2
 322              	.L19:
 323 0018 1A650040 		.word	1073767706
 324 001c B46A0040 		.word	1073769140
 325              		.cfi_endproc
 326              	.LFE5:
 327              		.size	PWM_3_ReadCounter, .-PWM_3_ReadCounter
 328              		.section	.text.PWM_3_ClearFIFO,"ax",%progbits
 329              		.align	2
 330              		.global	PWM_3_ClearFIFO
 331              		.thumb
 332              		.thumb_func
 333              		.type	PWM_3_ClearFIFO, %function
 334              	PWM_3_ClearFIFO:
 335              	.LFB6:
 435:.\Generated_Source\PSoC5/PWM_3.c **** 
 436:.\Generated_Source\PSoC5/PWM_3.c ****     #if (PWM_3_UseStatus)
 437:.\Generated_Source\PSoC5/PWM_3.c **** 
 438:.\Generated_Source\PSoC5/PWM_3.c **** 
 439:.\Generated_Source\PSoC5/PWM_3.c ****         /*******************************************************************************
 440:.\Generated_Source\PSoC5/PWM_3.c ****         * Function Name: PWM_3_ClearFIFO
 441:.\Generated_Source\PSoC5/PWM_3.c ****         ********************************************************************************
 442:.\Generated_Source\PSoC5/PWM_3.c ****         *
 443:.\Generated_Source\PSoC5/PWM_3.c ****         * Summary:
 444:.\Generated_Source\PSoC5/PWM_3.c ****         *  This function clears all capture data from the capture FIFO
 445:.\Generated_Source\PSoC5/PWM_3.c ****         *
 446:.\Generated_Source\PSoC5/PWM_3.c ****         * Parameters:
 447:.\Generated_Source\PSoC5/PWM_3.c ****         *  None
 448:.\Generated_Source\PSoC5/PWM_3.c ****         *
 449:.\Generated_Source\PSoC5/PWM_3.c ****         * Return:
 450:.\Generated_Source\PSoC5/PWM_3.c ****         *  None
 451:.\Generated_Source\PSoC5/PWM_3.c ****         *
 452:.\Generated_Source\PSoC5/PWM_3.c ****         *******************************************************************************/
 453:.\Generated_Source\PSoC5/PWM_3.c ****         void PWM_3_ClearFIFO(void) 
 454:.\Generated_Source\PSoC5/PWM_3.c ****         {
 336              		.loc 1 454 0
 337              		.cfi_startproc
 338              		@ args = 0, pretend = 0, frame = 0
 339              		@ frame_needed = 1, uses_anonymous_args = 0
 340 0000 80B5     		push	{r7, lr}
 341              		.cfi_def_cfa_offset 8
 342              		.cfi_offset 7, -8
 343              		.cfi_offset 14, -4
 344 0002 00AF     		add	r7, sp, #0
ARM GAS  C:\Users\Robert\AppData\Local\Temp\ccCF9Xjo.s 			page 15


 345              		.cfi_def_cfa_register 7
 455:.\Generated_Source\PSoC5/PWM_3.c ****             while(0u != (PWM_3_ReadStatusRegister() & PWM_3_STATUS_FIFONEMPTY))
 346              		.loc 1 455 0
 347 0004 01E0     		b	.L22
 348              	.L23:
 456:.\Generated_Source\PSoC5/PWM_3.c ****             {
 457:.\Generated_Source\PSoC5/PWM_3.c ****                 (void)PWM_3_ReadCapture();
 349              		.loc 1 457 0
 350 0006 FFF7FEFF 		bl	PWM_3_ReadCapture
 351              	.L22:
 455:.\Generated_Source\PSoC5/PWM_3.c ****             while(0u != (PWM_3_ReadStatusRegister() & PWM_3_STATUS_FIFONEMPTY))
 352              		.loc 1 455 0
 353 000a FFF7FEFF 		bl	PWM_3_ReadStatusRegister
 354 000e 0346     		mov	r3, r0
 355 0010 03F01003 		and	r3, r3, #16
 356 0014 002B     		cmp	r3, #0
 357 0016 F6D1     		bne	.L23
 458:.\Generated_Source\PSoC5/PWM_3.c ****             }
 459:.\Generated_Source\PSoC5/PWM_3.c ****         }
 358              		.loc 1 459 0
 359 0018 80BD     		pop	{r7, pc}
 360              		.cfi_endproc
 361              	.LFE6:
 362              		.size	PWM_3_ClearFIFO, .-PWM_3_ClearFIFO
 363 001a 00BF     		.section	.text.PWM_3_WritePeriod,"ax",%progbits
 364              		.align	2
 365              		.global	PWM_3_WritePeriod
 366              		.thumb
 367              		.thumb_func
 368              		.type	PWM_3_WritePeriod, %function
 369              	PWM_3_WritePeriod:
 370              	.LFB7:
 460:.\Generated_Source\PSoC5/PWM_3.c **** 
 461:.\Generated_Source\PSoC5/PWM_3.c ****     #endif /* PWM_3_UseStatus */
 462:.\Generated_Source\PSoC5/PWM_3.c **** 
 463:.\Generated_Source\PSoC5/PWM_3.c **** #endif /* !PWM_3_UsingFixedFunction */
 464:.\Generated_Source\PSoC5/PWM_3.c **** 
 465:.\Generated_Source\PSoC5/PWM_3.c **** 
 466:.\Generated_Source\PSoC5/PWM_3.c **** /*******************************************************************************
 467:.\Generated_Source\PSoC5/PWM_3.c **** * Function Name: PWM_3_WritePeriod
 468:.\Generated_Source\PSoC5/PWM_3.c **** ********************************************************************************
 469:.\Generated_Source\PSoC5/PWM_3.c **** *
 470:.\Generated_Source\PSoC5/PWM_3.c **** * Summary:
 471:.\Generated_Source\PSoC5/PWM_3.c **** *  This function is used to change the period of the counter.  The new period
 472:.\Generated_Source\PSoC5/PWM_3.c **** *  will be loaded the next time terminal count is detected.
 473:.\Generated_Source\PSoC5/PWM_3.c **** *
 474:.\Generated_Source\PSoC5/PWM_3.c **** * Parameters:
 475:.\Generated_Source\PSoC5/PWM_3.c **** *  period:  Period value. May be between 1 and (2^Resolution)-1.  A value of 0
 476:.\Generated_Source\PSoC5/PWM_3.c **** *           will result in the counter remaining at zero.
 477:.\Generated_Source\PSoC5/PWM_3.c **** *
 478:.\Generated_Source\PSoC5/PWM_3.c **** * Return:
 479:.\Generated_Source\PSoC5/PWM_3.c **** *  None
 480:.\Generated_Source\PSoC5/PWM_3.c **** *
 481:.\Generated_Source\PSoC5/PWM_3.c **** *******************************************************************************/
 482:.\Generated_Source\PSoC5/PWM_3.c **** void PWM_3_WritePeriod(uint16 period) 
 483:.\Generated_Source\PSoC5/PWM_3.c **** {
 371              		.loc 1 483 0
ARM GAS  C:\Users\Robert\AppData\Local\Temp\ccCF9Xjo.s 			page 16


 372              		.cfi_startproc
 373              		@ args = 0, pretend = 0, frame = 8
 374              		@ frame_needed = 1, uses_anonymous_args = 0
 375              		@ link register save eliminated.
 376 0000 80B4     		push	{r7}
 377              		.cfi_def_cfa_offset 4
 378              		.cfi_offset 7, -4
 379 0002 83B0     		sub	sp, sp, #12
 380              		.cfi_def_cfa_offset 16
 381 0004 00AF     		add	r7, sp, #0
 382              		.cfi_def_cfa_register 7
 383 0006 0346     		mov	r3, r0
 384 0008 FB80     		strh	r3, [r7, #6]	@ movhi
 484:.\Generated_Source\PSoC5/PWM_3.c ****     #if(PWM_3_UsingFixedFunction)
 485:.\Generated_Source\PSoC5/PWM_3.c ****         CY_SET_REG16(PWM_3_PERIOD_LSB_PTR, (uint16)period);
 486:.\Generated_Source\PSoC5/PWM_3.c ****     #else
 487:.\Generated_Source\PSoC5/PWM_3.c ****         CY_SET_REG16(PWM_3_PERIOD_LSB_PTR, period);
 385              		.loc 1 487 0
 386 000a 044A     		ldr	r2, .L25
 387 000c FB88     		ldrh	r3, [r7, #6]	@ movhi
 388 000e 1380     		strh	r3, [r2]	@ movhi
 488:.\Generated_Source\PSoC5/PWM_3.c ****     #endif /* (PWM_3_UsingFixedFunction) */
 489:.\Generated_Source\PSoC5/PWM_3.c **** }
 389              		.loc 1 489 0
 390 0010 0C37     		adds	r7, r7, #12
 391              		.cfi_def_cfa_offset 4
 392 0012 BD46     		mov	sp, r7
 393              		.cfi_def_cfa_register 13
 394              		@ sp needed
 395 0014 5DF8047B 		ldr	r7, [sp], #4
 396              		.cfi_restore 7
 397              		.cfi_def_cfa_offset 0
 398 0018 7047     		bx	lr
 399              	.L26:
 400 001a 00BF     		.align	2
 401              	.L25:
 402 001c 946A0040 		.word	1073769108
 403              		.cfi_endproc
 404              	.LFE7:
 405              		.size	PWM_3_WritePeriod, .-PWM_3_WritePeriod
 406              		.section	.text.PWM_3_WriteCompare,"ax",%progbits
 407              		.align	2
 408              		.global	PWM_3_WriteCompare
 409              		.thumb
 410              		.thumb_func
 411              		.type	PWM_3_WriteCompare, %function
 412              	PWM_3_WriteCompare:
 413              	.LFB8:
 490:.\Generated_Source\PSoC5/PWM_3.c **** 
 491:.\Generated_Source\PSoC5/PWM_3.c **** #if (PWM_3_UseOneCompareMode)
 492:.\Generated_Source\PSoC5/PWM_3.c **** 
 493:.\Generated_Source\PSoC5/PWM_3.c **** 
 494:.\Generated_Source\PSoC5/PWM_3.c ****     /*******************************************************************************
 495:.\Generated_Source\PSoC5/PWM_3.c ****     * Function Name: PWM_3_WriteCompare
 496:.\Generated_Source\PSoC5/PWM_3.c ****     ********************************************************************************
 497:.\Generated_Source\PSoC5/PWM_3.c ****     *
 498:.\Generated_Source\PSoC5/PWM_3.c ****     * Summary:
ARM GAS  C:\Users\Robert\AppData\Local\Temp\ccCF9Xjo.s 			page 17


 499:.\Generated_Source\PSoC5/PWM_3.c ****     *  This funtion is used to change the compare1 value when the PWM is in Dither
 500:.\Generated_Source\PSoC5/PWM_3.c ****     *  mode. The compare output will reflect the new value on the next UDB clock.
 501:.\Generated_Source\PSoC5/PWM_3.c ****     *  The compare output will be driven high when the present counter value is
 502:.\Generated_Source\PSoC5/PWM_3.c ****     *  compared to the compare value based on the compare mode defined in
 503:.\Generated_Source\PSoC5/PWM_3.c ****     *  Dither Mode.
 504:.\Generated_Source\PSoC5/PWM_3.c ****     *
 505:.\Generated_Source\PSoC5/PWM_3.c ****     * Parameters:
 506:.\Generated_Source\PSoC5/PWM_3.c ****     *  compare:  New compare value.
 507:.\Generated_Source\PSoC5/PWM_3.c ****     *
 508:.\Generated_Source\PSoC5/PWM_3.c ****     * Return:
 509:.\Generated_Source\PSoC5/PWM_3.c ****     *  None
 510:.\Generated_Source\PSoC5/PWM_3.c ****     *
 511:.\Generated_Source\PSoC5/PWM_3.c ****     * Side Effects:
 512:.\Generated_Source\PSoC5/PWM_3.c ****     *  This function is only available if the PWM mode parameter is set to
 513:.\Generated_Source\PSoC5/PWM_3.c ****     *  Dither Mode, Center Aligned Mode or One Output Mode
 514:.\Generated_Source\PSoC5/PWM_3.c ****     *
 515:.\Generated_Source\PSoC5/PWM_3.c ****     *******************************************************************************/
 516:.\Generated_Source\PSoC5/PWM_3.c ****     void PWM_3_WriteCompare(uint16 compare) \
 517:.\Generated_Source\PSoC5/PWM_3.c ****                                        
 518:.\Generated_Source\PSoC5/PWM_3.c ****     {
 414              		.loc 1 518 0
 415              		.cfi_startproc
 416              		@ args = 0, pretend = 0, frame = 8
 417              		@ frame_needed = 1, uses_anonymous_args = 0
 418              		@ link register save eliminated.
 419 0000 80B4     		push	{r7}
 420              		.cfi_def_cfa_offset 4
 421              		.cfi_offset 7, -4
 422 0002 83B0     		sub	sp, sp, #12
 423              		.cfi_def_cfa_offset 16
 424 0004 00AF     		add	r7, sp, #0
 425              		.cfi_def_cfa_register 7
 426 0006 0346     		mov	r3, r0
 427 0008 FB80     		strh	r3, [r7, #6]	@ movhi
 519:.\Generated_Source\PSoC5/PWM_3.c ****         #if(PWM_3_UsingFixedFunction)
 520:.\Generated_Source\PSoC5/PWM_3.c ****             CY_SET_REG16(PWM_3_COMPARE1_LSB_PTR, (uint16)compare);
 521:.\Generated_Source\PSoC5/PWM_3.c ****         #else
 522:.\Generated_Source\PSoC5/PWM_3.c ****             CY_SET_REG16(PWM_3_COMPARE1_LSB_PTR, compare);
 428              		.loc 1 522 0
 429 000a 044A     		ldr	r2, .L28
 430 000c FB88     		ldrh	r3, [r7, #6]	@ movhi
 431 000e 1380     		strh	r3, [r2]	@ movhi
 523:.\Generated_Source\PSoC5/PWM_3.c ****         #endif /* (PWM_3_UsingFixedFunction) */
 524:.\Generated_Source\PSoC5/PWM_3.c **** 
 525:.\Generated_Source\PSoC5/PWM_3.c ****         #if (PWM_3_PWMMode == PWM_3__B_PWM__DITHER)
 526:.\Generated_Source\PSoC5/PWM_3.c ****             #if(PWM_3_UsingFixedFunction)
 527:.\Generated_Source\PSoC5/PWM_3.c ****                 CY_SET_REG16(PWM_3_COMPARE2_LSB_PTR, (uint16)(compare + 1u));
 528:.\Generated_Source\PSoC5/PWM_3.c ****             #else
 529:.\Generated_Source\PSoC5/PWM_3.c ****                 CY_SET_REG16(PWM_3_COMPARE2_LSB_PTR, (compare + 1u));
 530:.\Generated_Source\PSoC5/PWM_3.c ****             #endif /* (PWM_3_UsingFixedFunction) */
 531:.\Generated_Source\PSoC5/PWM_3.c ****         #endif /* (PWM_3_PWMMode == PWM_3__B_PWM__DITHER) */
 532:.\Generated_Source\PSoC5/PWM_3.c ****     }
 432              		.loc 1 532 0
 433 0010 0C37     		adds	r7, r7, #12
 434              		.cfi_def_cfa_offset 4
 435 0012 BD46     		mov	sp, r7
 436              		.cfi_def_cfa_register 13
ARM GAS  C:\Users\Robert\AppData\Local\Temp\ccCF9Xjo.s 			page 18


 437              		@ sp needed
 438 0014 5DF8047B 		ldr	r7, [sp], #4
 439              		.cfi_restore 7
 440              		.cfi_def_cfa_offset 0
 441 0018 7047     		bx	lr
 442              	.L29:
 443 001a 00BF     		.align	2
 444              	.L28:
 445 001c 546A0040 		.word	1073769044
 446              		.cfi_endproc
 447              	.LFE8:
 448              		.size	PWM_3_WriteCompare, .-PWM_3_WriteCompare
 449              		.section	.text.PWM_3_SetInterruptMode,"ax",%progbits
 450              		.align	2
 451              		.global	PWM_3_SetInterruptMode
 452              		.thumb
 453              		.thumb_func
 454              		.type	PWM_3_SetInterruptMode, %function
 455              	PWM_3_SetInterruptMode:
 456              	.LFB9:
 533:.\Generated_Source\PSoC5/PWM_3.c **** 
 534:.\Generated_Source\PSoC5/PWM_3.c **** 
 535:.\Generated_Source\PSoC5/PWM_3.c **** #else
 536:.\Generated_Source\PSoC5/PWM_3.c **** 
 537:.\Generated_Source\PSoC5/PWM_3.c **** 
 538:.\Generated_Source\PSoC5/PWM_3.c ****     /*******************************************************************************
 539:.\Generated_Source\PSoC5/PWM_3.c ****     * Function Name: PWM_3_WriteCompare1
 540:.\Generated_Source\PSoC5/PWM_3.c ****     ********************************************************************************
 541:.\Generated_Source\PSoC5/PWM_3.c ****     *
 542:.\Generated_Source\PSoC5/PWM_3.c ****     * Summary:
 543:.\Generated_Source\PSoC5/PWM_3.c ****     *  This funtion is used to change the compare1 value.  The compare output will
 544:.\Generated_Source\PSoC5/PWM_3.c ****     *  reflect the new value on the next UDB clock.  The compare output will be
 545:.\Generated_Source\PSoC5/PWM_3.c ****     *  driven high when the present counter value is less than or less than or
 546:.\Generated_Source\PSoC5/PWM_3.c ****     *  equal to the compare register, depending on the mode.
 547:.\Generated_Source\PSoC5/PWM_3.c ****     *
 548:.\Generated_Source\PSoC5/PWM_3.c ****     * Parameters:
 549:.\Generated_Source\PSoC5/PWM_3.c ****     *  compare:  New compare value.
 550:.\Generated_Source\PSoC5/PWM_3.c ****     *
 551:.\Generated_Source\PSoC5/PWM_3.c ****     * Return:
 552:.\Generated_Source\PSoC5/PWM_3.c ****     *  None
 553:.\Generated_Source\PSoC5/PWM_3.c ****     *
 554:.\Generated_Source\PSoC5/PWM_3.c ****     *******************************************************************************/
 555:.\Generated_Source\PSoC5/PWM_3.c ****     void PWM_3_WriteCompare1(uint16 compare) \
 556:.\Generated_Source\PSoC5/PWM_3.c ****                                         
 557:.\Generated_Source\PSoC5/PWM_3.c ****     {
 558:.\Generated_Source\PSoC5/PWM_3.c ****         #if(PWM_3_UsingFixedFunction)
 559:.\Generated_Source\PSoC5/PWM_3.c ****             CY_SET_REG16(PWM_3_COMPARE1_LSB_PTR, (uint16)compare);
 560:.\Generated_Source\PSoC5/PWM_3.c ****         #else
 561:.\Generated_Source\PSoC5/PWM_3.c ****             CY_SET_REG16(PWM_3_COMPARE1_LSB_PTR, compare);
 562:.\Generated_Source\PSoC5/PWM_3.c ****         #endif /* (PWM_3_UsingFixedFunction) */
 563:.\Generated_Source\PSoC5/PWM_3.c ****     }
 564:.\Generated_Source\PSoC5/PWM_3.c **** 
 565:.\Generated_Source\PSoC5/PWM_3.c **** 
 566:.\Generated_Source\PSoC5/PWM_3.c ****     /*******************************************************************************
 567:.\Generated_Source\PSoC5/PWM_3.c ****     * Function Name: PWM_3_WriteCompare2
 568:.\Generated_Source\PSoC5/PWM_3.c ****     ********************************************************************************
 569:.\Generated_Source\PSoC5/PWM_3.c ****     *
ARM GAS  C:\Users\Robert\AppData\Local\Temp\ccCF9Xjo.s 			page 19


 570:.\Generated_Source\PSoC5/PWM_3.c ****     * Summary:
 571:.\Generated_Source\PSoC5/PWM_3.c ****     *  This funtion is used to change the compare value, for compare1 output.
 572:.\Generated_Source\PSoC5/PWM_3.c ****     *  The compare output will reflect the new value on the next UDB clock.
 573:.\Generated_Source\PSoC5/PWM_3.c ****     *  The compare output will be driven high when the present counter value is
 574:.\Generated_Source\PSoC5/PWM_3.c ****     *  less than or less than or equal to the compare register, depending on the
 575:.\Generated_Source\PSoC5/PWM_3.c ****     *  mode.
 576:.\Generated_Source\PSoC5/PWM_3.c ****     *
 577:.\Generated_Source\PSoC5/PWM_3.c ****     * Parameters:
 578:.\Generated_Source\PSoC5/PWM_3.c ****     *  compare:  New compare value.
 579:.\Generated_Source\PSoC5/PWM_3.c ****     *
 580:.\Generated_Source\PSoC5/PWM_3.c ****     * Return:
 581:.\Generated_Source\PSoC5/PWM_3.c ****     *  None
 582:.\Generated_Source\PSoC5/PWM_3.c ****     *
 583:.\Generated_Source\PSoC5/PWM_3.c ****     *******************************************************************************/
 584:.\Generated_Source\PSoC5/PWM_3.c ****     void PWM_3_WriteCompare2(uint16 compare) \
 585:.\Generated_Source\PSoC5/PWM_3.c ****                                         
 586:.\Generated_Source\PSoC5/PWM_3.c ****     {
 587:.\Generated_Source\PSoC5/PWM_3.c ****         #if(PWM_3_UsingFixedFunction)
 588:.\Generated_Source\PSoC5/PWM_3.c ****             CY_SET_REG16(PWM_3_COMPARE2_LSB_PTR, compare);
 589:.\Generated_Source\PSoC5/PWM_3.c ****         #else
 590:.\Generated_Source\PSoC5/PWM_3.c ****             CY_SET_REG16(PWM_3_COMPARE2_LSB_PTR, compare);
 591:.\Generated_Source\PSoC5/PWM_3.c ****         #endif /* (PWM_3_UsingFixedFunction) */
 592:.\Generated_Source\PSoC5/PWM_3.c ****     }
 593:.\Generated_Source\PSoC5/PWM_3.c **** #endif /* UseOneCompareMode */
 594:.\Generated_Source\PSoC5/PWM_3.c **** 
 595:.\Generated_Source\PSoC5/PWM_3.c **** #if (PWM_3_DeadBandUsed)
 596:.\Generated_Source\PSoC5/PWM_3.c **** 
 597:.\Generated_Source\PSoC5/PWM_3.c **** 
 598:.\Generated_Source\PSoC5/PWM_3.c ****     /*******************************************************************************
 599:.\Generated_Source\PSoC5/PWM_3.c ****     * Function Name: PWM_3_WriteDeadTime
 600:.\Generated_Source\PSoC5/PWM_3.c ****     ********************************************************************************
 601:.\Generated_Source\PSoC5/PWM_3.c ****     *
 602:.\Generated_Source\PSoC5/PWM_3.c ****     * Summary:
 603:.\Generated_Source\PSoC5/PWM_3.c ****     *  This function writes the dead-band counts to the corresponding register
 604:.\Generated_Source\PSoC5/PWM_3.c ****     *
 605:.\Generated_Source\PSoC5/PWM_3.c ****     * Parameters:
 606:.\Generated_Source\PSoC5/PWM_3.c ****     *  deadtime:  Number of counts for dead time
 607:.\Generated_Source\PSoC5/PWM_3.c ****     *
 608:.\Generated_Source\PSoC5/PWM_3.c ****     * Return:
 609:.\Generated_Source\PSoC5/PWM_3.c ****     *  None
 610:.\Generated_Source\PSoC5/PWM_3.c ****     *
 611:.\Generated_Source\PSoC5/PWM_3.c ****     *******************************************************************************/
 612:.\Generated_Source\PSoC5/PWM_3.c ****     void PWM_3_WriteDeadTime(uint8 deadtime) 
 613:.\Generated_Source\PSoC5/PWM_3.c ****     {
 614:.\Generated_Source\PSoC5/PWM_3.c ****         /* If using the Dead Band 1-255 mode then just write the register */
 615:.\Generated_Source\PSoC5/PWM_3.c ****         #if(!PWM_3_DeadBand2_4)
 616:.\Generated_Source\PSoC5/PWM_3.c ****             CY_SET_REG8(PWM_3_DEADBAND_COUNT_PTR, deadtime);
 617:.\Generated_Source\PSoC5/PWM_3.c ****         #else
 618:.\Generated_Source\PSoC5/PWM_3.c ****             /* Otherwise the data has to be masked and offset */
 619:.\Generated_Source\PSoC5/PWM_3.c ****             /* Clear existing data */
 620:.\Generated_Source\PSoC5/PWM_3.c ****             PWM_3_DEADBAND_COUNT &= ((uint8)(~PWM_3_DEADBAND_COUNT_MASK));
 621:.\Generated_Source\PSoC5/PWM_3.c **** 
 622:.\Generated_Source\PSoC5/PWM_3.c ****             /* Set new dead time */
 623:.\Generated_Source\PSoC5/PWM_3.c ****             #if(PWM_3_DEADBAND_COUNT_SHIFT)
 624:.\Generated_Source\PSoC5/PWM_3.c ****                 PWM_3_DEADBAND_COUNT |= ((uint8)((uint8)deadtime << PWM_3_DEADBAND_COUNT_SHIFT)) &
 625:.\Generated_Source\PSoC5/PWM_3.c ****                                                     PWM_3_DEADBAND_COUNT_MASK;
 626:.\Generated_Source\PSoC5/PWM_3.c ****             #else
ARM GAS  C:\Users\Robert\AppData\Local\Temp\ccCF9Xjo.s 			page 20


 627:.\Generated_Source\PSoC5/PWM_3.c ****                 PWM_3_DEADBAND_COUNT |= deadtime & PWM_3_DEADBAND_COUNT_MASK;
 628:.\Generated_Source\PSoC5/PWM_3.c ****             #endif /* (PWM_3_DEADBAND_COUNT_SHIFT) */
 629:.\Generated_Source\PSoC5/PWM_3.c **** 
 630:.\Generated_Source\PSoC5/PWM_3.c ****         #endif /* (!PWM_3_DeadBand2_4) */
 631:.\Generated_Source\PSoC5/PWM_3.c ****     }
 632:.\Generated_Source\PSoC5/PWM_3.c **** 
 633:.\Generated_Source\PSoC5/PWM_3.c **** 
 634:.\Generated_Source\PSoC5/PWM_3.c ****     /*******************************************************************************
 635:.\Generated_Source\PSoC5/PWM_3.c ****     * Function Name: PWM_3_ReadDeadTime
 636:.\Generated_Source\PSoC5/PWM_3.c ****     ********************************************************************************
 637:.\Generated_Source\PSoC5/PWM_3.c ****     *
 638:.\Generated_Source\PSoC5/PWM_3.c ****     * Summary:
 639:.\Generated_Source\PSoC5/PWM_3.c ****     *  This function reads the dead-band counts from the corresponding register
 640:.\Generated_Source\PSoC5/PWM_3.c ****     *
 641:.\Generated_Source\PSoC5/PWM_3.c ****     * Parameters:
 642:.\Generated_Source\PSoC5/PWM_3.c ****     *  None
 643:.\Generated_Source\PSoC5/PWM_3.c ****     *
 644:.\Generated_Source\PSoC5/PWM_3.c ****     * Return:
 645:.\Generated_Source\PSoC5/PWM_3.c ****     *  Dead Band Counts
 646:.\Generated_Source\PSoC5/PWM_3.c ****     *
 647:.\Generated_Source\PSoC5/PWM_3.c ****     *******************************************************************************/
 648:.\Generated_Source\PSoC5/PWM_3.c ****     uint8 PWM_3_ReadDeadTime(void) 
 649:.\Generated_Source\PSoC5/PWM_3.c ****     {
 650:.\Generated_Source\PSoC5/PWM_3.c ****         /* If using the Dead Band 1-255 mode then just read the register */
 651:.\Generated_Source\PSoC5/PWM_3.c ****         #if(!PWM_3_DeadBand2_4)
 652:.\Generated_Source\PSoC5/PWM_3.c ****             return (CY_GET_REG8(PWM_3_DEADBAND_COUNT_PTR));
 653:.\Generated_Source\PSoC5/PWM_3.c ****         #else
 654:.\Generated_Source\PSoC5/PWM_3.c **** 
 655:.\Generated_Source\PSoC5/PWM_3.c ****             /* Otherwise the data has to be masked and offset */
 656:.\Generated_Source\PSoC5/PWM_3.c ****             #if(PWM_3_DEADBAND_COUNT_SHIFT)
 657:.\Generated_Source\PSoC5/PWM_3.c ****                 return ((uint8)(((uint8)(PWM_3_DEADBAND_COUNT & PWM_3_DEADBAND_COUNT_MASK)) >>
 658:.\Generated_Source\PSoC5/PWM_3.c ****                                                                            PWM_3_DEADBAND_COUNT_SHI
 659:.\Generated_Source\PSoC5/PWM_3.c ****             #else
 660:.\Generated_Source\PSoC5/PWM_3.c ****                 return (PWM_3_DEADBAND_COUNT & PWM_3_DEADBAND_COUNT_MASK);
 661:.\Generated_Source\PSoC5/PWM_3.c ****             #endif /* (PWM_3_DEADBAND_COUNT_SHIFT) */
 662:.\Generated_Source\PSoC5/PWM_3.c ****         #endif /* (!PWM_3_DeadBand2_4) */
 663:.\Generated_Source\PSoC5/PWM_3.c ****     }
 664:.\Generated_Source\PSoC5/PWM_3.c **** #endif /* DeadBandUsed */
 665:.\Generated_Source\PSoC5/PWM_3.c **** 
 666:.\Generated_Source\PSoC5/PWM_3.c **** #if (PWM_3_UseStatus || PWM_3_UsingFixedFunction)
 667:.\Generated_Source\PSoC5/PWM_3.c **** 
 668:.\Generated_Source\PSoC5/PWM_3.c **** 
 669:.\Generated_Source\PSoC5/PWM_3.c ****     /*******************************************************************************
 670:.\Generated_Source\PSoC5/PWM_3.c ****     * Function Name: PWM_3_SetInterruptMode
 671:.\Generated_Source\PSoC5/PWM_3.c ****     ********************************************************************************
 672:.\Generated_Source\PSoC5/PWM_3.c ****     *
 673:.\Generated_Source\PSoC5/PWM_3.c ****     * Summary:
 674:.\Generated_Source\PSoC5/PWM_3.c ****     *  This function configures the interrupts mask control of theinterrupt
 675:.\Generated_Source\PSoC5/PWM_3.c ****     *  source status register.
 676:.\Generated_Source\PSoC5/PWM_3.c ****     *
 677:.\Generated_Source\PSoC5/PWM_3.c ****     * Parameters:
 678:.\Generated_Source\PSoC5/PWM_3.c ****     *  uint8 interruptMode: Bit field containing the interrupt sources enabled
 679:.\Generated_Source\PSoC5/PWM_3.c ****     *
 680:.\Generated_Source\PSoC5/PWM_3.c ****     * Return:
 681:.\Generated_Source\PSoC5/PWM_3.c ****     *  None
 682:.\Generated_Source\PSoC5/PWM_3.c ****     *
 683:.\Generated_Source\PSoC5/PWM_3.c ****     *******************************************************************************/
ARM GAS  C:\Users\Robert\AppData\Local\Temp\ccCF9Xjo.s 			page 21


 684:.\Generated_Source\PSoC5/PWM_3.c ****     void PWM_3_SetInterruptMode(uint8 interruptMode) 
 685:.\Generated_Source\PSoC5/PWM_3.c ****     {
 457              		.loc 1 685 0
 458              		.cfi_startproc
 459              		@ args = 0, pretend = 0, frame = 8
 460              		@ frame_needed = 1, uses_anonymous_args = 0
 461              		@ link register save eliminated.
 462 0000 80B4     		push	{r7}
 463              		.cfi_def_cfa_offset 4
 464              		.cfi_offset 7, -4
 465 0002 83B0     		sub	sp, sp, #12
 466              		.cfi_def_cfa_offset 16
 467 0004 00AF     		add	r7, sp, #0
 468              		.cfi_def_cfa_register 7
 469 0006 0346     		mov	r3, r0
 470 0008 FB71     		strb	r3, [r7, #7]
 686:.\Generated_Source\PSoC5/PWM_3.c ****         CY_SET_REG8(PWM_3_STATUS_MASK_PTR, interruptMode);
 471              		.loc 1 686 0
 472 000a 044A     		ldr	r2, .L31
 473 000c FB79     		ldrb	r3, [r7, #7]
 474 000e 1370     		strb	r3, [r2]
 687:.\Generated_Source\PSoC5/PWM_3.c ****     }
 475              		.loc 1 687 0
 476 0010 0C37     		adds	r7, r7, #12
 477              		.cfi_def_cfa_offset 4
 478 0012 BD46     		mov	sp, r7
 479              		.cfi_def_cfa_register 13
 480              		@ sp needed
 481 0014 5DF8047B 		ldr	r7, [sp], #4
 482              		.cfi_restore 7
 483              		.cfi_def_cfa_offset 0
 484 0018 7047     		bx	lr
 485              	.L32:
 486 001a 00BF     		.align	2
 487              	.L31:
 488 001c 89650040 		.word	1073767817
 489              		.cfi_endproc
 490              	.LFE9:
 491              		.size	PWM_3_SetInterruptMode, .-PWM_3_SetInterruptMode
 492              		.section	.text.PWM_3_ReadStatusRegister,"ax",%progbits
 493              		.align	2
 494              		.global	PWM_3_ReadStatusRegister
 495              		.thumb
 496              		.thumb_func
 497              		.type	PWM_3_ReadStatusRegister, %function
 498              	PWM_3_ReadStatusRegister:
 499              	.LFB10:
 688:.\Generated_Source\PSoC5/PWM_3.c **** 
 689:.\Generated_Source\PSoC5/PWM_3.c **** 
 690:.\Generated_Source\PSoC5/PWM_3.c ****     /*******************************************************************************
 691:.\Generated_Source\PSoC5/PWM_3.c ****     * Function Name: PWM_3_ReadStatusRegister
 692:.\Generated_Source\PSoC5/PWM_3.c ****     ********************************************************************************
 693:.\Generated_Source\PSoC5/PWM_3.c ****     *
 694:.\Generated_Source\PSoC5/PWM_3.c ****     * Summary:
 695:.\Generated_Source\PSoC5/PWM_3.c ****     *  This function returns the current state of the status register.
 696:.\Generated_Source\PSoC5/PWM_3.c ****     *
 697:.\Generated_Source\PSoC5/PWM_3.c ****     * Parameters:
ARM GAS  C:\Users\Robert\AppData\Local\Temp\ccCF9Xjo.s 			page 22


 698:.\Generated_Source\PSoC5/PWM_3.c ****     *  None
 699:.\Generated_Source\PSoC5/PWM_3.c ****     *
 700:.\Generated_Source\PSoC5/PWM_3.c ****     * Return:
 701:.\Generated_Source\PSoC5/PWM_3.c ****     *  uint8 : Current status register value. The status register bits are:
 702:.\Generated_Source\PSoC5/PWM_3.c ****     *  [7:6] : Unused(0)
 703:.\Generated_Source\PSoC5/PWM_3.c ****     *  [5]   : Kill event output
 704:.\Generated_Source\PSoC5/PWM_3.c ****     *  [4]   : FIFO not empty
 705:.\Generated_Source\PSoC5/PWM_3.c ****     *  [3]   : FIFO full
 706:.\Generated_Source\PSoC5/PWM_3.c ****     *  [2]   : Terminal count
 707:.\Generated_Source\PSoC5/PWM_3.c ****     *  [1]   : Compare output 2
 708:.\Generated_Source\PSoC5/PWM_3.c ****     *  [0]   : Compare output 1
 709:.\Generated_Source\PSoC5/PWM_3.c ****     *
 710:.\Generated_Source\PSoC5/PWM_3.c ****     *******************************************************************************/
 711:.\Generated_Source\PSoC5/PWM_3.c ****     uint8 PWM_3_ReadStatusRegister(void) 
 712:.\Generated_Source\PSoC5/PWM_3.c ****     {
 500              		.loc 1 712 0
 501              		.cfi_startproc
 502              		@ args = 0, pretend = 0, frame = 0
 503              		@ frame_needed = 1, uses_anonymous_args = 0
 504              		@ link register save eliminated.
 505 0000 80B4     		push	{r7}
 506              		.cfi_def_cfa_offset 4
 507              		.cfi_offset 7, -4
 508 0002 00AF     		add	r7, sp, #0
 509              		.cfi_def_cfa_register 7
 713:.\Generated_Source\PSoC5/PWM_3.c ****         return (CY_GET_REG8(PWM_3_STATUS_PTR));
 510              		.loc 1 713 0
 511 0004 034B     		ldr	r3, .L35
 512 0006 1B78     		ldrb	r3, [r3]
 513 0008 DBB2     		uxtb	r3, r3
 714:.\Generated_Source\PSoC5/PWM_3.c ****     }
 514              		.loc 1 714 0
 515 000a 1846     		mov	r0, r3
 516 000c BD46     		mov	sp, r7
 517              		.cfi_def_cfa_register 13
 518              		@ sp needed
 519 000e 5DF8047B 		ldr	r7, [sp], #4
 520              		.cfi_restore 7
 521              		.cfi_def_cfa_offset 0
 522 0012 7047     		bx	lr
 523              	.L36:
 524              		.align	2
 525              	.L35:
 526 0014 69650040 		.word	1073767785
 527              		.cfi_endproc
 528              	.LFE10:
 529              		.size	PWM_3_ReadStatusRegister, .-PWM_3_ReadStatusRegister
 530              		.section	.text.PWM_3_ReadControlRegister,"ax",%progbits
 531              		.align	2
 532              		.global	PWM_3_ReadControlRegister
 533              		.thumb
 534              		.thumb_func
 535              		.type	PWM_3_ReadControlRegister, %function
 536              	PWM_3_ReadControlRegister:
 537              	.LFB11:
 715:.\Generated_Source\PSoC5/PWM_3.c **** 
 716:.\Generated_Source\PSoC5/PWM_3.c **** #endif /* (PWM_3_UseStatus || PWM_3_UsingFixedFunction) */
ARM GAS  C:\Users\Robert\AppData\Local\Temp\ccCF9Xjo.s 			page 23


 717:.\Generated_Source\PSoC5/PWM_3.c **** 
 718:.\Generated_Source\PSoC5/PWM_3.c **** 
 719:.\Generated_Source\PSoC5/PWM_3.c **** #if (PWM_3_UseControl)
 720:.\Generated_Source\PSoC5/PWM_3.c **** 
 721:.\Generated_Source\PSoC5/PWM_3.c **** 
 722:.\Generated_Source\PSoC5/PWM_3.c ****     /*******************************************************************************
 723:.\Generated_Source\PSoC5/PWM_3.c ****     * Function Name: PWM_3_ReadControlRegister
 724:.\Generated_Source\PSoC5/PWM_3.c ****     ********************************************************************************
 725:.\Generated_Source\PSoC5/PWM_3.c ****     *
 726:.\Generated_Source\PSoC5/PWM_3.c ****     * Summary:
 727:.\Generated_Source\PSoC5/PWM_3.c ****     *  Returns the current state of the control register. This API is available
 728:.\Generated_Source\PSoC5/PWM_3.c ****     *  only if the control register is not removed.
 729:.\Generated_Source\PSoC5/PWM_3.c ****     *
 730:.\Generated_Source\PSoC5/PWM_3.c ****     * Parameters:
 731:.\Generated_Source\PSoC5/PWM_3.c ****     *  None
 732:.\Generated_Source\PSoC5/PWM_3.c ****     *
 733:.\Generated_Source\PSoC5/PWM_3.c ****     * Return:
 734:.\Generated_Source\PSoC5/PWM_3.c ****     *  uint8 : Current control register value
 735:.\Generated_Source\PSoC5/PWM_3.c ****     *
 736:.\Generated_Source\PSoC5/PWM_3.c ****     *******************************************************************************/
 737:.\Generated_Source\PSoC5/PWM_3.c ****     uint8 PWM_3_ReadControlRegister(void) 
 738:.\Generated_Source\PSoC5/PWM_3.c ****     {
 538              		.loc 1 738 0
 539              		.cfi_startproc
 540              		@ args = 0, pretend = 0, frame = 8
 541              		@ frame_needed = 1, uses_anonymous_args = 0
 542              		@ link register save eliminated.
 543 0000 80B4     		push	{r7}
 544              		.cfi_def_cfa_offset 4
 545              		.cfi_offset 7, -4
 546 0002 83B0     		sub	sp, sp, #12
 547              		.cfi_def_cfa_offset 16
 548 0004 00AF     		add	r7, sp, #0
 549              		.cfi_def_cfa_register 7
 739:.\Generated_Source\PSoC5/PWM_3.c ****         uint8 result;
 740:.\Generated_Source\PSoC5/PWM_3.c **** 
 741:.\Generated_Source\PSoC5/PWM_3.c ****         result = CY_GET_REG8(PWM_3_CONTROL_PTR);
 550              		.loc 1 741 0
 551 0006 054B     		ldr	r3, .L39
 552 0008 1B78     		ldrb	r3, [r3]
 553 000a FB71     		strb	r3, [r7, #7]
 742:.\Generated_Source\PSoC5/PWM_3.c ****         return (result);
 554              		.loc 1 742 0
 555 000c FB79     		ldrb	r3, [r7, #7]	@ zero_extendqisi2
 743:.\Generated_Source\PSoC5/PWM_3.c ****     }
 556              		.loc 1 743 0
 557 000e 1846     		mov	r0, r3
 558 0010 0C37     		adds	r7, r7, #12
 559              		.cfi_def_cfa_offset 4
 560 0012 BD46     		mov	sp, r7
 561              		.cfi_def_cfa_register 13
 562              		@ sp needed
 563 0014 5DF8047B 		ldr	r7, [sp], #4
 564              		.cfi_restore 7
 565              		.cfi_def_cfa_offset 0
 566 0018 7047     		bx	lr
 567              	.L40:
ARM GAS  C:\Users\Robert\AppData\Local\Temp\ccCF9Xjo.s 			page 24


 568 001a 00BF     		.align	2
 569              	.L39:
 570 001c 79650040 		.word	1073767801
 571              		.cfi_endproc
 572              	.LFE11:
 573              		.size	PWM_3_ReadControlRegister, .-PWM_3_ReadControlRegister
 574              		.section	.text.PWM_3_WriteControlRegister,"ax",%progbits
 575              		.align	2
 576              		.global	PWM_3_WriteControlRegister
 577              		.thumb
 578              		.thumb_func
 579              		.type	PWM_3_WriteControlRegister, %function
 580              	PWM_3_WriteControlRegister:
 581              	.LFB12:
 744:.\Generated_Source\PSoC5/PWM_3.c **** 
 745:.\Generated_Source\PSoC5/PWM_3.c **** 
 746:.\Generated_Source\PSoC5/PWM_3.c ****     /*******************************************************************************
 747:.\Generated_Source\PSoC5/PWM_3.c ****     * Function Name: PWM_3_WriteControlRegister
 748:.\Generated_Source\PSoC5/PWM_3.c ****     ********************************************************************************
 749:.\Generated_Source\PSoC5/PWM_3.c ****     *
 750:.\Generated_Source\PSoC5/PWM_3.c ****     * Summary:
 751:.\Generated_Source\PSoC5/PWM_3.c ****     *  Sets the bit field of the control register. This API is available only if
 752:.\Generated_Source\PSoC5/PWM_3.c ****     *  the control register is not removed.
 753:.\Generated_Source\PSoC5/PWM_3.c ****     *
 754:.\Generated_Source\PSoC5/PWM_3.c ****     * Parameters:
 755:.\Generated_Source\PSoC5/PWM_3.c ****     *  uint8 control: Control register bit field, The status register bits are:
 756:.\Generated_Source\PSoC5/PWM_3.c ****     *  [7]   : PWM Enable
 757:.\Generated_Source\PSoC5/PWM_3.c ****     *  [6]   : Reset
 758:.\Generated_Source\PSoC5/PWM_3.c ****     *  [5:3] : Compare Mode2
 759:.\Generated_Source\PSoC5/PWM_3.c ****     *  [2:0] : Compare Mode2
 760:.\Generated_Source\PSoC5/PWM_3.c ****     *
 761:.\Generated_Source\PSoC5/PWM_3.c ****     * Return:
 762:.\Generated_Source\PSoC5/PWM_3.c ****     *  None
 763:.\Generated_Source\PSoC5/PWM_3.c ****     *
 764:.\Generated_Source\PSoC5/PWM_3.c ****     *******************************************************************************/
 765:.\Generated_Source\PSoC5/PWM_3.c ****     void PWM_3_WriteControlRegister(uint8 control) 
 766:.\Generated_Source\PSoC5/PWM_3.c ****     {
 582              		.loc 1 766 0
 583              		.cfi_startproc
 584              		@ args = 0, pretend = 0, frame = 8
 585              		@ frame_needed = 1, uses_anonymous_args = 0
 586              		@ link register save eliminated.
 587 0000 80B4     		push	{r7}
 588              		.cfi_def_cfa_offset 4
 589              		.cfi_offset 7, -4
 590 0002 83B0     		sub	sp, sp, #12
 591              		.cfi_def_cfa_offset 16
 592 0004 00AF     		add	r7, sp, #0
 593              		.cfi_def_cfa_register 7
 594 0006 0346     		mov	r3, r0
 595 0008 FB71     		strb	r3, [r7, #7]
 767:.\Generated_Source\PSoC5/PWM_3.c ****         CY_SET_REG8(PWM_3_CONTROL_PTR, control);
 596              		.loc 1 767 0
 597 000a 044A     		ldr	r2, .L42
 598 000c FB79     		ldrb	r3, [r7, #7]
 599 000e 1370     		strb	r3, [r2]
 768:.\Generated_Source\PSoC5/PWM_3.c ****     }
ARM GAS  C:\Users\Robert\AppData\Local\Temp\ccCF9Xjo.s 			page 25


 600              		.loc 1 768 0
 601 0010 0C37     		adds	r7, r7, #12
 602              		.cfi_def_cfa_offset 4
 603 0012 BD46     		mov	sp, r7
 604              		.cfi_def_cfa_register 13
 605              		@ sp needed
 606 0014 5DF8047B 		ldr	r7, [sp], #4
 607              		.cfi_restore 7
 608              		.cfi_def_cfa_offset 0
 609 0018 7047     		bx	lr
 610              	.L43:
 611 001a 00BF     		.align	2
 612              	.L42:
 613 001c 79650040 		.word	1073767801
 614              		.cfi_endproc
 615              	.LFE12:
 616              		.size	PWM_3_WriteControlRegister, .-PWM_3_WriteControlRegister
 617              		.section	.text.PWM_3_ReadCapture,"ax",%progbits
 618              		.align	2
 619              		.global	PWM_3_ReadCapture
 620              		.thumb
 621              		.thumb_func
 622              		.type	PWM_3_ReadCapture, %function
 623              	PWM_3_ReadCapture:
 624              	.LFB13:
 769:.\Generated_Source\PSoC5/PWM_3.c **** 
 770:.\Generated_Source\PSoC5/PWM_3.c **** #endif /* (PWM_3_UseControl) */
 771:.\Generated_Source\PSoC5/PWM_3.c **** 
 772:.\Generated_Source\PSoC5/PWM_3.c **** 
 773:.\Generated_Source\PSoC5/PWM_3.c **** #if (!PWM_3_UsingFixedFunction)
 774:.\Generated_Source\PSoC5/PWM_3.c **** 
 775:.\Generated_Source\PSoC5/PWM_3.c **** 
 776:.\Generated_Source\PSoC5/PWM_3.c ****     /*******************************************************************************
 777:.\Generated_Source\PSoC5/PWM_3.c ****     * Function Name: PWM_3_ReadCapture
 778:.\Generated_Source\PSoC5/PWM_3.c ****     ********************************************************************************
 779:.\Generated_Source\PSoC5/PWM_3.c ****     *
 780:.\Generated_Source\PSoC5/PWM_3.c ****     * Summary:
 781:.\Generated_Source\PSoC5/PWM_3.c ****     *  Reads the capture value from the capture FIFO.
 782:.\Generated_Source\PSoC5/PWM_3.c ****     *
 783:.\Generated_Source\PSoC5/PWM_3.c ****     * Parameters:
 784:.\Generated_Source\PSoC5/PWM_3.c ****     *  None
 785:.\Generated_Source\PSoC5/PWM_3.c ****     *
 786:.\Generated_Source\PSoC5/PWM_3.c ****     * Return:
 787:.\Generated_Source\PSoC5/PWM_3.c ****     *  uint8/uint16: The current capture value
 788:.\Generated_Source\PSoC5/PWM_3.c ****     *
 789:.\Generated_Source\PSoC5/PWM_3.c ****     *******************************************************************************/
 790:.\Generated_Source\PSoC5/PWM_3.c ****     uint16 PWM_3_ReadCapture(void) 
 791:.\Generated_Source\PSoC5/PWM_3.c ****     {
 625              		.loc 1 791 0
 626              		.cfi_startproc
 627              		@ args = 0, pretend = 0, frame = 0
 628              		@ frame_needed = 1, uses_anonymous_args = 0
 629              		@ link register save eliminated.
 630 0000 80B4     		push	{r7}
 631              		.cfi_def_cfa_offset 4
 632              		.cfi_offset 7, -4
 633 0002 00AF     		add	r7, sp, #0
ARM GAS  C:\Users\Robert\AppData\Local\Temp\ccCF9Xjo.s 			page 26


 634              		.cfi_def_cfa_register 7
 792:.\Generated_Source\PSoC5/PWM_3.c ****         return (CY_GET_REG16(PWM_3_CAPTURE_LSB_PTR));
 635              		.loc 1 792 0
 636 0004 034B     		ldr	r3, .L46
 637 0006 1B88     		ldrh	r3, [r3]	@ movhi
 638 0008 9BB2     		uxth	r3, r3
 793:.\Generated_Source\PSoC5/PWM_3.c ****     }
 639              		.loc 1 793 0
 640 000a 1846     		mov	r0, r3
 641 000c BD46     		mov	sp, r7
 642              		.cfi_def_cfa_register 13
 643              		@ sp needed
 644 000e 5DF8047B 		ldr	r7, [sp], #4
 645              		.cfi_restore 7
 646              		.cfi_def_cfa_offset 0
 647 0012 7047     		bx	lr
 648              	.L47:
 649              		.align	2
 650              	.L46:
 651 0014 B46A0040 		.word	1073769140
 652              		.cfi_endproc
 653              	.LFE13:
 654              		.size	PWM_3_ReadCapture, .-PWM_3_ReadCapture
 655              		.section	.text.PWM_3_ReadCompare,"ax",%progbits
 656              		.align	2
 657              		.global	PWM_3_ReadCompare
 658              		.thumb
 659              		.thumb_func
 660              		.type	PWM_3_ReadCompare, %function
 661              	PWM_3_ReadCompare:
 662              	.LFB14:
 794:.\Generated_Source\PSoC5/PWM_3.c **** 
 795:.\Generated_Source\PSoC5/PWM_3.c **** #endif /* (!PWM_3_UsingFixedFunction) */
 796:.\Generated_Source\PSoC5/PWM_3.c **** 
 797:.\Generated_Source\PSoC5/PWM_3.c **** 
 798:.\Generated_Source\PSoC5/PWM_3.c **** #if (PWM_3_UseOneCompareMode)
 799:.\Generated_Source\PSoC5/PWM_3.c **** 
 800:.\Generated_Source\PSoC5/PWM_3.c **** 
 801:.\Generated_Source\PSoC5/PWM_3.c ****     /*******************************************************************************
 802:.\Generated_Source\PSoC5/PWM_3.c ****     * Function Name: PWM_3_ReadCompare
 803:.\Generated_Source\PSoC5/PWM_3.c ****     ********************************************************************************
 804:.\Generated_Source\PSoC5/PWM_3.c ****     *
 805:.\Generated_Source\PSoC5/PWM_3.c ****     * Summary:
 806:.\Generated_Source\PSoC5/PWM_3.c ****     *  Reads the compare value for the compare output when the PWM Mode parameter is
 807:.\Generated_Source\PSoC5/PWM_3.c ****     *  set to Dither mode, Center Aligned mode, or One Output mode.
 808:.\Generated_Source\PSoC5/PWM_3.c ****     *
 809:.\Generated_Source\PSoC5/PWM_3.c ****     * Parameters:
 810:.\Generated_Source\PSoC5/PWM_3.c ****     *  None
 811:.\Generated_Source\PSoC5/PWM_3.c ****     *
 812:.\Generated_Source\PSoC5/PWM_3.c ****     * Return:
 813:.\Generated_Source\PSoC5/PWM_3.c ****     *  uint8/uint16: Current compare value
 814:.\Generated_Source\PSoC5/PWM_3.c ****     *
 815:.\Generated_Source\PSoC5/PWM_3.c ****     *******************************************************************************/
 816:.\Generated_Source\PSoC5/PWM_3.c ****     uint16 PWM_3_ReadCompare(void) 
 817:.\Generated_Source\PSoC5/PWM_3.c ****     {
 663              		.loc 1 817 0
 664              		.cfi_startproc
ARM GAS  C:\Users\Robert\AppData\Local\Temp\ccCF9Xjo.s 			page 27


 665              		@ args = 0, pretend = 0, frame = 0
 666              		@ frame_needed = 1, uses_anonymous_args = 0
 667              		@ link register save eliminated.
 668 0000 80B4     		push	{r7}
 669              		.cfi_def_cfa_offset 4
 670              		.cfi_offset 7, -4
 671 0002 00AF     		add	r7, sp, #0
 672              		.cfi_def_cfa_register 7
 818:.\Generated_Source\PSoC5/PWM_3.c ****         #if(PWM_3_UsingFixedFunction)
 819:.\Generated_Source\PSoC5/PWM_3.c ****             return ((uint16)CY_GET_REG16(PWM_3_COMPARE1_LSB_PTR));
 820:.\Generated_Source\PSoC5/PWM_3.c ****         #else
 821:.\Generated_Source\PSoC5/PWM_3.c ****             return (CY_GET_REG16(PWM_3_COMPARE1_LSB_PTR));
 673              		.loc 1 821 0
 674 0004 034B     		ldr	r3, .L50
 675 0006 1B88     		ldrh	r3, [r3]	@ movhi
 676 0008 9BB2     		uxth	r3, r3
 822:.\Generated_Source\PSoC5/PWM_3.c ****         #endif /* (PWM_3_UsingFixedFunction) */
 823:.\Generated_Source\PSoC5/PWM_3.c ****     }
 677              		.loc 1 823 0
 678 000a 1846     		mov	r0, r3
 679 000c BD46     		mov	sp, r7
 680              		.cfi_def_cfa_register 13
 681              		@ sp needed
 682 000e 5DF8047B 		ldr	r7, [sp], #4
 683              		.cfi_restore 7
 684              		.cfi_def_cfa_offset 0
 685 0012 7047     		bx	lr
 686              	.L51:
 687              		.align	2
 688              	.L50:
 689 0014 546A0040 		.word	1073769044
 690              		.cfi_endproc
 691              	.LFE14:
 692              		.size	PWM_3_ReadCompare, .-PWM_3_ReadCompare
 693              		.section	.text.PWM_3_ReadPeriod,"ax",%progbits
 694              		.align	2
 695              		.global	PWM_3_ReadPeriod
 696              		.thumb
 697              		.thumb_func
 698              		.type	PWM_3_ReadPeriod, %function
 699              	PWM_3_ReadPeriod:
 700              	.LFB15:
 824:.\Generated_Source\PSoC5/PWM_3.c **** 
 825:.\Generated_Source\PSoC5/PWM_3.c **** #else
 826:.\Generated_Source\PSoC5/PWM_3.c **** 
 827:.\Generated_Source\PSoC5/PWM_3.c **** 
 828:.\Generated_Source\PSoC5/PWM_3.c ****     /*******************************************************************************
 829:.\Generated_Source\PSoC5/PWM_3.c ****     * Function Name: PWM_3_ReadCompare1
 830:.\Generated_Source\PSoC5/PWM_3.c ****     ********************************************************************************
 831:.\Generated_Source\PSoC5/PWM_3.c ****     *
 832:.\Generated_Source\PSoC5/PWM_3.c ****     * Summary:
 833:.\Generated_Source\PSoC5/PWM_3.c ****     *  Reads the compare value for the compare1 output.
 834:.\Generated_Source\PSoC5/PWM_3.c ****     *
 835:.\Generated_Source\PSoC5/PWM_3.c ****     * Parameters:
 836:.\Generated_Source\PSoC5/PWM_3.c ****     *  None
 837:.\Generated_Source\PSoC5/PWM_3.c ****     *
 838:.\Generated_Source\PSoC5/PWM_3.c ****     * Return:
ARM GAS  C:\Users\Robert\AppData\Local\Temp\ccCF9Xjo.s 			page 28


 839:.\Generated_Source\PSoC5/PWM_3.c ****     *  uint8/uint16: Current compare value.
 840:.\Generated_Source\PSoC5/PWM_3.c ****     *
 841:.\Generated_Source\PSoC5/PWM_3.c ****     *******************************************************************************/
 842:.\Generated_Source\PSoC5/PWM_3.c ****     uint16 PWM_3_ReadCompare1(void) 
 843:.\Generated_Source\PSoC5/PWM_3.c ****     {
 844:.\Generated_Source\PSoC5/PWM_3.c ****         return (CY_GET_REG16(PWM_3_COMPARE1_LSB_PTR));
 845:.\Generated_Source\PSoC5/PWM_3.c ****     }
 846:.\Generated_Source\PSoC5/PWM_3.c **** 
 847:.\Generated_Source\PSoC5/PWM_3.c **** 
 848:.\Generated_Source\PSoC5/PWM_3.c ****     /*******************************************************************************
 849:.\Generated_Source\PSoC5/PWM_3.c ****     * Function Name: PWM_3_ReadCompare2
 850:.\Generated_Source\PSoC5/PWM_3.c ****     ********************************************************************************
 851:.\Generated_Source\PSoC5/PWM_3.c ****     *
 852:.\Generated_Source\PSoC5/PWM_3.c ****     * Summary:
 853:.\Generated_Source\PSoC5/PWM_3.c ****     *  Reads the compare value for the compare2 output.
 854:.\Generated_Source\PSoC5/PWM_3.c ****     *
 855:.\Generated_Source\PSoC5/PWM_3.c ****     * Parameters:
 856:.\Generated_Source\PSoC5/PWM_3.c ****     *  None
 857:.\Generated_Source\PSoC5/PWM_3.c ****     *
 858:.\Generated_Source\PSoC5/PWM_3.c ****     * Return:
 859:.\Generated_Source\PSoC5/PWM_3.c ****     *  uint8/uint16: Current compare value.
 860:.\Generated_Source\PSoC5/PWM_3.c ****     *
 861:.\Generated_Source\PSoC5/PWM_3.c ****     *******************************************************************************/
 862:.\Generated_Source\PSoC5/PWM_3.c ****     uint16 PWM_3_ReadCompare2(void) 
 863:.\Generated_Source\PSoC5/PWM_3.c ****     {
 864:.\Generated_Source\PSoC5/PWM_3.c ****         return (CY_GET_REG16(PWM_3_COMPARE2_LSB_PTR));
 865:.\Generated_Source\PSoC5/PWM_3.c ****     }
 866:.\Generated_Source\PSoC5/PWM_3.c **** 
 867:.\Generated_Source\PSoC5/PWM_3.c **** #endif /* (PWM_3_UseOneCompareMode) */
 868:.\Generated_Source\PSoC5/PWM_3.c **** 
 869:.\Generated_Source\PSoC5/PWM_3.c **** 
 870:.\Generated_Source\PSoC5/PWM_3.c **** /*******************************************************************************
 871:.\Generated_Source\PSoC5/PWM_3.c **** * Function Name: PWM_3_ReadPeriod
 872:.\Generated_Source\PSoC5/PWM_3.c **** ********************************************************************************
 873:.\Generated_Source\PSoC5/PWM_3.c **** *
 874:.\Generated_Source\PSoC5/PWM_3.c **** * Summary:
 875:.\Generated_Source\PSoC5/PWM_3.c **** *  Reads the period value used by the PWM hardware.
 876:.\Generated_Source\PSoC5/PWM_3.c **** *
 877:.\Generated_Source\PSoC5/PWM_3.c **** * Parameters:
 878:.\Generated_Source\PSoC5/PWM_3.c **** *  None
 879:.\Generated_Source\PSoC5/PWM_3.c **** *
 880:.\Generated_Source\PSoC5/PWM_3.c **** * Return:
 881:.\Generated_Source\PSoC5/PWM_3.c **** *  uint8/16: Period value
 882:.\Generated_Source\PSoC5/PWM_3.c **** *
 883:.\Generated_Source\PSoC5/PWM_3.c **** *******************************************************************************/
 884:.\Generated_Source\PSoC5/PWM_3.c **** uint16 PWM_3_ReadPeriod(void) 
 885:.\Generated_Source\PSoC5/PWM_3.c **** {
 701              		.loc 1 885 0
 702              		.cfi_startproc
 703              		@ args = 0, pretend = 0, frame = 0
 704              		@ frame_needed = 1, uses_anonymous_args = 0
 705              		@ link register save eliminated.
 706 0000 80B4     		push	{r7}
 707              		.cfi_def_cfa_offset 4
 708              		.cfi_offset 7, -4
 709 0002 00AF     		add	r7, sp, #0
 710              		.cfi_def_cfa_register 7
ARM GAS  C:\Users\Robert\AppData\Local\Temp\ccCF9Xjo.s 			page 29


 886:.\Generated_Source\PSoC5/PWM_3.c ****     #if(PWM_3_UsingFixedFunction)
 887:.\Generated_Source\PSoC5/PWM_3.c ****         return ((uint16)CY_GET_REG16(PWM_3_PERIOD_LSB_PTR));
 888:.\Generated_Source\PSoC5/PWM_3.c ****     #else
 889:.\Generated_Source\PSoC5/PWM_3.c ****         return (CY_GET_REG16(PWM_3_PERIOD_LSB_PTR));
 711              		.loc 1 889 0
 712 0004 034B     		ldr	r3, .L54
 713 0006 1B88     		ldrh	r3, [r3]	@ movhi
 714 0008 9BB2     		uxth	r3, r3
 890:.\Generated_Source\PSoC5/PWM_3.c ****     #endif /* (PWM_3_UsingFixedFunction) */
 891:.\Generated_Source\PSoC5/PWM_3.c **** }
 715              		.loc 1 891 0
 716 000a 1846     		mov	r0, r3
 717 000c BD46     		mov	sp, r7
 718              		.cfi_def_cfa_register 13
 719              		@ sp needed
 720 000e 5DF8047B 		ldr	r7, [sp], #4
 721              		.cfi_restore 7
 722              		.cfi_def_cfa_offset 0
 723 0012 7047     		bx	lr
 724              	.L55:
 725              		.align	2
 726              	.L54:
 727 0014 946A0040 		.word	1073769108
 728              		.cfi_endproc
 729              	.LFE15:
 730              		.size	PWM_3_ReadPeriod, .-PWM_3_ReadPeriod
 731              		.text
 732              	.Letext0:
 733              		.file 2 ".\\Generated_Source\\PSoC5\\cytypes.h"