ARM GAS  C:\Users\Robert\AppData\Local\Temp\ccM2opEE.s 			page 1


   1              		.syntax unified
   2              		.cpu cortex-m3
   3              		.fpu softvfp
   4              		.eabi_attribute 20, 1
   5              		.eabi_attribute 21, 1
   6              		.eabi_attribute 23, 3
   7              		.eabi_attribute 24, 1
   8              		.eabi_attribute 25, 1
   9              		.eabi_attribute 26, 1
  10              		.eabi_attribute 30, 6
  11              		.eabi_attribute 34, 1
  12              		.eabi_attribute 18, 4
  13              		.thumb
  14              		.file	"Python.c"
  15              		.text
  16              	.Ltext0:
  17              		.cfi_sections	.debug_frame
  18              		.comm	buffer,4,4
  19              		.section	.text.Python_parser,"ax",%progbits
  20              		.align	2
  21              		.global	Python_parser
  22              		.thumb
  23              		.thumb_func
  24              		.type	Python_parser, %function
  25              	Python_parser:
  26              	.LFB56:
  27              		.file 1 ".\\Python.c"
   1:.\Python.c    **** /**
   2:.\Python.c    **** * \file Python.c
   3:.\Python.c    **** * \brief Handles all communication and parsing of data for a python device, such as the raspberry p
   4:.\Python.c    ****            This should work for any device where both sides of the API were created, extending beyo
   5:.\Python.c    **** *
   6:.\Python.c    **** * Version 1.2.4
   7:.\Python.c    **** *
   8:.\Python.c    **** * \author Brian Bradley
   9:.\Python.c    **** *
  10:.\Python.c    **** * \bug None known, but this is untested
  11:.\Python.c    **** *
  12:.\Python.c    **** *
  13:.\Python.c    **** * Copyright Embedit Electronics
  14:.\Python.c    **** * 
  15:.\Python.c    **** */
  16:.\Python.c    **** #ifndef PYTHON_H
  17:.\Python.c    ****     #include "Python.h"
  18:.\Python.c    **** #endif
  19:.\Python.c    **** 
  20:.\Python.c    **** #if defined(USE_I2C)
  21:.\Python.c    ****     uint8 WR_buf[I2C_BUFFER_SIZE]; 
  22:.\Python.c    ****     uint8 RD_buf[I2C_BUFFER_SIZE];
  23:.\Python.c    **** #elif defined(USE_SERIAL)
  24:.\Python.c    ****     #define BUFFER_LEN          (4u)
  25:.\Python.c    ****     uint8 buffer[BUFFER_LEN];
  26:.\Python.c    **** #endif
  27:.\Python.c    **** 
  28:.\Python.c    **** void Python_parser(vessel_type *vessel)
  29:.\Python.c    **** {
  28              		.loc 1 29 0
ARM GAS  C:\Users\Robert\AppData\Local\Temp\ccM2opEE.s 			page 2


  29              		.cfi_startproc
  30              		@ args = 0, pretend = 0, frame = 16
  31              		@ frame_needed = 1, uses_anonymous_args = 0
  32 0000 80B5     		push	{r7, lr}
  33              		.cfi_def_cfa_offset 8
  34              		.cfi_offset 7, -8
  35              		.cfi_offset 14, -4
  36 0002 84B0     		sub	sp, sp, #16
  37              		.cfi_def_cfa_offset 24
  38 0004 00AF     		add	r7, sp, #0
  39              		.cfi_def_cfa_register 7
  40 0006 7860     		str	r0, [r7, #4]
  30:.\Python.c    ****     uint8 cmd = vessel->cmd;
  41              		.loc 1 30 0
  42 0008 7B68     		ldr	r3, [r7, #4]
  43 000a 5B78     		ldrb	r3, [r3, #1]
  44 000c FB73     		strb	r3, [r7, #15]
  31:.\Python.c    ****     uint8 addr = vessel->addr;
  45              		.loc 1 31 0
  46 000e 7B68     		ldr	r3, [r7, #4]
  47 0010 1B78     		ldrb	r3, [r3]
  48 0012 BB73     		strb	r3, [r7, #14]
  32:.\Python.c    ****     uint16 temp_data = vessel->dat;
  49              		.loc 1 32 0
  50 0014 7B68     		ldr	r3, [r7, #4]
  51 0016 5B88     		ldrh	r3, [r3, #2]	@ movhi
  52 0018 BB81     		strh	r3, [r7, #12]	@ movhi
  33:.\Python.c    ****     uint8 waveType;
  34:.\Python.c    ****     uint8 amp;
  35:.\Python.c    ****     uint8 dcB;
  36:.\Python.c    ****     
  37:.\Python.c    ****     switch(addr)
  53              		.loc 1 37 0
  54 001a BB7B     		ldrb	r3, [r7, #14]	@ zero_extendqisi2
  55 001c 0F2B     		cmp	r3, #15
  56 001e 00F08181 		beq	.L42
  57 0022 0F2B     		cmp	r3, #15
  58 0024 1ADC     		bgt	.L4
  59 0026 0A2B     		cmp	r3, #10
  60 0028 00F07E81 		beq	.L43
  61 002c 0A2B     		cmp	r3, #10
  62 002e 0ADC     		bgt	.L6
  63 0030 062B     		cmp	r3, #6
  64 0032 00F07B81 		beq	.L44
  65 0036 062B     		cmp	r3, #6
  66 0038 01DC     		bgt	.L8
  67 003a 042B     		cmp	r3, #4
  38:.\Python.c    ****     {
  39:.\Python.c    ****         //delsig_adc
  40:.\Python.c    ****         #ifdef CY_ADC_DELSIG_ADC_DelSig_1_H
  41:.\Python.c    ****             case DELSIG_ADC_CONTROL: break;
  42:.\Python.c    ****         #endif
  43:.\Python.c    ****         
  44:.\Python.c    ****         //sar adc 1
  45:.\Python.c    ****         #ifdef CY_ADC_SAR_ADC_SAR_1_H 
  46:.\Python.c    ****             case SAR_ADC0_CONTROL: break;
  47:.\Python.c    ****         #endif
ARM GAS  C:\Users\Robert\AppData\Local\Temp\ccM2opEE.s 			page 3


  48:.\Python.c    ****         
  49:.\Python.c    ****         //sar adc 2
  50:.\Python.c    ****         #ifdef CY_ADC_SAR_ADC_SAR_2_H 
  51:.\Python.c    ****             case SAR_ADC1_CONTROL: break;
  52:.\Python.c    ****         #endif
  53:.\Python.c    ****         
  54:.\Python.c    ****         //VDAC1
  55:.\Python.c    ****         #ifdef CY_VDAC8_VDAC8_1_H
  56:.\Python.c    ****             case VDAC0_CONTROL: break;        
  68              		.loc 1 56 0
  69 003c 85E1     		b	.L1
  70              	.L8:
  37:.\Python.c    ****     {
  71              		.loc 1 37 0
  72 003e 082B     		cmp	r3, #8
  73 0040 26D0     		beq	.L10
  74 0042 092B     		cmp	r3, #9
  57:.\Python.c    ****         #endif
  58:.\Python.c    ****         
  59:.\Python.c    ****         //VDAC2
  60:.\Python.c    ****         #ifdef CY_VDAC8_VDAC8_2_H
  61:.\Python.c    ****             case VDAC1_CONTROL: break;
  62:.\Python.c    ****         #endif
  63:.\Python.c    ****         
  64:.\Python.c    ****         //IDAC1
  65:.\Python.c    ****         #ifdef CY_IDAC8_IDAC8_1_H
  66:.\Python.c    ****             case IDAC0_CONTROL:  break;     
  67:.\Python.c    ****         #endif
  68:.\Python.c    ****         
  69:.\Python.c    ****         //IDAC2
  70:.\Python.c    ****         #ifdef CY_IDAC8_IDAC8_2_H
  71:.\Python.c    ****             case IDAC1_CONTROL: break;     
  72:.\Python.c    ****         #endif
  73:.\Python.c    ****         
  74:.\Python.c    ****         //Wave DAC
  75:.\Python.c    ****         #ifdef CY_WaveDAC8_WaveDAC8_1_H
  76:.\Python.c    ****             case WAVEDAC_CONTROL: 
  77:.\Python.c    ****             switch(cmd)
  78:.\Python.c    ****             {
  79:.\Python.c    ****                 case 0x04:
  80:.\Python.c    ****                     Python_getData(vessel);
  81:.\Python.c    ****                     waveType = vessel->addr;
  82:.\Python.c    ****                     amp = vessel->cmd;
  83:.\Python.c    ****                     dcB = vessel->dat;
  84:.\Python.c    ****                     vessel->cmd = cmd;
  85:.\Python.c    ****                     vessel->addr = addr;
  86:.\Python.c    ****                     vessel->waveType = waveType;
  87:.\Python.c    ****                     vessel->amp = amp;
  88:.\Python.c    ****                     vessel->dcB = dcB;
  89:.\Python.c    ****                     break;
  90:.\Python.c    ****                     
  91:.\Python.c    ****             }
  92:.\Python.c    ****             break;      
  93:.\Python.c    ****         #endif
  94:.\Python.c    ****         
  95:.\Python.c    ****         //first PWM
  96:.\Python.c    ****         #ifdef CY_PWM_PWM_1_H
ARM GAS  C:\Users\Robert\AppData\Local\Temp\ccM2opEE.s 			page 4


  97:.\Python.c    ****             case PWM_REGISTER0: break;
  75              		.loc 1 97 0
  76 0044 81E1     		b	.L1
  77              	.L6:
  37:.\Python.c    ****     {
  78              		.loc 1 37 0
  79 0046 0C2B     		cmp	r3, #12
  80 0048 00F07281 		beq	.L45
  81 004c 0C2B     		cmp	r3, #12
  82 004e C0F27181 		blt	.L46
  83 0052 0D2B     		cmp	r3, #13
  84 0054 00F07081 		beq	.L47
  85 0058 0E2B     		cmp	r3, #14
  98:.\Python.c    ****         #endif
  99:.\Python.c    ****         
 100:.\Python.c    ****         //second PWM
 101:.\Python.c    ****         #ifdef CY_PWM_PWM_2_H
 102:.\Python.c    ****             case PWM_REGISTER1: break;
 103:.\Python.c    ****         #endif
 104:.\Python.c    ****         
 105:.\Python.c    ****         //third PWM
 106:.\Python.c    ****         #ifdef CY_PWM_PWM_3_H
 107:.\Python.c    ****             case PWM_REGISTER2: break;
 108:.\Python.c    ****         #endif
 109:.\Python.c    ****         
 110:.\Python.c    ****         //fourth PWM
 111:.\Python.c    ****         #ifdef CY_PWM_PWM_4_H
 112:.\Python.c    ****             case PWM_REGISTER3: break;  
 113:.\Python.c    ****         #endif
 114:.\Python.c    ****         
 115:.\Python.c    ****         //fifth PWM
 116:.\Python.c    ****         #ifdef CY_PWM_PWM_5_H
 117:.\Python.c    ****             case PWM_REGISTER4: break;
 118:.\Python.c    ****         #endif
 119:.\Python.c    ****         
 120:.\Python.c    ****         //sixth PWM
 121:.\Python.c    ****         #ifdef CY_PWM_PWM_6_H
 122:.\Python.c    ****             case PWM_REGISTER5: break;  
  86              		.loc 1 122 0
  87 005a 76E1     		b	.L1
  88              	.L4:
  37:.\Python.c    ****     {
  89              		.loc 1 37 0
  90 005c FB2B     		cmp	r3, #251
  91 005e 00F0B180 		beq	.L16
  92 0062 FB2B     		cmp	r3, #251
  93 0064 0ADC     		bgt	.L17
  94 0066 162B     		cmp	r3, #22
  95 0068 39D0     		beq	.L18
  96 006a 162B     		cmp	r3, #22
  97 006c 01DC     		bgt	.L19
  98 006e 102B     		cmp	r3, #16
 123:.\Python.c    ****         #endif
 124:.\Python.c    ****         
 125:.\Python.c    ****         //seventh PWM
 126:.\Python.c    ****         #ifdef CY_PWM_PWM_7_H
 127:.\Python.c    ****             case PWM_REGISTER6: break;
ARM GAS  C:\Users\Robert\AppData\Local\Temp\ccM2opEE.s 			page 5


 128:.\Python.c    ****         #endif
 129:.\Python.c    ****         
 130:.\Python.c    ****         //eighth PWM
 131:.\Python.c    ****         #ifdef CY_PWM_PWM_8_H
 132:.\Python.c    ****             case PWM_REGISTER7:  break;
  99              		.loc 1 132 0
 100 0070 6BE1     		b	.L1
 101              	.L19:
  37:.\Python.c    ****     {
 102              		.loc 1 37 0
 103 0072 172B     		cmp	r3, #23
 104 0074 00F06281 		beq	.L48
 105 0078 182B     		cmp	r3, #24
 133:.\Python.c    ****         #endif
 134:.\Python.c    ****         
 135:.\Python.c    ****         #ifdef CY_PWM_PWM_9_H
 136:.\Python.c    ****             case PWM_REGISTER8:  break;
 137:.\Python.c    ****         #endif
 138:.\Python.c    ****         
 139:.\Python.c    ****         #ifdef CY_PWM_PWM_10_H
 140:.\Python.c    ****             case PWM_REGISTER9:  break;
 141:.\Python.c    ****         #endif
 142:.\Python.c    ****         
 143:.\Python.c    ****         #ifdef CY_PWM_PWM_11_H
 144:.\Python.c    ****             case PWM_REGISTER10: break;
 145:.\Python.c    ****         #endif
 146:.\Python.c    ****         
 147:.\Python.c    ****         #ifdef CY_PWM_PWM_12_H
 148:.\Python.c    ****             case PWM_REGISTER11: break;
 149:.\Python.c    ****         #endif
 150:.\Python.c    ****         
 151:.\Python.c    ****         #ifdef CY_ADC_SAR_Seq_1_H
 152:.\Python.c    ****             case ANALOG_IN_REGISTER: break;
 153:.\Python.c    ****         #endif
 154:.\Python.c    ****         
 155:.\Python.c    ****         #ifdef CY_CAPSENSE_CSD_CapSense_1_H
 156:.\Python.c    ****             case CAPSENSE_REGISTER: break;
 106              		.loc 1 156 0
 107 007a 66E1     		b	.L1
 108              	.L17:
  37:.\Python.c    ****     {
 109              		.loc 1 37 0
 110 007c FD2B     		cmp	r3, #253
 111 007e 00F05F81 		beq	.L49
 112 0082 FD2B     		cmp	r3, #253
 113 0084 5ADB     		blt	.L24
 114 0086 FE2B     		cmp	r3, #254
 115 0088 00F05C81 		beq	.L50
 116 008c FF2B     		cmp	r3, #255
 157:.\Python.c    ****         #endif
 158:.\Python.c    ****         
 159:.\Python.c    ****         case GPIO_REGISTER: 
 160:.\Python.c    ****             vessel->pin  = (temp_data>>1)&0x0007;
 161:.\Python.c    ****             vessel->port = (temp_data>>4)&0x000F;
 162:.\Python.c    ****             switch(cmd)
 163:.\Python.c    ****             {
 164:.\Python.c    ****                 case 0x01: vessel->dat = temp_data&0x0001; break;
ARM GAS  C:\Users\Robert\AppData\Local\Temp\ccM2opEE.s 			page 6


 165:.\Python.c    ****                 case 0x03: vessel->dat = temp_data>>8&0x000F; break;
 166:.\Python.c    ****             }
 167:.\Python.c    ****             break;
 168:.\Python.c    ****         //TTTTtttPPPPppp
 169:.\Python.c    ****         case RANGE_FINDER:
 170:.\Python.c    ****             switch(cmd)
 171:.\Python.c    ****             {
 172:.\Python.c    ****                 case 0x00:
 173:.\Python.c    ****                     vessel->pin  = (temp_data)&0x0007;
 174:.\Python.c    ****                     vessel->port = (temp_data>>3)&0x000F;
 175:.\Python.c    ****                     vessel->trigpin = (temp_data>>7)&0x07;
 176:.\Python.c    ****                     vessel->trigport = (temp_data>>10)&0x0F;
 177:.\Python.c    ****                 break;
 178:.\Python.c    ****                 case 0x01: break;
 179:.\Python.c    ****                 case 0x02: vessel->delayus = (uint8)temp_data; break;
 180:.\Python.c    ****             }
 181:.\Python.c    ****         break;
 182:.\Python.c    ****                 
 183:.\Python.c    ****         
 184:.\Python.c    ****         #ifdef CY_SLIGHTS_StripLights_H
 185:.\Python.c    ****             case STRIPLIGHT_REGISTER:
 186:.\Python.c    ****             switch(cmd)
 187:.\Python.c    ****             {
 188:.\Python.c    ****                 case 0x02://set pixel
 189:.\Python.c    ****                     Python_getData(vessel);
 190:.\Python.c    ****                     vessel->color = vessel->dat|(temp_data<<16);
 191:.\Python.c    ****                     vessel->row = vessel->addr;
 192:.\Python.c    ****                     vessel->column = vessel->cmd;
 193:.\Python.c    ****                     vessel->addr = addr;
 194:.\Python.c    ****                     vessel->cmd = cmd; 
 195:.\Python.c    ****                     break;
 196:.\Python.c    ****                 case 0x03://draw stripe
 197:.\Python.c    ****                     Python_getData(vessel);
 198:.\Python.c    ****                     vessel->color = vessel->dat|(temp_data<<16);
 199:.\Python.c    ****                     vessel->dat = vessel->addr;
 200:.\Python.c    ****                     vessel->addr = addr;
 201:.\Python.c    ****                     vessel->cmd = cmd;
 202:.\Python.c    ****                     break;
 203:.\Python.c    ****                 case 0x05: //draw row
 204:.\Python.c    ****                     Python_getData(vessel);
 205:.\Python.c    ****                     vessel->color = vessel->dat|(temp_data<<16);
 206:.\Python.c    ****                     vessel->row = vessel->addr;
 207:.\Python.c    ****                     vessel->addr = addr;
 208:.\Python.c    ****                     vessel->cmd = cmd;
 209:.\Python.c    ****                     break;
 210:.\Python.c    ****                 case 0x06: //draw column
 211:.\Python.c    ****                     Python_getData(vessel);
 212:.\Python.c    ****                     vessel->color = vessel->dat|(temp_data<<16);
 213:.\Python.c    ****                     vessel->column = vessel->addr;
 214:.\Python.c    ****                     vessel->addr = addr;
 215:.\Python.c    ****                     vessel->cmd = cmd;
 216:.\Python.c    ****                     break;
 217:.\Python.c    ****                 
 218:.\Python.c    ****                 
 219:.\Python.c    ****             }
 220:.\Python.c    ****             break;
 221:.\Python.c    ****         #endif
ARM GAS  C:\Users\Robert\AppData\Local\Temp\ccM2opEE.s 			page 7


 222:.\Python.c    ****         case TEST_REGISTER: break;
 223:.\Python.c    ****         
 224:.\Python.c    ****         case CHECK_BUILD: break;
 225:.\Python.c    ****         
 226:.\Python.c    ****         case RESET_ADDRESS: break;
 117              		.loc 1 226 0
 118 008e 5CE1     		b	.L1
 119              	.L10:
  77:.\Python.c    ****             {
 120              		.loc 1 77 0
 121 0090 FB7B     		ldrb	r3, [r7, #15]	@ zero_extendqisi2
 122 0092 042B     		cmp	r3, #4
 123 0094 00D0     		beq	.L28
  92:.\Python.c    ****         #endif
 124              		.loc 1 92 0
 125 0096 58E1     		b	.L1
 126              	.L28:
  80:.\Python.c    ****                     waveType = vessel->addr;
 127              		.loc 1 80 0
 128 0098 7868     		ldr	r0, [r7, #4]
 129 009a FFF7FEFF 		bl	Python_getData
  81:.\Python.c    ****                     amp = vessel->cmd;
 130              		.loc 1 81 0
 131 009e 7B68     		ldr	r3, [r7, #4]
 132 00a0 1B78     		ldrb	r3, [r3]
 133 00a2 FB72     		strb	r3, [r7, #11]
  82:.\Python.c    ****                     dcB = vessel->dat;
 134              		.loc 1 82 0
 135 00a4 7B68     		ldr	r3, [r7, #4]
 136 00a6 5B78     		ldrb	r3, [r3, #1]
 137 00a8 BB72     		strb	r3, [r7, #10]
  83:.\Python.c    ****                     vessel->cmd = cmd;
 138              		.loc 1 83 0
 139 00aa 7B68     		ldr	r3, [r7, #4]
 140 00ac 5B88     		ldrh	r3, [r3, #2]
 141 00ae 7B72     		strb	r3, [r7, #9]
  84:.\Python.c    ****                     vessel->addr = addr;
 142              		.loc 1 84 0
 143 00b0 7B68     		ldr	r3, [r7, #4]
 144 00b2 FA7B     		ldrb	r2, [r7, #15]
 145 00b4 5A70     		strb	r2, [r3, #1]
  85:.\Python.c    ****                     vessel->waveType = waveType;
 146              		.loc 1 85 0
 147 00b6 7B68     		ldr	r3, [r7, #4]
 148 00b8 BA7B     		ldrb	r2, [r7, #14]
 149 00ba 1A70     		strb	r2, [r3]
  86:.\Python.c    ****                     vessel->amp = amp;
 150              		.loc 1 86 0
 151 00bc FB7A     		ldrb	r3, [r7, #11]
 152 00be 03F00703 		and	r3, r3, #7
 153 00c2 D9B2     		uxtb	r1, r3
 154 00c4 7A68     		ldr	r2, [r7, #4]
 155 00c6 9379     		ldrb	r3, [r2, #6]
 156 00c8 61F30203 		bfi	r3, r1, #0, #3
 157 00cc 9371     		strb	r3, [r2, #6]
  87:.\Python.c    ****                     vessel->dcB = dcB;
 158              		.loc 1 87 0
ARM GAS  C:\Users\Robert\AppData\Local\Temp\ccM2opEE.s 			page 8


 159 00ce 7B68     		ldr	r3, [r7, #4]
 160 00d0 BA7A     		ldrb	r2, [r7, #10]
 161 00d2 DA71     		strb	r2, [r3, #7]
  88:.\Python.c    ****                     break;
 162              		.loc 1 88 0
 163 00d4 7B68     		ldr	r3, [r7, #4]
 164 00d6 7A7A     		ldrb	r2, [r7, #9]
 165 00d8 1A72     		strb	r2, [r3, #8]
  89:.\Python.c    ****                     
 166              		.loc 1 89 0
 167 00da 00BF     		nop
  92:.\Python.c    ****         #endif
 168              		.loc 1 92 0
 169 00dc 35E1     		b	.L1
 170              	.L18:
 160:.\Python.c    ****             vessel->port = (temp_data>>4)&0x000F;
 171              		.loc 1 160 0
 172 00de BB89     		ldrh	r3, [r7, #12]
 173 00e0 5B08     		lsrs	r3, r3, #1
 174 00e2 9BB2     		uxth	r3, r3
 175 00e4 DBB2     		uxtb	r3, r3
 176 00e6 03F00703 		and	r3, r3, #7
 177 00ea D9B2     		uxtb	r1, r3
 178 00ec 7A68     		ldr	r2, [r7, #4]
 179 00ee 1379     		ldrb	r3, [r2, #4]
 180 00f0 61F30613 		bfi	r3, r1, #4, #3
 181 00f4 1371     		strb	r3, [r2, #4]
 161:.\Python.c    ****             switch(cmd)
 182              		.loc 1 161 0
 183 00f6 BB89     		ldrh	r3, [r7, #12]
 184 00f8 1B09     		lsrs	r3, r3, #4
 185 00fa 9BB2     		uxth	r3, r3
 186 00fc DBB2     		uxtb	r3, r3
 187 00fe 03F00F03 		and	r3, r3, #15
 188 0102 D9B2     		uxtb	r1, r3
 189 0104 7A68     		ldr	r2, [r7, #4]
 190 0106 1379     		ldrb	r3, [r2, #4]
 191 0108 61F30303 		bfi	r3, r1, #0, #4
 192 010c 1371     		strb	r3, [r2, #4]
 162:.\Python.c    ****             {
 193              		.loc 1 162 0
 194 010e FB7B     		ldrb	r3, [r7, #15]	@ zero_extendqisi2
 195 0110 012B     		cmp	r3, #1
 196 0112 02D0     		beq	.L30
 197 0114 032B     		cmp	r3, #3
 198 0116 07D0     		beq	.L31
 167:.\Python.c    ****         //TTTTtttPPPPppp
 199              		.loc 1 167 0
 200 0118 17E1     		b	.L1
 201              	.L30:
 164:.\Python.c    ****                 case 0x03: vessel->dat = temp_data>>8&0x000F; break;
 202              		.loc 1 164 0
 203 011a BB89     		ldrh	r3, [r7, #12]	@ movhi
 204 011c 03F00103 		and	r3, r3, #1
 205 0120 9AB2     		uxth	r2, r3
 206 0122 7B68     		ldr	r3, [r7, #4]
 207 0124 5A80     		strh	r2, [r3, #2]	@ movhi
ARM GAS  C:\Users\Robert\AppData\Local\Temp\ccM2opEE.s 			page 9


 208 0126 08E0     		b	.L29
 209              	.L31:
 165:.\Python.c    ****             }
 210              		.loc 1 165 0
 211 0128 BB89     		ldrh	r3, [r7, #12]
 212 012a 1B0A     		lsrs	r3, r3, #8
 213 012c 9BB2     		uxth	r3, r3
 214 012e 03F00F03 		and	r3, r3, #15
 215 0132 9AB2     		uxth	r2, r3
 216 0134 7B68     		ldr	r3, [r7, #4]
 217 0136 5A80     		strh	r2, [r3, #2]	@ movhi
 218 0138 00BF     		nop
 219              	.L29:
 167:.\Python.c    ****         //TTTTtttPPPPppp
 220              		.loc 1 167 0
 221 013a 06E1     		b	.L1
 222              	.L24:
 170:.\Python.c    ****             {
 223              		.loc 1 170 0
 224 013c FB7B     		ldrb	r3, [r7, #15]	@ zero_extendqisi2
 225 013e 012B     		cmp	r3, #1
 226 0140 3ED0     		beq	.L51
 227 0142 022B     		cmp	r3, #2
 228 0144 31D0     		beq	.L34
 229 0146 002B     		cmp	r3, #0
 230 0148 00D0     		beq	.L35
 181:.\Python.c    ****                 
 231              		.loc 1 181 0
 232 014a FEE0     		b	.L1
 233              	.L35:
 173:.\Python.c    ****                     vessel->port = (temp_data>>3)&0x000F;
 234              		.loc 1 173 0
 235 014c BB89     		ldrh	r3, [r7, #12]	@ movhi
 236 014e DBB2     		uxtb	r3, r3
 237 0150 03F00703 		and	r3, r3, #7
 238 0154 D9B2     		uxtb	r1, r3
 239 0156 7A68     		ldr	r2, [r7, #4]
 240 0158 1379     		ldrb	r3, [r2, #4]
 241 015a 61F30613 		bfi	r3, r1, #4, #3
 242 015e 1371     		strb	r3, [r2, #4]
 174:.\Python.c    ****                     vessel->trigpin = (temp_data>>7)&0x07;
 243              		.loc 1 174 0
 244 0160 BB89     		ldrh	r3, [r7, #12]
 245 0162 DB08     		lsrs	r3, r3, #3
 246 0164 9BB2     		uxth	r3, r3
 247 0166 DBB2     		uxtb	r3, r3
 248 0168 03F00F03 		and	r3, r3, #15
 249 016c D9B2     		uxtb	r1, r3
 250 016e 7A68     		ldr	r2, [r7, #4]
 251 0170 1379     		ldrb	r3, [r2, #4]
 252 0172 61F30303 		bfi	r3, r1, #0, #4
 253 0176 1371     		strb	r3, [r2, #4]
 175:.\Python.c    ****                     vessel->trigport = (temp_data>>10)&0x0F;
 254              		.loc 1 175 0
 255 0178 BB89     		ldrh	r3, [r7, #12]
 256 017a DB09     		lsrs	r3, r3, #7
 257 017c 9BB2     		uxth	r3, r3
ARM GAS  C:\Users\Robert\AppData\Local\Temp\ccM2opEE.s 			page 10


 258 017e DBB2     		uxtb	r3, r3
 259 0180 03F00703 		and	r3, r3, #7
 260 0184 D9B2     		uxtb	r1, r3
 261 0186 7A68     		ldr	r2, [r7, #4]
 262 0188 5379     		ldrb	r3, [r2, #5]
 263 018a 61F30613 		bfi	r3, r1, #4, #3
 264 018e 5371     		strb	r3, [r2, #5]
 176:.\Python.c    ****                 break;
 265              		.loc 1 176 0
 266 0190 BB89     		ldrh	r3, [r7, #12]
 267 0192 9B0A     		lsrs	r3, r3, #10
 268 0194 9BB2     		uxth	r3, r3
 269 0196 DBB2     		uxtb	r3, r3
 270 0198 03F00F03 		and	r3, r3, #15
 271 019c D9B2     		uxtb	r1, r3
 272 019e 7A68     		ldr	r2, [r7, #4]
 273 01a0 5379     		ldrb	r3, [r2, #5]
 274 01a2 61F30303 		bfi	r3, r1, #0, #4
 275 01a6 5371     		strb	r3, [r2, #5]
 177:.\Python.c    ****                 case 0x01: break;
 276              		.loc 1 177 0
 277 01a8 0BE0     		b	.L32
 278              	.L34:
 179:.\Python.c    ****             }
 279              		.loc 1 179 0
 280 01aa BB89     		ldrh	r3, [r7, #12]	@ movhi
 281 01ac DBB2     		uxtb	r3, r3
 282 01ae 03F03F03 		and	r3, r3, #63
 283 01b2 D9B2     		uxtb	r1, r3
 284 01b4 7A68     		ldr	r2, [r7, #4]
 285 01b6 937A     		ldrb	r3, [r2, #10]
 286 01b8 61F30503 		bfi	r3, r1, #0, #6
 287 01bc 9372     		strb	r3, [r2, #10]
 288 01be 00E0     		b	.L32
 289              	.L51:
 178:.\Python.c    ****                 case 0x02: vessel->delayus = (uint8)temp_data; break;
 290              		.loc 1 178 0
 291 01c0 00BF     		nop
 292              	.L32:
 181:.\Python.c    ****                 
 293              		.loc 1 181 0 discriminator 1
 294 01c2 C2E0     		b	.L1
 295              	.L16:
 186:.\Python.c    ****             {
 296              		.loc 1 186 0
 297 01c4 FB7B     		ldrb	r3, [r7, #15]	@ zero_extendqisi2
 298 01c6 023B     		subs	r3, r3, #2
 299 01c8 042B     		cmp	r3, #4
 300 01ca 00F2BD80 		bhi	.L52
 301 01ce 01A2     		adr	r2, .L38
 302 01d0 52F823F0 		ldr	pc, [r2, r3, lsl #2]
 303              		.p2align 2
 304              	.L38:
 305 01d4 E9010000 		.word	.L37+1
 306 01d8 49020000 		.word	.L39+1
 307 01dc 49030000 		.word	.L52+1
 308 01e0 8B020000 		.word	.L40+1
ARM GAS  C:\Users\Robert\AppData\Local\Temp\ccM2opEE.s 			page 11


 309 01e4 D7020000 		.word	.L41+1
 310              		.p2align 1
 311              	.L37:
 189:.\Python.c    ****                     vessel->color = vessel->dat|(temp_data<<16);
 312              		.loc 1 189 0
 313 01e8 7868     		ldr	r0, [r7, #4]
 314 01ea FFF7FEFF 		bl	Python_getData
 190:.\Python.c    ****                     vessel->row = vessel->addr;
 315              		.loc 1 190 0
 316 01ee 7B68     		ldr	r3, [r7, #4]
 317 01f0 5B88     		ldrh	r3, [r3, #2]
 318 01f2 1A46     		mov	r2, r3
 319 01f4 BB89     		ldrh	r3, [r7, #12]
 320 01f6 1B04     		lsls	r3, r3, #16
 321 01f8 1343     		orrs	r3, r3, r2
 322 01fa 23F07F42 		bic	r2, r3, #-16777216
 323 01fe 7B68     		ldr	r3, [r7, #4]
 324 0200 91B2     		uxth	r1, r2
 325 0202 0020     		movs	r0, #0
 326 0204 0143     		orrs	r1, r1, r0
 327 0206 9981     		strh	r1, [r3, #12]	@ movhi
 328 0208 120C     		lsrs	r2, r2, #16
 329 020a D2B2     		uxtb	r2, r2
 330 020c 0021     		movs	r1, #0
 331 020e 0A43     		orrs	r2, r2, r1
 332 0210 9A73     		strb	r2, [r3, #14]
 191:.\Python.c    ****                     vessel->column = vessel->cmd;
 333              		.loc 1 191 0
 334 0212 7B68     		ldr	r3, [r7, #4]
 335 0214 1B78     		ldrb	r3, [r3]	@ zero_extendqisi2
 336 0216 03F00703 		and	r3, r3, #7
 337 021a D9B2     		uxtb	r1, r3
 338 021c 7A68     		ldr	r2, [r7, #4]
 339 021e 537A     		ldrb	r3, [r2, #9]
 340 0220 61F3C503 		bfi	r3, r1, #3, #3
 341 0224 5372     		strb	r3, [r2, #9]
 192:.\Python.c    ****                     vessel->addr = addr;
 342              		.loc 1 192 0
 343 0226 7B68     		ldr	r3, [r7, #4]
 344 0228 5B78     		ldrb	r3, [r3, #1]	@ zero_extendqisi2
 345 022a 03F00703 		and	r3, r3, #7
 346 022e D9B2     		uxtb	r1, r3
 347 0230 7A68     		ldr	r2, [r7, #4]
 348 0232 537A     		ldrb	r3, [r2, #9]
 349 0234 61F30203 		bfi	r3, r1, #0, #3
 350 0238 5372     		strb	r3, [r2, #9]
 193:.\Python.c    ****                     vessel->cmd = cmd; 
 351              		.loc 1 193 0
 352 023a 7B68     		ldr	r3, [r7, #4]
 353 023c BA7B     		ldrb	r2, [r7, #14]
 354 023e 1A70     		strb	r2, [r3]
 194:.\Python.c    ****                     break;
 355              		.loc 1 194 0
 356 0240 7B68     		ldr	r3, [r7, #4]
 357 0242 FA7B     		ldrb	r2, [r7, #15]
 358 0244 5A70     		strb	r2, [r3, #1]
 195:.\Python.c    ****                 case 0x03://draw stripe
ARM GAS  C:\Users\Robert\AppData\Local\Temp\ccM2opEE.s 			page 12


 359              		.loc 1 195 0
 360 0246 6CE0     		b	.L36
 361              	.L39:
 197:.\Python.c    ****                     vessel->color = vessel->dat|(temp_data<<16);
 362              		.loc 1 197 0
 363 0248 7868     		ldr	r0, [r7, #4]
 364 024a FFF7FEFF 		bl	Python_getData
 198:.\Python.c    ****                     vessel->dat = vessel->addr;
 365              		.loc 1 198 0
 366 024e 7B68     		ldr	r3, [r7, #4]
 367 0250 5B88     		ldrh	r3, [r3, #2]
 368 0252 1A46     		mov	r2, r3
 369 0254 BB89     		ldrh	r3, [r7, #12]
 370 0256 1B04     		lsls	r3, r3, #16
 371 0258 1343     		orrs	r3, r3, r2
 372 025a 23F07F42 		bic	r2, r3, #-16777216
 373 025e 7B68     		ldr	r3, [r7, #4]
 374 0260 91B2     		uxth	r1, r2
 375 0262 0020     		movs	r0, #0
 376 0264 0143     		orrs	r1, r1, r0
 377 0266 9981     		strh	r1, [r3, #12]	@ movhi
 378 0268 120C     		lsrs	r2, r2, #16
 379 026a D2B2     		uxtb	r2, r2
 380 026c 0021     		movs	r1, #0
 381 026e 0A43     		orrs	r2, r2, r1
 382 0270 9A73     		strb	r2, [r3, #14]
 199:.\Python.c    ****                     vessel->addr = addr;
 383              		.loc 1 199 0
 384 0272 7B68     		ldr	r3, [r7, #4]
 385 0274 1B78     		ldrb	r3, [r3]	@ zero_extendqisi2
 386 0276 9AB2     		uxth	r2, r3
 387 0278 7B68     		ldr	r3, [r7, #4]
 388 027a 5A80     		strh	r2, [r3, #2]	@ movhi
 200:.\Python.c    ****                     vessel->cmd = cmd;
 389              		.loc 1 200 0
 390 027c 7B68     		ldr	r3, [r7, #4]
 391 027e BA7B     		ldrb	r2, [r7, #14]
 392 0280 1A70     		strb	r2, [r3]
 201:.\Python.c    ****                     break;
 393              		.loc 1 201 0
 394 0282 7B68     		ldr	r3, [r7, #4]
 395 0284 FA7B     		ldrb	r2, [r7, #15]
 396 0286 5A70     		strb	r2, [r3, #1]
 202:.\Python.c    ****                 case 0x05: //draw row
 397              		.loc 1 202 0
 398 0288 4BE0     		b	.L36
 399              	.L40:
 204:.\Python.c    ****                     vessel->color = vessel->dat|(temp_data<<16);
 400              		.loc 1 204 0
 401 028a 7868     		ldr	r0, [r7, #4]
 402 028c FFF7FEFF 		bl	Python_getData
 205:.\Python.c    ****                     vessel->row = vessel->addr;
 403              		.loc 1 205 0
 404 0290 7B68     		ldr	r3, [r7, #4]
 405 0292 5B88     		ldrh	r3, [r3, #2]
 406 0294 1A46     		mov	r2, r3
 407 0296 BB89     		ldrh	r3, [r7, #12]
ARM GAS  C:\Users\Robert\AppData\Local\Temp\ccM2opEE.s 			page 13


 408 0298 1B04     		lsls	r3, r3, #16
 409 029a 1343     		orrs	r3, r3, r2
 410 029c 23F07F42 		bic	r2, r3, #-16777216
 411 02a0 7B68     		ldr	r3, [r7, #4]
 412 02a2 91B2     		uxth	r1, r2
 413 02a4 0020     		movs	r0, #0
 414 02a6 0143     		orrs	r1, r1, r0
 415 02a8 9981     		strh	r1, [r3, #12]	@ movhi
 416 02aa 120C     		lsrs	r2, r2, #16
 417 02ac D2B2     		uxtb	r2, r2
 418 02ae 0021     		movs	r1, #0
 419 02b0 0A43     		orrs	r2, r2, r1
 420 02b2 9A73     		strb	r2, [r3, #14]
 206:.\Python.c    ****                     vessel->addr = addr;
 421              		.loc 1 206 0
 422 02b4 7B68     		ldr	r3, [r7, #4]
 423 02b6 1B78     		ldrb	r3, [r3]	@ zero_extendqisi2
 424 02b8 03F00703 		and	r3, r3, #7
 425 02bc D9B2     		uxtb	r1, r3
 426 02be 7A68     		ldr	r2, [r7, #4]
 427 02c0 537A     		ldrb	r3, [r2, #9]
 428 02c2 61F3C503 		bfi	r3, r1, #3, #3
 429 02c6 5372     		strb	r3, [r2, #9]
 207:.\Python.c    ****                     vessel->cmd = cmd;
 430              		.loc 1 207 0
 431 02c8 7B68     		ldr	r3, [r7, #4]
 432 02ca BA7B     		ldrb	r2, [r7, #14]
 433 02cc 1A70     		strb	r2, [r3]
 208:.\Python.c    ****                     break;
 434              		.loc 1 208 0
 435 02ce 7B68     		ldr	r3, [r7, #4]
 436 02d0 FA7B     		ldrb	r2, [r7, #15]
 437 02d2 5A70     		strb	r2, [r3, #1]
 209:.\Python.c    ****                 case 0x06: //draw column
 438              		.loc 1 209 0
 439 02d4 25E0     		b	.L36
 440              	.L41:
 211:.\Python.c    ****                     vessel->color = vessel->dat|(temp_data<<16);
 441              		.loc 1 211 0
 442 02d6 7868     		ldr	r0, [r7, #4]
 443 02d8 FFF7FEFF 		bl	Python_getData
 212:.\Python.c    ****                     vessel->column = vessel->addr;
 444              		.loc 1 212 0
 445 02dc 7B68     		ldr	r3, [r7, #4]
 446 02de 5B88     		ldrh	r3, [r3, #2]
 447 02e0 1A46     		mov	r2, r3
 448 02e2 BB89     		ldrh	r3, [r7, #12]
 449 02e4 1B04     		lsls	r3, r3, #16
 450 02e6 1343     		orrs	r3, r3, r2
 451 02e8 23F07F42 		bic	r2, r3, #-16777216
 452 02ec 7B68     		ldr	r3, [r7, #4]
 453 02ee 91B2     		uxth	r1, r2
 454 02f0 0020     		movs	r0, #0
 455 02f2 0143     		orrs	r1, r1, r0
 456 02f4 9981     		strh	r1, [r3, #12]	@ movhi
 457 02f6 120C     		lsrs	r2, r2, #16
 458 02f8 D2B2     		uxtb	r2, r2
ARM GAS  C:\Users\Robert\AppData\Local\Temp\ccM2opEE.s 			page 14


 459 02fa 0021     		movs	r1, #0
 460 02fc 0A43     		orrs	r2, r2, r1
 461 02fe 9A73     		strb	r2, [r3, #14]
 213:.\Python.c    ****                     vessel->addr = addr;
 462              		.loc 1 213 0
 463 0300 7B68     		ldr	r3, [r7, #4]
 464 0302 1B78     		ldrb	r3, [r3]	@ zero_extendqisi2
 465 0304 03F00703 		and	r3, r3, #7
 466 0308 D9B2     		uxtb	r1, r3
 467 030a 7A68     		ldr	r2, [r7, #4]
 468 030c 537A     		ldrb	r3, [r2, #9]
 469 030e 61F30203 		bfi	r3, r1, #0, #3
 470 0312 5372     		strb	r3, [r2, #9]
 214:.\Python.c    ****                     vessel->cmd = cmd;
 471              		.loc 1 214 0
 472 0314 7B68     		ldr	r3, [r7, #4]
 473 0316 BA7B     		ldrb	r2, [r7, #14]
 474 0318 1A70     		strb	r2, [r3]
 215:.\Python.c    ****                     break;
 475              		.loc 1 215 0
 476 031a 7B68     		ldr	r3, [r7, #4]
 477 031c FA7B     		ldrb	r2, [r7, #15]
 478 031e 5A70     		strb	r2, [r3, #1]
 216:.\Python.c    ****                 
 479              		.loc 1 216 0
 480 0320 00BF     		nop
 481              	.L36:
 220:.\Python.c    ****         #endif
 482              		.loc 1 220 0
 483 0322 11E0     		b	.L52
 484              	.L42:
 127:.\Python.c    ****         #endif
 485              		.loc 1 127 0
 486 0324 00BF     		nop
 487 0326 10E0     		b	.L1
 488              	.L43:
 102:.\Python.c    ****         #endif
 489              		.loc 1 102 0
 490 0328 00BF     		nop
 491 032a 0EE0     		b	.L1
 492              	.L44:
  66:.\Python.c    ****         #endif
 493              		.loc 1 66 0
 494 032c 00BF     		nop
 495 032e 0CE0     		b	.L1
 496              	.L45:
 112:.\Python.c    ****         #endif
 497              		.loc 1 112 0
 498 0330 00BF     		nop
 499 0332 0AE0     		b	.L1
 500              	.L46:
 107:.\Python.c    ****         #endif
 501              		.loc 1 107 0
 502 0334 00BF     		nop
 503 0336 08E0     		b	.L1
 504              	.L47:
 117:.\Python.c    ****         #endif
ARM GAS  C:\Users\Robert\AppData\Local\Temp\ccM2opEE.s 			page 15


 505              		.loc 1 117 0
 506 0338 00BF     		nop
 507 033a 06E0     		b	.L1
 508              	.L48:
 152:.\Python.c    ****         #endif
 509              		.loc 1 152 0
 510 033c 00BF     		nop
 511 033e 04E0     		b	.L1
 512              	.L49:
 222:.\Python.c    ****         
 513              		.loc 1 222 0
 514 0340 00BF     		nop
 515 0342 02E0     		b	.L1
 516              	.L50:
 224:.\Python.c    ****         
 517              		.loc 1 224 0
 518 0344 00BF     		nop
 519 0346 00E0     		b	.L1
 520              	.L52:
 220:.\Python.c    ****         #endif
 521              		.loc 1 220 0
 522 0348 00BF     		nop
 523              	.L1:
 227:.\Python.c    ****         
 228:.\Python.c    ****     }
 229:.\Python.c    **** }
 524              		.loc 1 229 0
 525 034a 1037     		adds	r7, r7, #16
 526              		.cfi_def_cfa_offset 8
 527 034c BD46     		mov	sp, r7
 528              		.cfi_def_cfa_register 13
 529              		@ sp needed
 530 034e 80BD     		pop	{r7, pc}
 531              		.cfi_endproc
 532              	.LFE56:
 533              		.size	Python_parser, .-Python_parser
 534              		.section	.text.Python_Initialize,"ax",%progbits
 535              		.align	2
 536              		.global	Python_Initialize
 537              		.thumb
 538              		.thumb_func
 539              		.type	Python_Initialize, %function
 540              	Python_Initialize:
 541              	.LFB57:
 230:.\Python.c    **** 
 231:.\Python.c    **** void Python_Initialize(void)
 232:.\Python.c    **** {
 542              		.loc 1 232 0
 543              		.cfi_startproc
 544              		@ args = 0, pretend = 0, frame = 0
 545              		@ frame_needed = 1, uses_anonymous_args = 0
 546 0000 80B5     		push	{r7, lr}
 547              		.cfi_def_cfa_offset 8
 548              		.cfi_offset 7, -8
 549              		.cfi_offset 14, -4
 550 0002 00AF     		add	r7, sp, #0
 551              		.cfi_def_cfa_register 7
ARM GAS  C:\Users\Robert\AppData\Local\Temp\ccM2opEE.s 			page 16


 233:.\Python.c    ****         #if defined(USE_SPI)
 234:.\Python.c    ****             SPIS_1_Start();
 235:.\Python.c    ****             SPIS_1_ClearFIFO();
 236:.\Python.c    ****             SPIS_1_ClearRxBuffer();
 237:.\Python.c    ****             SPIS_1_ClearTxBuffer();
 238:.\Python.c    ****         #elif defined(USE_I2C)
 239:.\Python.c    ****             I2C_1_SlaveInitReadBuf(RD_buf,  I2C_BUFFER_SIZE);
 240:.\Python.c    ****             I2C_1_SlaveInitWriteBuf(WR_buf,  I2C_BUFFER_SIZE);
 241:.\Python.c    ****             I2C_1_Start();
 242:.\Python.c    ****         #elif defined(USE_SERIAL)
 243:.\Python.c    ****             /* Start USBFS Operation with 5V operation */
 244:.\Python.c    ****             USBUART_Start(0u, USBUART_5V_OPERATION);
 552              		.loc 1 244 0
 553 0004 0020     		movs	r0, #0
 554 0006 0121     		movs	r1, #1
 555 0008 FFF7FEFF 		bl	USBUART_Start
 245:.\Python.c    **** 
 246:.\Python.c    ****             /* Wait for Device to enumerate */
 247:.\Python.c    ****             while(!USBUART_GetConfiguration());
 556              		.loc 1 247 0
 557 000c 00BF     		nop
 558              	.L54:
 559              		.loc 1 247 0 is_stmt 0 discriminator 1
 560 000e FFF7FEFF 		bl	USBUART_GetConfiguration
 561 0012 0346     		mov	r3, r0
 562 0014 002B     		cmp	r3, #0
 563 0016 FAD0     		beq	.L54
 248:.\Python.c    ****             /* Enumeration is done, enable OUT endpoint for receive data from Host */
 249:.\Python.c    ****             USBUART_CDC_Init();
 564              		.loc 1 249 0 is_stmt 1
 565 0018 FFF7FEFF 		bl	USBUART_CDC_Init
 250:.\Python.c    ****         #endif
 251:.\Python.c    **** }
 566              		.loc 1 251 0
 567 001c 80BD     		pop	{r7, pc}
 568              		.cfi_endproc
 569              	.LFE57:
 570              		.size	Python_Initialize, .-Python_Initialize
 571 001e 00BF     		.section	.text.Python_getData,"ax",%progbits
 572              		.align	2
 573              		.global	Python_getData
 574              		.thumb
 575              		.thumb_func
 576              		.type	Python_getData, %function
 577              	Python_getData:
 578              	.LFB58:
 252:.\Python.c    **** 
 253:.\Python.c    **** /****************************************************************************************//**
 254:.\Python.c    **** *  @brief receives 4 bytes of data from a Master Device, merges them into a 32 bit number, and
 255:.\Python.c    **** *         returns the result
 256:.\Python.c    **** *
 257:.\Python.c    **** *  @return: 32-bit number which contains all 4 bytes of transferred data, where the MSB is the 
 258:.\Python.c    ****             first item received.
 259:.\Python.c    **** *
 260:.\Python.c    **** *********************************************************************************************/
 261:.\Python.c    ****     
 262:.\Python.c    ****     void Python_getData(vessel_type *vessel)
ARM GAS  C:\Users\Robert\AppData\Local\Temp\ccM2opEE.s 			page 17


 263:.\Python.c    ****     {   
 579              		.loc 1 263 0
 580              		.cfi_startproc
 581              		@ args = 0, pretend = 0, frame = 16
 582              		@ frame_needed = 1, uses_anonymous_args = 0
 583 0000 80B5     		push	{r7, lr}
 584              		.cfi_def_cfa_offset 8
 585              		.cfi_offset 7, -8
 586              		.cfi_offset 14, -4
 587 0002 84B0     		sub	sp, sp, #16
 588              		.cfi_def_cfa_offset 24
 589 0004 00AF     		add	r7, sp, #0
 590              		.cfi_def_cfa_register 7
 591 0006 7860     		str	r0, [r7, #4]
 264:.\Python.c    ****         uint8 addr = 0;
 592              		.loc 1 264 0
 593 0008 0023     		movs	r3, #0
 594 000a FB73     		strb	r3, [r7, #15]
 265:.\Python.c    ****         uint8 cmd = 0;
 595              		.loc 1 265 0
 596 000c 0023     		movs	r3, #0
 597 000e BB73     		strb	r3, [r7, #14]
 266:.\Python.c    ****         uint8 dat_lo = 0;
 598              		.loc 1 266 0
 599 0010 0023     		movs	r3, #0
 600 0012 7B73     		strb	r3, [r7, #13]
 267:.\Python.c    ****         uint8 dat_hi = 0;
 601              		.loc 1 267 0
 602 0014 0023     		movs	r3, #0
 603 0016 3B73     		strb	r3, [r7, #12]
 268:.\Python.c    ****         
 269:.\Python.c    ****         #if defined(USE_SPI)            /* SPI READ HANDLER */
 270:.\Python.c    ****             while(!SPIS_1_GetRxBufferSize()){/* Wait until the Rx buffer isn't empty */}
 271:.\Python.c    ****                 addr = SPIS_1_ReadRxData();
 272:.\Python.c    ****     	    while(!SPIS_1_GetRxBufferSize()){/* Wait until the Rx buffer isn't empty */}
 273:.\Python.c    ****     	        cmd = SPIS_1_ReadRxData();
 274:.\Python.c    ****     	    while(!SPIS_1_GetRxBufferSize()){/* Wait until the Rx buffer isn't empty */}
 275:.\Python.c    ****     	        dat_lo = SPIS_1_ReadRxData();
 276:.\Python.c    ****             while(!SPIS_1_GetRxBufferSize()){/* Wait until the Rx buffer isn't empty */}
 277:.\Python.c    ****     	        dat_hi = SPIS_1_ReadRxData();
 278:.\Python.c    ****       
 279:.\Python.c    ****         
 280:.\Python.c    ****         #elif defined(USE_I2C)          /* I2C READ HANDLER */
 281:.\Python.c    ****             while (!I2C_1_SlaveGetWriteBufSize()){}
 282:.\Python.c    ****             /* wait until I2C master is not writing or reading from the Buffer */
 283:.\Python.c    ****             while (!(I2C_1_SlaveStatus() & I2C_1_SSTAT_WR_CMPLT)){}         
 284:.\Python.c    ****                 uint8 byteCount = I2C_1_SlaveGetWriteBufSize(); 
 285:.\Python.c    ****            
 286:.\Python.c    ****                 addr = WR_buf[0];
 287:.\Python.c    ****                 cmd = WR_buf[1];
 288:.\Python.c    ****                 dat_lo = WR_buf[2];
 289:.\Python.c    ****                 dat_hi = WR_buf[3];
 290:.\Python.c    ****                 
 291:.\Python.c    ****                 I2C_1_SlaveClearWriteStatus();
 292:.\Python.c    ****                 I2C_1_SlaveClearWriteBuf();
 293:.\Python.c    ****                 
 294:.\Python.c    ****         
ARM GAS  C:\Users\Robert\AppData\Local\Temp\ccM2opEE.s 			page 18


 295:.\Python.c    ****         #elif defined(USE_SERIAL)       /* USBUART READ HANDLER */
 296:.\Python.c    ****             while (!USBUART_DataIsReady()){}
 604              		.loc 1 296 0
 605 0018 00BF     		nop
 606              	.L56:
 607              		.loc 1 296 0 is_stmt 0 discriminator 1
 608 001a FFF7FEFF 		bl	USBUART_DataIsReady
 609 001e 0346     		mov	r3, r0
 610 0020 002B     		cmp	r3, #0
 611 0022 FAD0     		beq	.L56
 297:.\Python.c    ****             
 298:.\Python.c    ****             uint8 data_len = USBUART_GetAll(buffer);
 612              		.loc 1 298 0 is_stmt 1
 613 0024 1148     		ldr	r0, .L57
 614 0026 FFF7FEFF 		bl	USBUART_GetAll
 615 002a 0346     		mov	r3, r0
 616 002c FB72     		strb	r3, [r7, #11]
 299:.\Python.c    ****             
 300:.\Python.c    ****             addr = buffer[0];
 617              		.loc 1 300 0
 618 002e 0F4B     		ldr	r3, .L57
 619 0030 1B78     		ldrb	r3, [r3]
 620 0032 FB73     		strb	r3, [r7, #15]
 301:.\Python.c    ****             cmd = buffer[1];
 621              		.loc 1 301 0
 622 0034 0D4B     		ldr	r3, .L57
 623 0036 5B78     		ldrb	r3, [r3, #1]
 624 0038 BB73     		strb	r3, [r7, #14]
 302:.\Python.c    ****             dat_lo = buffer[2];
 625              		.loc 1 302 0
 626 003a 0C4B     		ldr	r3, .L57
 627 003c 9B78     		ldrb	r3, [r3, #2]
 628 003e 7B73     		strb	r3, [r7, #13]
 303:.\Python.c    ****             dat_hi = buffer[3];
 629              		.loc 1 303 0
 630 0040 0A4B     		ldr	r3, .L57
 631 0042 DB78     		ldrb	r3, [r3, #3]
 632 0044 3B73     		strb	r3, [r7, #12]
 304:.\Python.c    ****             
 305:.\Python.c    ****         #endif
 306:.\Python.c    ****         
 307:.\Python.c    ****         vessel->addr = addr;
 633              		.loc 1 307 0
 634 0046 7B68     		ldr	r3, [r7, #4]
 635 0048 FA7B     		ldrb	r2, [r7, #15]
 636 004a 1A70     		strb	r2, [r3]
 308:.\Python.c    ****         vessel->cmd = cmd;
 637              		.loc 1 308 0
 638 004c 7B68     		ldr	r3, [r7, #4]
 639 004e BA7B     		ldrb	r2, [r7, #14]
 640 0050 5A70     		strb	r2, [r3, #1]
 309:.\Python.c    ****         vessel->dat = (dat_hi<<8)|dat_lo;
 641              		.loc 1 309 0
 642 0052 3B7B     		ldrb	r3, [r7, #12]	@ zero_extendqisi2
 643 0054 1B02     		lsls	r3, r3, #8
 644 0056 9AB2     		uxth	r2, r3
 645 0058 7B7B     		ldrb	r3, [r7, #13]	@ zero_extendqisi2
ARM GAS  C:\Users\Robert\AppData\Local\Temp\ccM2opEE.s 			page 19


 646 005a 9BB2     		uxth	r3, r3
 647 005c 1343     		orrs	r3, r3, r2
 648 005e 9BB2     		uxth	r3, r3
 649 0060 9AB2     		uxth	r2, r3
 650 0062 7B68     		ldr	r3, [r7, #4]
 651 0064 5A80     		strh	r2, [r3, #2]	@ movhi
 310:.\Python.c    ****     }
 652              		.loc 1 310 0
 653 0066 1037     		adds	r7, r7, #16
 654              		.cfi_def_cfa_offset 8
 655 0068 BD46     		mov	sp, r7
 656              		.cfi_def_cfa_register 13
 657              		@ sp needed
 658 006a 80BD     		pop	{r7, pc}
 659              	.L58:
 660              		.align	2
 661              	.L57:
 662 006c 00000000 		.word	buffer
 663              		.cfi_endproc
 664              	.LFE58:
 665              		.size	Python_getData, .-Python_getData
 666              		.section	.text.Python_sendData,"ax",%progbits
 667              		.align	2
 668              		.global	Python_sendData
 669              		.thumb
 670              		.thumb_func
 671              		.type	Python_sendData, %function
 672              	Python_sendData:
 673              	.LFB59:
 311:.\Python.c    ****     
 312:.\Python.c    **** /****************************************************************************************//**
 313:.\Python.c    **** *  @brief Writes data back to the Master device when appropriate. 
 314:.\Python.c    **** *
 315:.\Python.c    **** *  @param dat: 32-bit number which is to be sent to the Master device. It is split into 4
 316:.\Python.c    **** *              individual bytes, and transferred one at a time starting with the lowest byte
 317:.\Python.c    **** *
 318:.\Python.c    **** *********************************************************************************************/
 319:.\Python.c    ****     
 320:.\Python.c    ****     void Python_sendData(uint32 dat)
 321:.\Python.c    ****     {
 674              		.loc 1 321 0
 675              		.cfi_startproc
 676              		@ args = 0, pretend = 0, frame = 16
 677              		@ frame_needed = 1, uses_anonymous_args = 0
 678 0000 80B5     		push	{r7, lr}
 679              		.cfi_def_cfa_offset 8
 680              		.cfi_offset 7, -8
 681              		.cfi_offset 14, -4
 682 0002 84B0     		sub	sp, sp, #16
 683              		.cfi_def_cfa_offset 24
 684 0004 00AF     		add	r7, sp, #0
 685              		.cfi_def_cfa_register 7
 686 0006 7860     		str	r0, [r7, #4]
 322:.\Python.c    ****             uint8 out_hi = (dat & 0xFF000000)>>24;
 687              		.loc 1 322 0
 688 0008 7B68     		ldr	r3, [r7, #4]
 689 000a 1B0E     		lsrs	r3, r3, #24
ARM GAS  C:\Users\Robert\AppData\Local\Temp\ccM2opEE.s 			page 20


 690 000c FB73     		strb	r3, [r7, #15]
 323:.\Python.c    ****             uint8 out_mid_hi = (dat & 0x00FF0000)>>16;
 691              		.loc 1 323 0
 692 000e 7B68     		ldr	r3, [r7, #4]
 693 0010 03F47F03 		and	r3, r3, #16711680
 694 0014 1B0C     		lsrs	r3, r3, #16
 695 0016 BB73     		strb	r3, [r7, #14]
 324:.\Python.c    ****             uint8 out_mid_lo = (dat & 0x0000FF00)>>8;
 696              		.loc 1 324 0
 697 0018 7B68     		ldr	r3, [r7, #4]
 698 001a 03F47F43 		and	r3, r3, #65280
 699 001e 1B0A     		lsrs	r3, r3, #8
 700 0020 7B73     		strb	r3, [r7, #13]
 325:.\Python.c    ****             uint8 out_lo = dat & 0x000000FF;
 701              		.loc 1 325 0
 702 0022 7B68     		ldr	r3, [r7, #4]
 703 0024 3B73     		strb	r3, [r7, #12]
 326:.\Python.c    ****         
 327:.\Python.c    ****         
 328:.\Python.c    ****         #if defined(USE_SPI)            /* SPI WRITE HANDLER */
 329:.\Python.c    ****             SPIS_1_ClearTxBuffer();
 330:.\Python.c    ****             SPIS_1_ClearFIFO();    //Clear the SPI buffers
 331:.\Python.c    ****             SPIS_1_ClearRxBuffer();
 332:.\Python.c    ****             
 333:.\Python.c    ****             uint8 SPI_buffer[3] = {out_mid_lo, out_mid_hi, out_hi};
 334:.\Python.c    ****             SPIS_1_WriteTxDataZero(out_lo);
 335:.\Python.c    ****             SPIS_1_PutArray(SPI_buffer, 3);
 336:.\Python.c    ****            
 337:.\Python.c    ****             while(!(SPIS_1_ReadTxStatus() & SPIS_1_STS_SPI_DONE)); //Wait until Tx buffer empties  
 338:.\Python.c    ****             
 339:.\Python.c    ****         #elif defined(USE_I2C)          /* I2C WRITE HANDLER */
 340:.\Python.c    ****             while (I2C_1_SlaveGetReadBufSize()){}
 341:.\Python.c    ****             RD_buf[0] = out_lo;
 342:.\Python.c    ****             RD_buf[1] = out_mid_lo;
 343:.\Python.c    ****             RD_buf[2] = out_mid_hi;
 344:.\Python.c    ****             RD_buf[3] = out_hi;
 345:.\Python.c    ****             
 346:.\Python.c    ****             /*Wait until read is complete*/
 347:.\Python.c    ****             while (0u == (I2C_1_SlaveStatus() & I2C_1_SSTAT_RD_CMPLT)){}
 348:.\Python.c    ****                 I2C_1_SlaveClearReadBuf();          /* Clear slave read buffer and status */
 349:.\Python.c    ****                 (void) I2C_1_SlaveClearReadStatus();
 350:.\Python.c    ****                 
 351:.\Python.c    ****         #elif defined(USE_SERIAL)      /* USBUART WRITE HANDLER */
 352:.\Python.c    ****             
 353:.\Python.c    ****             while(!USBUART_CDCIsReady()){}
 704              		.loc 1 353 0
 705 0026 00BF     		nop
 706              	.L60:
 707              		.loc 1 353 0 is_stmt 0 discriminator 1
 708 0028 FFF7FEFF 		bl	USBUART_CDCIsReady
 709 002c 0346     		mov	r3, r0
 710 002e 002B     		cmp	r3, #0
 711 0030 FAD0     		beq	.L60
 354:.\Python.c    ****             uint8 dat_out[4] = {out_lo, out_mid_lo, out_mid_hi, out_hi};
 712              		.loc 1 354 0 is_stmt 1
 713 0032 3B7B     		ldrb	r3, [r7, #12]
 714 0034 3B72     		strb	r3, [r7, #8]
ARM GAS  C:\Users\Robert\AppData\Local\Temp\ccM2opEE.s 			page 21


 715 0036 7B7B     		ldrb	r3, [r7, #13]
 716 0038 7B72     		strb	r3, [r7, #9]
 717 003a BB7B     		ldrb	r3, [r7, #14]
 718 003c BB72     		strb	r3, [r7, #10]
 719 003e FB7B     		ldrb	r3, [r7, #15]
 720 0040 FB72     		strb	r3, [r7, #11]
 355:.\Python.c    ****             USBUART_PutData(dat_out, 4);
 721              		.loc 1 355 0
 722 0042 07F10803 		add	r3, r7, #8
 723 0046 1846     		mov	r0, r3
 724 0048 0421     		movs	r1, #4
 725 004a FFF7FEFF 		bl	USBUART_PutData
 356:.\Python.c    ****             
 357:.\Python.c    ****         #endif
 358:.\Python.c    ****         
 359:.\Python.c    ****     }
 726              		.loc 1 359 0
 727 004e 1037     		adds	r7, r7, #16
 728              		.cfi_def_cfa_offset 8
 729 0050 BD46     		mov	sp, r7
 730              		.cfi_def_cfa_register 13
 731              		@ sp needed
 732 0052 80BD     		pop	{r7, pc}
 733              		.cfi_endproc
 734              	.LFE59:
 735              		.size	Python_sendData, .-Python_sendData
 736              		.text
 737              	.Letext0:
 738              		.file 2 "c:\\program files (x86)\\cypress\\psoc creator\\3.3\\psoc creator\\import\\gnu\\arm\\4.9.
 739              		.file 3 "c:\\program files (x86)\\cypress\\psoc creator\\3.3\\psoc creator\\import\\gnu\\arm\\4.9.
 740              		.file 4 "Generated_Source\\PSoC5/cytypes.h"
 741              		.file 5 ".\\mem1.h"
 742              		.file 6 "Generated_Source\\PSoC5/core_cm3.h"